 CHAIKRNL

 Timestamp is 5695457a (Tue Jan 12 18:27:06 2016)

 Preferred load address is c0000000

 Start         Length     Name                   Class
 0001:00000000 00000030H .code$0                 CODE
 0001:00000030 000000a6H .text                   CODE
 0001:000000e0 000000acH .text$di                CODE
 0001:00000190 0003a20bH .text$mn                CODE
 0001:0003a3a0 000000abH .text$yd                CODE
 0002:00000000 00000030H .idata$5                DATA
 0002:00000030 00000004H .CRT$XCA                DATA
 0002:00000034 00000024H .CRT$XCU                DATA
 0002:00000058 00000004H .CRT$XCZ                DATA
 0002:0000005c 00000004H .CRT$XIA                DATA
 0002:00000060 00000004H .CRT$XIZ                DATA
 0002:00000070 00024ea0H .rdata                  DATA
 0002:00024f10 00000080H .rdata$debug            DATA
 0003:00000000 00000bb0H .data                   DATA
 0003:00000bc0 00001cd4H .bss                    DATA
 0004:00000000 00000082H .rdata                  DATA
 0005:00000000 000002feH .edata                  DATA
 0006:00000000 00000028H .idata$2                CODE
 0006:00000028 00000014H .idata$3                CODE
 0006:0000003c 00000030H .idata$4                CODE
 0006:0000006c 0000010cH .idata$6                CODE

  Address         Publics by Value              Rva+Base       Lib:Object

 0000:00000000       ___guard_fids_count        00000000     <absolute>
 0000:00000000       ___safe_se_handler_table   00000000     <absolute>
 0000:00000000       ___guard_fids_table        00000000     <absolute>
 0000:00000000       ___guard_flags             00000000     <absolute>
 0000:00000000       ___safe_se_handler_count   00000000     <absolute>
 0001:00000000       ?mbstruct@@3U_MULTIBOOT_STRUCT@@A c0000400     entry.obj
 0001:00000030       _setStack                  c0000430     stack.obj
 0001:0000003d       _getStack                  c000043d     stack.obj
 0001:00000040       _getBase                   c0000440     stack.obj
 0001:00000043       _storeMBinfo               c0000443     stack.obj
 0001:00000048       _modload_interrupt_handler c0000448     stack.obj
 0001:00000060       _fpu_setup                 c0000460     crtbase:generalasmx86.obj
 0001:00000063       _load_taskreg              c0000463     crtbase:generalasmx86.obj
 0001:0000006c       _load_cs                   c000046c     crtbase:generalasmx86.obj
 0001:00000072       _load_ds                   c0000472     crtbase:generalasmx86.obj
 0001:0000007d       _interrupt                 c000047d     crtbase:generalasmx86.obj
 0001:0000008f       _setjmp                    c000048f     crtbase:generalasmx86.obj
 0001:000000b6       __setjmp3                  c00004b6     crtbase:generalasmx86.obj
 0001:000000b8       _longjmp                   c00004b8     crtbase:generalasmx86.obj
 0001:00000190       ?basic_physical_to_virtual_copy@@YAXPAX0I@Z c0000590 f   basicphyscopy.obj
 0001:00000250       ?setup_basic_interrupts@@YAXXZ c0000650 f   basicinterruptsx86.obj
 0001:000002d0       ?basic_interrupt_register@@YAXIP6AXXZ@Z c00006d0 f   basicinterruptsx86.obj
 0001:00000310       ??1CChaiOSAPIClass@@IAE@XZ c0000710 f i basicpagingx86.obj
 0001:00000320       ??1CVMemMngr@@IAE@XZ       c0000720 f i basicpagingx86.obj
 0001:00000330       ??0__PAGING_ATTRIBUTES@CVMemMngr@@QAE@PAX0_N11@Z c0000730 f i basicpagingx86.obj
 0001:00000360       ??0CVMemMngr@@QAE@XZ       c0000760 f i basicpagingx86.obj
 0001:000003d0       ?getDefaultAttributes@CVMemMngr@@UAEABV__PAGING_ATTRIBUTES@1@_N@Z c00007d0 f i basicpagingx86.obj
 0001:000003f0       ??0CChaiOSAPIClass@@QAE@XZ c00007f0 f i basicpagingx86.obj
 0001:00000400       ?basic_paging_setup@@YAXXZ c0000800 f   basicpagingx86.obj
 0001:000004f0       ?basic_paging_create_mapping@@YAPAXPAX@Z c00008f0 f   basicpagingx86.obj
 0001:00000530       ?basic_paging_close_mapping@@YAXPAX@Z c0000930 f   basicpagingx86.obj
 0001:00000550       ?destroy@CBasicPagingVmemMngr@@UAGXXZ c0000950 f i basicpagingx86.obj
 0001:00000560       ?initialize@CBasicPagingVmemMngr@@UAG_NPAVCVMemMngr@@@Z c0000960 f i basicpagingx86.obj
 0001:00000570       ?allocate@CBasicPagingVmemMngr@@UAGPAXIABV__PAGING_ATTRIBUTES@CVMemMngr@@@Z c0000970 f i basicpagingx86.obj
 0001:00000580       ?allocateSinglePage@CBasicPagingVmemMngr@@UAGPAXABV__PAGING_ATTRIBUTES@CVMemMngr@@@Z c0000980 f i basicpagingx86.obj
 0001:00000590       ?free@CBasicPagingVmemMngr@@UAGXPAXI_N@Z c0000990 f i basicpagingx86.obj
 0001:000005a0       ?freeSinglePage@CBasicPagingVmemMngr@@UAGXPAX_N@Z c00009a0 f i basicpagingx86.obj
 0001:000005b0       ?getPhysicalAddress@CBasicPagingVmemMngr@@UAGPAXPAX@Z c00009b0 f i basicpagingx86.obj
 0001:000005c0       ?mapPhysicalAddress@CBasicPagingVmemMngr@@UAGPAXPAXIABV__PAGING_ATTRIBUTES@CVMemMngr@@@Z c00009c0 f i basicpagingx86.obj
 0001:000005d0       ?mapSinglePhysicalPage@CBasicPagingVmemMngr@@UAGPAXPAXABV__PAGING_ATTRIBUTES@CVMemMngr@@@Z c00009d0 f i basicpagingx86.obj
 0001:000005e0       ?allocateAt@CBasicPagingVmemMngr@@UAGPAXPAXIABV__PAGING_ATTRIBUTES@CVMemMngr@@@Z c00009e0 f i basicpagingx86.obj
 0001:000005f0       ?allocateSingleAt@CBasicPagingVmemMngr@@UAGPAXPAXABV__PAGING_ATTRIBUTES@CVMemMngr@@@Z c00009f0 f i basicpagingx86.obj
 0001:00000600       ?mapPhysicalAddressAt@CBasicPagingVmemMngr@@UAGPAXPAX0IABV__PAGING_ATTRIBUTES@CVMemMngr@@@Z c0000a00 f i basicpagingx86.obj
 0001:00000610       ?mapSinglePhysicalAddressAt@CBasicPagingVmemMngr@@UAGPAXPAX0ABV__PAGING_ATTRIBUTES@CVMemMngr@@@Z c0000a10 f i basicpagingx86.obj
 0001:00000620       ?createNewAddressSpace@CBasicPagingVmemMngr@@UAGIXZ c0000a20 f i basicpagingx86.obj
 0001:00000630       ?loadAddressSpace@CBasicPagingVmemMngr@@UAGII@Z c0000a30 f i basicpagingx86.obj
 0001:00000640       ??0CBasicPagingVmemMngr@@QAE@XZ c0000a40 f   basicpagingx86.obj
 0001:000006e0       ?vmemTransfer@CBasicPagingVmemMngr@@UAGPAU__VMMAP_TRANSFER@CVMemMngr@@XZ c0000ae0 f   basicpagingx86.obj
 0001:000006f0       ??1CBasicPagingVmemMngr@@QAE@XZ c0000af0 f i basicpagingx86.obj
 0001:00000700       ?basic_paging_getVmemClass@@YAPAXXZ c0000b00 f   basicpagingx86.obj
 0001:00000710       ?basic_segmentaion_setup@@YAXXZ c0000b10 f   basicsegmentationx86.obj
 0001:00000730       ?CPU_SYSREQ_FAIL@@YAXXZ    c0000b30 f   cpusetupx86.obj
 0001:00000760       ?cpuBasicSetup@@YAXXZ      c0000b60 f   cpusetupx86.obj
 0001:000007e0       ??3CChaiOSAPIClass@@SAXPAX@Z c0000be0 f i pmmngrx86.obj
 0001:00000800       ??1CPMemMngr@@IAE@XZ       c0000c00 f i pmmngrx86.obj
 0001:00000810       ??1CSpinlock@@QAE@XZ       c0000c10 f i pmmngrx86.obj
 0001:00000820       ??0CSpinlock@@QAE@ABV0@@Z  c0000c20 f i pmmngrx86.obj
 0001:00000840       ??4CSpinlock@@QAEAAV0@ABV0@@Z c0000c40 f i pmmngrx86.obj
 0001:00000860       ??0CChaiOSAPIClass@@QAE@ABV0@@Z c0000c60 f i pmmngrx86.obj
 0001:00000870       ??4CChaiOSAPIClass@@QAEAAV0@ABV0@@Z c0000c70 f i pmmngrx86.obj
 0001:00000880       ?getMemorySize@CX86DefaultPMemMngr@@UAGIXZ c0000c80 f i pmmngrx86.obj
 0001:00000890       ??0CX86DefaultPMemMngr@@QAE@_N@Z c0000c90 f   pmmngrx86.obj
 0001:000008f0       ??0CPMemMngr@@QAE@XZ       c0000cf0 f i pmmngrx86.obj
 0001:00000900       ?destroy@CX86DefaultPMemMngr@@UAGXXZ c0000d00 f   pmmngrx86.obj
 0001:00000930       ??_GCX86DefaultPMemMngr@@QAEPAXI@Z c0000d30 f i pmmngrx86.obj
 0001:00000950       ??1CX86DefaultPMemMngr@@QAE@XZ c0000d50 f i pmmngrx86.obj
 0001:00000960       ?mmapTransfer@CX86DefaultPMemMngr@@UAGXPAVCPMemMngr@@PAX@Z c0000d60 f   pmmngrx86.obj
 0001:00000be0       ?TransferCallback@CX86DefaultPMemMngr@@UAGXPAU__PMMAP_TRANSFER_ENTRY@CPMemMngr@@PAX@Z c0000fe0 f   pmmngrx86.obj
 0001:00000c80       ?initialize@CX86DefaultPMemMngr@@UAG_NPAVCPMemMngr@@@Z c0001080 f   pmmngrx86.obj
 0001:00000ce0       ?setUsedUnlocked@CX86DefaultPMemMngr@@MAG_NPAX_N@Z c00010e0 f   pmmngrx86.obj
 0001:00000d40       ?setUsed@CX86DefaultPMemMngr@@UAGXPAX_N@Z c0001140 f   pmmngrx86.obj
 0001:00000da0       ?getUsed@CX86DefaultPMemMngr@@UAG_NPAX@Z c00011a0 f   pmmngrx86.obj
 0001:00000dd0       ?allocate@CX86DefaultPMemMngr@@UAGPAXIPAX@Z c00011d0 f   pmmngrx86.obj
 0001:00000e70       ?free@CX86DefaultPMemMngr@@UAGXPAXI@Z c0001270 f   pmmngrx86.obj
 0001:00000eb0       ?allocateSinglePage@CX86DefaultPMemMngr@@UAGPAXPAX@Z c00012b0 f   pmmngrx86.obj
 0001:00000fe0       ?freeSinglePage@CX86DefaultPMemMngr@@UAGXPAX@Z c00013e0 f   pmmngrx86.obj
 0001:00001000       _DefaultPMemMngrFactory@0  c0001400 f   pmmngrx86.obj
 0001:00001010       ??0CSpinlock@@QAE@XZ       c0001410 f   spinlockx86.obj
 0001:00001020       ?destroy@CSpinlock@@UAGXXZ c0001420 f   spinlockx86.obj
 0001:00001030       ?acquireSpinlock@CSpinlock@@UAGXXZ c0001430 f   spinlockx86.obj
 0001:00001060       ?releaseSpinlock@CSpinlock@@UAGXXZ c0001460 f   spinlockx86.obj
 0001:00001080       ?kputhex_basic@@YAXI@Z     c0001480 f i terminal_basicx86.obj
 0001:00001090       ?kputc_basic@@YAXD@Z       c0001490 f   terminal_basicx86.obj
 0001:00001120       ?kcls_basic@@YAXXZ         c0001520 f   terminal_basicx86.obj
 0001:000011a0       ?kputs_basic@@YAXPAD@Z     c00015a0 f   terminal_basicx86.obj
 0001:00001240       ?kpanic_basic@@YAXPADIIIII@Z c0001640 f   terminal_basicx86.obj
 0001:00001380       ?kputhex_basic@@YAXPAX@Z   c0001780 f   terminal_basicx86.obj
 0001:00001400       ?unmapSinglePage@CVMemMngr@@QAGXPAX@Z c0001800 f i vmmngrx86.obj
 0001:00001410       ??0CX86DefaultVMemMngr@@QAE@XZ c0001810 f i vmmngrx86.obj
 0001:000014b0       ?destroy@CX86DefaultVMemMngr@@UAGXXZ c00018b0 f   vmmngrx86.obj
 0001:000014c0       ?vmemTransfer@CX86DefaultVMemMngr@@UAGPAU__VMMAP_TRANSFER@CVMemMngr@@XZ c00018c0 f   vmmngrx86.obj
 0001:000014d0       ?initialize@CX86DefaultVMemMngr@@UAG_NPAVCVMemMngr@@@Z c00018d0 f   vmmngrx86.obj
 0001:00001500       ?allocate@CX86DefaultVMemMngr@@UAGPAXIABV__PAGING_ATTRIBUTES@CVMemMngr@@@Z c0001900 f   vmmngrx86.obj
 0001:00001620       ?allocateSinglePage@CX86DefaultVMemMngr@@UAGPAXABV__PAGING_ATTRIBUTES@CVMemMngr@@@Z c0001a20 f   vmmngrx86.obj
 0001:000018b0       ?free@CX86DefaultVMemMngr@@UAGXPAXI_N@Z c0001cb0 f   vmmngrx86.obj
 0001:00001980       ?freeSinglePage@CX86DefaultVMemMngr@@UAGXPAX_N@Z c0001d80 f   vmmngrx86.obj
 0001:00001a10       ?getPhysicalAddress@CX86DefaultVMemMngr@@UAGPAXPAX@Z c0001e10 f   vmmngrx86.obj
 0001:00001a80       ?mapPhysicalAddress@CX86DefaultVMemMngr@@UAGPAXPAXIABV__PAGING_ATTRIBUTES@CVMemMngr@@@Z c0001e80 f   vmmngrx86.obj
 0001:00001bb0       ?mapSinglePhysicalPage@CX86DefaultVMemMngr@@UAGPAXPAXABV__PAGING_ATTRIBUTES@CVMemMngr@@@Z c0001fb0 f   vmmngrx86.obj
 0001:00001c70       ?allocateAt@CX86DefaultVMemMngr@@UAGPAXPAXIABV__PAGING_ATTRIBUTES@CVMemMngr@@@Z c0002070 f   vmmngrx86.obj
 0001:00001ce0       ?allocateSingleAt@CX86DefaultVMemMngr@@UAGPAXPAXABV__PAGING_ATTRIBUTES@CVMemMngr@@@Z c00020e0 f   vmmngrx86.obj
 0001:00001eb0       ?mapPhysicalAddressAt@CX86DefaultVMemMngr@@UAGPAXPAX0IABV__PAGING_ATTRIBUTES@CVMemMngr@@@Z c00022b0 f   vmmngrx86.obj
 0001:00001f20       ?mapSinglePhysicalAddressAt@CX86DefaultVMemMngr@@UAGPAXPAX0ABV__PAGING_ATTRIBUTES@CVMemMngr@@@Z c0002320 f   vmmngrx86.obj
 0001:000020b0       ?createNewAddressSpace@CX86DefaultVMemMngr@@UAGIXZ c00024b0 f   vmmngrx86.obj
 0001:00002160       ?loadAddressSpace@CX86DefaultVMemMngr@@UAGII@Z c0002560 f   vmmngrx86.obj
 0001:00002190       ??1CX86DefaultVMemMngr@@QAE@XZ c0002590 f i vmmngrx86.obj
 0001:000021b0       _DefaultVMemMngrFactory@0  c00025b0 f   vmmngrx86.obj
 0001:000021c0       ?ClassFromChN@@YAH_W@Z     c00025c0 f   bidi.obj
 0001:000021e0       ?ClassFromChWS@@YAH_W@Z    c00025e0 f   bidi.obj
 0001:000021f0       ?reverse@@YAXPA_WH@Z       c00025f0 f   bidi.obj
 0001:00002220       ?SetDeferredRun@@YAXPAHHHH@Z c0002620 f   bidi.obj
 0001:00002250       ?classify@@YAHPB_WPAHH_N@Z c0002650 f   bidi.obj
 0001:000022c0       ?resolveParagraphs@@YAHPAHH@Z c00026c0 f   bidi.obj
 0001:000022f0       ?baseLevel@@YAHPBHH@Z      c00026f0 f   bidi.obj
 0001:00002320       ?GreaterEven@@YAHH@Z       c0002720 f   bidi.obj
 0001:00002330       ?GreaterOdd@@YAHH@Z        c0002730 f   bidi.obj
 0001:00002340       ?EmbeddingDirection@@YAHH@Z c0002740 f   bidi.obj
 0001:00002350       ?resolveExplicit@@YAHHHPAH0HH@Z c0002750 f   bidi.obj
 0001:000024b0       ?GetDeferredType@@YAHH@Z   c00028b0 f   bidi.obj
 0001:000024c0       ?GetResolvedType@@YAHH@Z   c00028c0 f   bidi.obj
 0001:000024d0       ?resolveWeak@@YAXHPAH0H@Z  c00028d0 f   bidi.obj
 0001:00002650       ?GetDeferredNeutrals@@YAHHH@Z c0002a50 f   bidi.obj
 0001:00002660       ?GetResolvedNeutrals@@YAHH@Z c0002a60 f   bidi.obj
 0001:00002680       ?resolveNeutrals@@YAXHPAHPBHH@Z c0002a80 f   bidi.obj
 0001:000027a0       ?resolveImplicit@@YAXPBHPAHH@Z c0002ba0 f   bidi.obj
 0001:000027e0       ?resolveLines@@YAHPA_WPA_NH@Z c0002be0 f   bidi.obj
 0001:00002810       ?resolveWhitespace@@YAXHPBHPAHH@Z c0002c10 f   bidi.obj
 0001:000028c0       ?reorderLevel@@YAHHPA_WPBHH_N@Z c0002cc0 f   bidi.obj
 0001:00002950       ?reorder@@YAHHPA_WPBHH@Z   c0002d50 f   bidi.obj
 0001:00002a30       ?mirror@@YAXPA_WPBHH@Z     c0002e30 f   bidi.obj
 0001:00002a90       ?clean@@YAHPA_WH@Z         c0002e90 f   bidi.obj
 0001:00002b10       ?BidiLines@@YAXHPA_WPAH1HHPA_N@Z c0002f10 f   bidi.obj
 0001:00002bb0       ?ShowInputTypes@@YAXPA_WH@Z c0002fb0 f   bidi.obj
 0001:00002c20       ?ShowTypes@@YAXPAHH@Z      c0003020 f   bidi.obj
 0001:00002c70       ?ShowLevels@@YAXPAHH@Z     c0003070 f   bidi.obj
 0001:00002c80       ?isRtl@@YA_NPB_W@Z         c0003080 f   bidi.obj
 0001:00002d50       ?BidiInterface@@YAPA_WPB_W@Z c0003150 f   bidi.obj
 0001:00002f00       ?makeNativeFromBigEndian@@YA_K_KI@Z c0003300 f   endian.obj
 0001:00002fb0       ?makeNativeFromLittleEndian@@YA_K_KI@Z c00033b0 f   endian.obj
 0001:00002fc0       ?makeBigEndianFromNative@@YA_K_KI@Z c00033c0 f   endian.obj
 0001:00002fe0       ?makeLittleEndianFromNative@@YA_K_KI@Z c00033e0 f   endian.obj
 0001:00002ff0       ?displayWelcome@@YAXXZ     c00033f0 f   entry.obj
 0001:00003030       @entry@4                   c0003430 f   entry.obj
 0001:00003290       ?destroy@CKernelGraphics@@UAGXXZ c0003690 f i KernelGraphics.obj
 0001:000032a0       ?getDisplayWidth@CKernelGraphics@@UAGGXZ c00036a0 f i KernelGraphics.obj
 0001:000032b0       ?getDisplayHeight@CKernelGraphics@@UAGGXZ c00036b0 f i KernelGraphics.obj
 0001:000032c0       ??0CKernelGraphics@@QAE@XZ c00036c0 f   KernelGraphics.obj
 0001:000032d0       ?initialise@CKernelGraphics@@UAG_NPAUtagModeInfoBlock@@@Z c00036d0 f   KernelGraphics.obj
 0001:00003350       ?drawPixel@CKernelGraphics@@UAGXIII@Z c0003750 f   KernelGraphics.obj
 0001:00003500       ?binary_search@@YAGQBGGGG@Z c0003900 f   KernelGraphics.obj
 0001:00003550       ?drawChar@CKernelGraphics@@UAGX_WIIII@Z c0003950 f   KernelGraphics.obj
 0001:00003600       ?drawString@CKernelGraphics@@UAGXPA_WIIII@Z c0003a00 f   KernelGraphics.obj
 0001:00003710       ?drawLine@CKernelGraphics@@UAGXIIIII@Z c0003b10 f   KernelGraphics.obj
 0001:00003940       ?drawRect@CKernelGraphics@@UAGXIIIII@Z c0003d40 f   KernelGraphics.obj
 0001:00003990       ??1CKernelGraphics@@QAE@XZ c0003d90 f i KernelGraphics.obj
 0001:000039a0       ?getGraphics@@YAPAVCKernelGraphics@@XZ c0003da0 f   KernelGraphics.obj
 0001:000039b0       ?setGraphics@@YAXPAVCKernelGraphics@@@Z c0003db0 f   KernelGraphics.obj
 0001:000039e0       ?getCurrentCpuNum@CMultiCPUIrq@@QAGIXZ c0003de0 f i kmain.obj
 0001:00003a00       ?testThread@@YGXXZ         c0003e00 f   kmain.obj
 0001:00003ac0       ?kmain@@YAXPAU_MULTIBOOT_INFO@@@Z c0003ec0 f   kmain.obj
 0001:00003e70       ?loadStrings@@YAXPAXI@Z    c0004270 f   langstrings.obj
 0001:00003f70       ?getString@@YAPA_WW4CHAKRNL_STRINGS@@@Z c0004370 f   langstrings.obj
 0001:00003f90       _liballoc_lock             c0004390 f   liballoc.obj
 0001:00003fc0       _liballoc_unlock           c00043c0 f   liballoc.obj
 0001:00003fd0       _liballoc_alloc            c00043d0 f   liballoc.obj
 0001:00004010       _liballoc_free             c0004410 f   liballoc.obj
 0001:00004350       _malloc                    c0004750 f   liballoc.obj
 0001:00004540       _free                      c0004940 f   liballoc.obj
 0001:00004720       _calloc                    c0004b20 f   liballoc.obj
 0001:00004760       _realloc                   c0004b60 f   liballoc.obj
 0001:00004810       ??1CMemory@@QAE@XZ         c0004c10 f i memory.obj
 0001:00004820       ?destroy@CMemory@@UAGXXZ   c0004c20 f   memory.obj
 0001:00004830       ?registerPMemMngr@CMemory@@UAG_NPAVCPMemMngr@@_N@Z c0004c30 f   memory.obj
 0001:00004880       ?getPMemMngr@CMemory@@UAGPAVCPMemMngr@@XZ c0004c80 f   memory.obj
 0001:00004890       ?registerVMemMngr@CMemory@@UAG_NPAVCVMemMngr@@_N@Z c0004c90 f   memory.obj
 0001:000048e0       ?getVMemMngr@CMemory@@UAGPAVCVMemMngr@@XZ c0004ce0 f   memory.obj
 0001:000048f0       ??0CMemory@@QAE@XZ         c0004cf0 f i memory.obj
 0001:00004900       _getMemoryManager@0        c0004d00 f   memory.obj
 0001:00004910       _setMemoryManager@4        c0004d10 f   memory.obj
 0001:00004920       ?unmap@CVMemMngr@@QAGXPAXI@Z c0004d20 f i moduleload.obj
 0001:00004d20       _module_loader_handler     c0005120 f   moduleload.obj
 0001:00004d70       ?loadMultibootModules@@YAXPAU_MULTIBOOT_INFO@@@Z c0005170 f   moduleload.obj
 0001:00004f50       ?getMemorySize@CMultibootPMemMngr@@UAGIXZ c0005350 f i multiboot.obj
 0001:00004f60       ?destroy@CMultibootPMemMngr@@UAGXXZ c0005360 f   multiboot.obj
 0001:00004f70       ?allocate@CMultibootPMemMngr@@UAGPAXIPAX@Z c0005370 f   multiboot.obj
 0001:00004f80       ?free@CMultibootPMemMngr@@UAGXPAXI@Z c0005380 f   multiboot.obj
 0001:00004f90       ?allocateSinglePage@CMultibootPMemMngr@@UAGPAXPAX@Z c0005390 f   multiboot.obj
 0001:00004fa0       ?freeSinglePage@CMultibootPMemMngr@@UAGXPAX@Z c00053a0 f   multiboot.obj
 0001:00004fb0       ?setUsed@CMultibootPMemMngr@@UAGXPAX_N@Z c00053b0 f   multiboot.obj
 0001:00004fc0       ?getUsed@CMultibootPMemMngr@@UAG_NPAX@Z c00053c0 f   multiboot.obj
 0001:00004fd0       ?mmapTransfer@CMultibootPMemMngr@@UAGXPAVCPMemMngr@@PAX@Z c00053d0 f   multiboot.obj
 0001:00005190       ?initialize@CMultibootPMemMngr@@UAG_NPAVCPMemMngr@@@Z c0005590 f   multiboot.obj
 0001:000051e0       ?TransferCallback@CMultibootPMemMngr@@UAGXPAU__PMMAP_TRANSFER_ENTRY@CPMemMngr@@PAX@Z c00055e0 f   multiboot.obj
 0001:000051f0       ??0CMultibootPMemMngr@@QAE@XZ c00055f0 f i multiboot.obj
 0001:00005200       ??1CMultibootPMemMngr@@QAE@XZ c0005600 f i multiboot.obj
 0001:00005210       ?GetPMemMapClass@@YAPAXPAU_MULTIBOOT_INFO@@@Z c0005610 f   multiboot.obj
 0001:00005270       ??0CPortableExecutable@@QAE@PAXPAD@Z c0005670 f   PortableExecutable.obj
 0001:000052c0       ??_ECPortableExecutable@@UAEPAXI@Z c00056c0 f i * CIL library *:* CIL module *
 0001:000052c0       ??_GCPortableExecutable@@UAEPAXI@Z c00056c0 f i PortableExecutable.obj
 0001:000052f0       ??1CPortableExecutable@@UAE@XZ c00056f0 f   PortableExecutable.obj
 0001:00005300       ?getBaseAddress@CPortableExecutable@@UAEIXZ c0005700 f   PortableExecutable.obj
 0001:00005330       ?CallEntry@CPortableExecutable@@UAEXXZ c0005730 f   PortableExecutable.obj
 0001:00005360       ?CallEntry32@CPortableExecutable@@MAEXXZ c0005760 f   PortableExecutable.obj
 0001:00005380       ?CallEntry64@CPortableExecutable@@MAEXXZ c0005780 f   PortableExecutable.obj
 0001:000053a0       ?GetProcAddress@CPortableExecutable@@UAEP6AXXZPAD@Z c00057a0 f   PortableExecutable.obj
 0001:000053e0       ?getMachineID@CPortableExecutable@@UAE?AW4MACHINE_ID@1@XZ c00057e0 f   PortableExecutable.obj
 0001:00005470       ?GetProcAddress32@CPortableExecutable@@MAEP6AXXZPAD@Z c0005870 f   PortableExecutable.obj
 0001:00005520       ?GetProcAddress64@CPortableExecutable@@MAEP6AXXZPAD@Z c0005920 f   PortableExecutable.obj
 0001:000055d0       ?linkPESymbols@CPortableExecutable@@UAE_NPAXPAD@Z c00059d0 f   PortableExecutable.obj
 0001:00005610       ?linkPESymbols32@CPortableExecutable@@MAE_NPAXPAD@Z c0005a10 f   PortableExecutable.obj
 0001:00005770       ?linkPESymbols64@CPortableExecutable@@MAE_NPAXPAD@Z c0005b70 f   PortableExecutable.obj
 0001:000058f0       ?loadIntoMemory@CPortableExecutable@@UAEPAV1@ABV__PAGING_ATTRIBUTES@CVMemMngr@@I@Z c0005cf0 f   PortableExecutable.obj
 0001:00005930       ?loadIntoMemory32@CPortableExecutable@@MAEPAV1@ABV__PAGING_ATTRIBUTES@CVMemMngr@@I@Z c0005d30 f   PortableExecutable.obj
 0001:000059c0       ?loadIntoMemory64@CPortableExecutable@@MAEPAV1@ABV__PAGING_ATTRIBUTES@CVMemMngr@@I@Z c0005dc0 f   PortableExecutable.obj
 0001:00005a50       ??0CSemaphore@@QAE@XZ      c0005e50 f   semaphore.obj
 0001:00005a60       ??1CSemaphore@@QAE@XZ      c0005e60 f   semaphore.obj
 0001:00005a70       ?destroy@CKernelTerminal@@UAGXXZ c0005e70 f i terminal.obj
 0001:00005a80       ?setForegroundColor@CKernelTerminal@@UAGXI@Z c0005e80 f i terminal.obj
 0001:00005a90       ?setBackgroundColor@CKernelTerminal@@UAGXI@Z c0005e90 f i terminal.obj
 0001:00005aa0       ?getForegroundColor@CKernelTerminal@@UAGIXZ c0005ea0 f i terminal.obj
 0001:00005ab0       ?getBackgroundColor@CKernelTerminal@@UAGIXZ c0005eb0 f i terminal.obj
 0001:00005ac0       ?kputhex@CKernelTerminal@@QAEXI@Z c0005ec0 f i terminal.obj
 0001:00005ae0       ?kputhex@CKernelTerminal@@QAEXPAX@Z c0005ee0 f i terminal.obj
 0001:00005b00       ??0CKernelTerminal@@QAE@XZ c0005f00 f   terminal.obj
 0001:00005b40       ?kputc@CKernelTerminal@@UAGX_W_N@Z c0005f40 f   terminal.obj
 0001:00005c10       ?kputs@CKernelTerminal@@UAGXPB_W@Z c0006010 f   terminal.obj
 0001:00005ce0       ?kputi@CKernelTerminal@@UAGXII@Z c00060e0 f   terminal.obj
 0001:00005d30       ?kcls@CKernelTerminal@@UAGXXZ c0006130 f   terminal.obj
 0001:00005d80       ?stackTrace@@YAXPAVCKernelTerminal@@PAI@Z c0006180 f   terminal.obj
 0001:00005df0       ?kpanic@CKernelTerminal@@UAGXPB_WIIIIPAIPA_WI@Z c00061f0 f   terminal.obj
 0001:00005f60       ??1CKernelTerminal@@QAE@XZ c0006360 f i terminal.obj
 0001:00005f70       ?getTerminal@@YAPAVCKernelTerminal@@XZ c0006370 f   terminal.obj
 0001:00005f80       ?setTermial@@YAXPAVCKernelTerminal@@@Z c0006380 f   terminal.obj
 0001:00005f90       ?CalcTableChecksum@@YAIPAII@Z c0006390 f   TrueType.obj
 0001:00005ff0       ?destroy@CTrueType@@UAGXXZ c00063f0 f   TrueType.obj
 0001:00006000       ?initialise@CTrueType@@UAGXPAXI@Z c0006400 f   TrueType.obj
 0001:00006030       ?getCharBitmap@CTrueType@@UAGPAU_TrueTypeChar@@_WG@Z c0006430 f   TrueType.obj
 0001:00006040       ?getGlyphIndex@CTrueType@@MAGG_W@Z c0006440 f   TrueType.obj
 0001:00006180       ??$makeNativeFromBigEndian@I@@YA_KI@Z c0006580 f i TrueType.obj
 0001:000061a0       ??$makeBigEndianFromNative@I@@YA_KI@Z c00065a0 f i TrueType.obj
 0001:000061c0       ??$makeNativeFromBigEndian@G@@YA_KG@Z c00065c0 f i TrueType.obj
 0001:000061e0       ??$makeBigEndianFromNative@W4platformIDs@@@@YA_KW4platformIDs@@@Z c00065e0 f i TrueType.obj
 0001:00006200       ??$makeBigEndianFromNative@W4UnicodeSubIDs@@@@YA_KW4UnicodeSubIDs@@@Z c0006600 f i TrueType.obj
 0001:00006220       ??$makeBigEndianFromNative@W4MicrosoftSubIDs@@@@YA_KW4MicrosoftSubIDs@@@Z c0006620 f i TrueType.obj
 0001:00006240       _getFont                   c0006640 f   vgafont.obj
 0001:00006250       ??2@YAPAXI@Z               c0006650 f   msvc.obj
 0001:00006260       ??3@YAXPAX@Z               c0006660 f   msvc.obj
 0001:00006280       ??_U@YAPAXI@Z              c0006680 f   msvc.obj
 0001:00006290       ??_V@YAXPAX@Z              c0006690 f   msvc.obj
 0001:000062b0       ?CallConstructors@@YA_NXZ  c00066b0 f   msvc.obj
 0001:00006380       __purecall                 c0006780 f   msvc.obj
 0001:00006390       _atexit                    c0006790 f   msvc.obj
 0001:000063a0       _memcpy                    c00067a0 f   msvc.obj
 0001:000063c6       ?wstrlen@@YAIPB_W@Z        c00067c6 f   kcstdlib:kcstdlib.dll
 0001:000063cc       ?fabs@@YANN@Z              c00067cc f   kcstdlib:kcstdlib.dll
 0001:000063d2       ?enableFancyStuff@@YAXXZ   c00067d2 f   kcstdlib:kcstdlib.dll
 0001:000063d8       ?getKout@@YGAAVostream@@XZ c00067d8 f   kcstdlib:kcstdlib.dll
 0001:000063de       ??6ostream@@QAEAAV0@PBD@Z  c00067de f   kcstdlib:kcstdlib.dll
 0001:000063e4       ??6ostream@@QAEAAV0@PB_W@Z c00067e4 f   kcstdlib:kcstdlib.dll
 0001:000063ea       ??6ostream@@QAEAAV0@I@Z    c00067ea f   kcstdlib:kcstdlib.dll
 0001:000063f0       ??6ostream@@QAEAAV0@PBX@Z  c00067f0 f   kcstdlib:kcstdlib.dll
 0001:000063f6       ?debug_serial@@YAXPBD@Z    c00067f6 f   kcstdlib:kcstdlib.dll
 0001:000063fc       _getHal@0                  c00067fc f   hal:Hal.dll
 0001:00006444       ??_GCSpinlock@@QAEPAXI@Z   c0006844 f i AcpiSubsystem:ChaiOSL.obj
 0001:0000646a       _AcpiEarlyTables           c000686a f   AcpiSubsystem:ChaiOSL.obj
 0001:0000647c       _AcpiOsAcquireLock         c000687c f   AcpiSubsystem:ChaiOSL.obj
 0001:0000647f       _AcpiOsAcquireObject       c000687f f   AcpiSubsystem:ChaiOSL.obj
 0001:00006484       _AcpiOsAllocate            c0006884 f   AcpiSubsystem:ChaiOSL.obj
 0001:00006489       _AcpiOsCloseDirectory      c0006889 f   AcpiSubsystem:ChaiOSL.obj
 0001:0000648a       _AcpiOsCloseFile           c000688a f   AcpiSubsystem:ChaiOSL.obj
 0001:0000648b       _AcpiOsCreateCache         c000688b f   AcpiSubsystem:ChaiOSL.obj
 0001:0000649b       _AcpiOsCreateLock          c000689b f   AcpiSubsystem:ChaiOSL.obj
 0001:0000649e       _AcpiOsCreateSemaphore     c000689e f   AcpiSubsystem:ChaiOSL.obj
 0001:000064bd       _AcpiOsDeleteCache         c00068bd f   AcpiSubsystem:ChaiOSL.obj
 0001:000064c0       _AcpiOsDeleteLock          c00068c0 f   AcpiSubsystem:ChaiOSL.obj
 0001:000064c1       _AcpiOsDeleteSemaphore     c00068c1 f   AcpiSubsystem:ChaiOSL.obj
 0001:000064ce       _AcpiOsExecute             c00068ce f   AcpiSubsystem:ChaiOSL.obj
 0001:000064da       _AcpiOsFree                c00068da f   AcpiSubsystem:ChaiOSL.obj
 0001:000064df       _AcpiOsGetFileOffset       c00068df f   AcpiSubsystem:ChaiOSL.obj
 0001:000064e2       _AcpiOsGetLine             c00068e2 f   AcpiSubsystem:ChaiOSL.obj
 0001:000064e5       _AcpiOsGetNextFilename     c00068e5 f   AcpiSubsystem:ChaiOSL.obj
 0001:000064e8       _AcpiOsGetPhysicalAddress  c00068e8 f   AcpiSubsystem:ChaiOSL.obj
 0001:0000650a       _AcpiOsGetRootPointer      c000690a f   AcpiSubsystem:ChaiOSL.obj
 0001:00006523       _AcpiOsGetThreadId         c0006923 f   AcpiSubsystem:ChaiOSL.obj
 0001:00006528       _AcpiOsGetTimer            c0006928 f   AcpiSubsystem:ChaiOSL.obj
 0001:0000652b       _AcpiOsInitialize          c000692b f   AcpiSubsystem:ChaiOSL.obj
 0001:0000652e       _AcpiOsInstallInterruptHandler c000692e f   AcpiSubsystem:ChaiOSL.obj
 0001:00006581       _AcpiOsMapMemory           c0006981 f   AcpiSubsystem:ChaiOSL.obj
 0001:000065b4       _AcpiOsOpenDirectory       c00069b4 f   AcpiSubsystem:ChaiOSL.obj
 0001:000065b7       _AcpiOsOpenFile            c00069b7 f   AcpiSubsystem:ChaiOSL.obj
 0001:000065ba       _AcpiOsPhysicalTableOverride c00069ba f   AcpiSubsystem:ChaiOSL.obj
 0001:000065ce       _AcpiOsPredefinedOverride  c00069ce f   AcpiSubsystem:ChaiOSL.obj
 0001:000065d8       _AcpiOsPrintf              c00069d8 f   AcpiSubsystem:ChaiOSL.obj
 0001:000065d9       _AcpiOsPurgeCache          c00069d9 f   AcpiSubsystem:ChaiOSL.obj
 0001:000065dc       _AcpiOsReadMemory          c00069dc f   AcpiSubsystem:ChaiOSL.obj
 0001:0000663d       _AcpiOsReadPciConfiguration c0006a3d f   AcpiSubsystem:ChaiOSL.obj
 0001:000066d2       _AcpiOsReadPort            c0006ad2 f   AcpiSubsystem:ChaiOSL.obj
 0001:00006716       _AcpiOsReadable            c0006b16 f   AcpiSubsystem:ChaiOSL.obj
 0001:00006719       _AcpiOsRedirectOutput      c0006b19 f   AcpiSubsystem:ChaiOSL.obj
 0001:0000671a       _AcpiOsReleaseLock         c0006b1a f   AcpiSubsystem:ChaiOSL.obj
 0001:0000671b       _AcpiOsReleaseObject       c0006b1b f   AcpiSubsystem:ChaiOSL.obj
 0001:00006728       _AcpiOsRemoveInterruptHandler c0006b28 f   AcpiSubsystem:ChaiOSL.obj
 0001:00006758       _AcpiOsSetFileOffset       c0006b58 f   AcpiSubsystem:ChaiOSL.obj
 0001:0000675c       _AcpiOsSignal              c0006b5c f   AcpiSubsystem:ChaiOSL.obj
 0001:00006762       _AcpiOsSignalSemaphore     c0006b62 f   AcpiSubsystem:ChaiOSL.obj
 0001:00006765       _AcpiOsSleep               c0006b65 f   AcpiSubsystem:ChaiOSL.obj
 0001:00006782       _AcpiOsStall               c0006b82 f   AcpiSubsystem:ChaiOSL.obj
 0001:00006783       _AcpiOsTableOverride       c0006b83 f   AcpiSubsystem:ChaiOSL.obj
 0001:0000678d       _AcpiOsTerminate           c0006b8d f   AcpiSubsystem:ChaiOSL.obj
 0001:00006790       _AcpiOsUnmapMemory         c0006b90 f   AcpiSubsystem:ChaiOSL.obj
 0001:000067ac       _AcpiOsVprintf             c0006bac f   AcpiSubsystem:ChaiOSL.obj
 0001:000067ad       _AcpiOsWaitEventsComplete  c0006bad f   AcpiSubsystem:ChaiOSL.obj
 0001:000067ae       _AcpiOsWaitSemaphore       c0006bae f   AcpiSubsystem:ChaiOSL.obj
 0001:000067b1       _AcpiOsWritable            c0006bb1 f   AcpiSubsystem:ChaiOSL.obj
 0001:000067b6       _AcpiOsWriteFile           c0006bb6 f   AcpiSubsystem:ChaiOSL.obj
 0001:000067ba       _AcpiOsWriteMemory         c0006bba f   AcpiSubsystem:ChaiOSL.obj
 0001:0000681a       _AcpiOsWritePciConfiguration c0006c1a f   AcpiSubsystem:ChaiOSL.obj
 0001:000068bd       _AcpiOsWritePort           c0006cbd f   AcpiSubsystem:ChaiOSL.obj
 0001:000068fb       _GetAcpiTable              c0006cfb f   AcpiSubsystem:ChaiOSL.obj
 0001:00006900       _MpSaveGpioInfo            c0006d00 f   AcpiSubsystem:ChaiOSL.obj
 0001:00006901       _MpSaveSerialInfo          c0006d01 f   AcpiSubsystem:ChaiOSL.obj
 0001:00006902       _StartAcpi                 c0006d02 f   AcpiSubsystem:ChaiOSL.obj
 0001:00006927       _AcpiAllocateRootTable     c0006d27 f   AcpiSubsystem:tbxface.obj
 0001:0000693c       _AcpiGetTable              c0006d3c f   AcpiSubsystem:tbxface.obj
 0001:000069aa       _AcpiGetTableByIndex       c0006daa f   AcpiSubsystem:tbxface.obj
 0001:00006a95       _AcpiGetTableHeader        c0006e95 f   AcpiSubsystem:tbxface.obj
 0001:00006b47       _AcpiInitializeTables      c0006f47 f   AcpiSubsystem:tbxface.obj
 0001:00006c17       _AcpiInstallTableHandler   c0007017 f   AcpiSubsystem:tbxface.obj
 0001:00006cb7       _AcpiReallocateRootTable   c00070b7 f   AcpiSubsystem:tbxface.obj
 0001:00006d1c       _AcpiRemoveTableHandler    c000711c f   AcpiSubsystem:tbxface.obj
 0001:00006d98       _AcpiEnableSubsystem       c0007198 f   AcpiSubsystem:utxfinit.obj
 0001:00006f4d       _AcpiInitializeObjects     c000734d f   AcpiSubsystem:utxfinit.obj
 0001:00007077       _AcpiInitializeSubsystem   c0007477 f   AcpiSubsystem:utxfinit.obj
 0001:000071bc       _AcpiFindRootPointer       c00075bc f   AcpiSubsystem:tbxfroot.obj
 0001:00007360       _AcpiTbGetRsdpLength       c0007760 f   AcpiSubsystem:tbxfroot.obj
 0001:0000738d       _AcpiTbScanMemoryForRsdp   c000778d f   AcpiSubsystem:tbxfroot.obj
 0001:00007470       _AcpiTbValidateRsdp        c0007870 f   AcpiSubsystem:tbxfroot.obj
 0001:000074bd       _AcpiDebugPrint            c00078bd f   AcpiSubsystem:utdebug.obj
 0001:00007558       _AcpiDebugPrintRaw         c0007958 f   AcpiSubsystem:utdebug.obj
 0001:0000757f       _AcpiUtExit                c000797f f   AcpiSubsystem:utdebug.obj
 0001:000075c9       _AcpiUtInitStackPtrTrace   c00079c9 f   AcpiSubsystem:utdebug.obj
 0001:000075d4       _AcpiUtPtrExit             c00079d4 f   AcpiSubsystem:utdebug.obj
 0001:00007621       _AcpiUtStatusExit          c0007a21 f   AcpiSubsystem:utdebug.obj
 0001:00007693       _AcpiUtTrace               c0007a93 f   AcpiSubsystem:utdebug.obj
 0001:000076d9       _AcpiUtTracePtr            c0007ad9 f   AcpiSubsystem:utdebug.obj
 0001:00007722       _AcpiUtTraceStr            c0007b22 f   AcpiSubsystem:utdebug.obj
 0001:0000776b       _AcpiUtTraceU32            c0007b6b f   AcpiSubsystem:utdebug.obj
 0001:000077b4       _AcpiUtTrackStackPtr       c0007bb4 f   AcpiSubsystem:utdebug.obj
 0001:00007809       _AcpiUtValueExit           c0007c09 f   AcpiSubsystem:utdebug.obj
 0001:00007859       _AcpiUtAcquireMutex        c0007c59 f   AcpiSubsystem:utmutex.obj
 0001:00007a17       _AcpiUtMutexInitialize     c0007e17 f   AcpiSubsystem:utmutex.obj
 0001:00007b1f       _AcpiUtMutexTerminate      c0007f1f f   AcpiSubsystem:utmutex.obj
 0001:00007b9a       _AcpiUtReleaseMutex        c0007f9a f   AcpiSubsystem:utmutex.obj
 0001:00007c47       _memcmp                    c0008047 f   AcpiSubsystem:utclib.obj
 0001:00007c77       _memset                    c0008077 f   AcpiSubsystem:utclib.obj
 0001:00007ca5       _strcat                    c00080a5 f   AcpiSubsystem:utclib.obj
 0001:00007cc6       _strchr                    c00080c6 f   AcpiSubsystem:utclib.obj
 0001:00007cdc       _strcmp                    c00080dc f   AcpiSubsystem:utclib.obj
 0001:00007cfe       _strcpy                    c00080fe f   AcpiSubsystem:utclib.obj
 0001:00007d20       _strlen                    c0008120 f   AcpiSubsystem:utclib.obj
 0001:00007d32       _strncat                   c0008132 f   AcpiSubsystem:utclib.obj
 0001:00007d64       _strncmp                   c0008164 f   AcpiSubsystem:utclib.obj
 0001:00007d99       _strncpy                   c0008199 f   AcpiSubsystem:utclib.obj
 0001:00007dcd       _strstr                    c00081cd f   AcpiSubsystem:utclib.obj
 0001:00007e12       _strtoul                   c0008212 f   AcpiSubsystem:utclib.obj
 0001:00007f60       _tolower                   c0008360 f   AcpiSubsystem:utclib.obj
 0001:00007f75       _toupper                   c0008375 f   AcpiSubsystem:utclib.obj
 0001:00007f8a       _AcpiTbAcquireTable        c000838a f   AcpiSubsystem:tbdata.obj
 0001:00007fdc       _AcpiTbAcquireTempTable    c00083dc f   AcpiSubsystem:tbdata.obj
 0001:0000804b       _AcpiTbAllocateOwnerId     c000844b f   AcpiSubsystem:tbdata.obj
 0001:000080b6       _AcpiTbDeleteNamespaceByOwner c00084b6 f   AcpiSubsystem:tbdata.obj
 0001:00008194       _AcpiTbGetNextTableDescriptor c0008594 f   AcpiSubsystem:tbdata.obj
 0001:000081d7       _AcpiTbGetOwnerId          c00085d7 f   AcpiSubsystem:tbdata.obj
 0001:00008240       _AcpiTbInitTableDescriptor c0008640 f   AcpiSubsystem:tbdata.obj
 0001:00008276       _AcpiTbInvalidateTable     c0008676 f   AcpiSubsystem:tbdata.obj
 0001:000082da       _AcpiTbIsTableLoaded       c00086da f   AcpiSubsystem:tbdata.obj
 0001:0000830c       _AcpiTbReleaseOwnerId      c000870c f   AcpiSubsystem:tbdata.obj
 0001:00008377       _AcpiTbReleaseTable        c0008777 f   AcpiSubsystem:tbdata.obj
 0001:00008394       _AcpiTbReleaseTempTable    c0008794 f   AcpiSubsystem:tbdata.obj
 0001:00008399       _AcpiTbResizeRootTableList c0008799 f   AcpiSubsystem:tbdata.obj
 0001:00008498       _AcpiTbSetTableLoadedFlag  c0008898 f   AcpiSubsystem:tbdata.obj
 0001:000084d0       _AcpiTbTerminate           c00088d0 f   AcpiSubsystem:tbdata.obj
 0001:00008590       _AcpiTbValidateTable       c0008990 f   AcpiSubsystem:tbdata.obj
 0001:000085f1       _AcpiTbValidateTempTable   c00089f1 f   AcpiSubsystem:tbdata.obj
 0001:00008613       _AcpiTbVerifyTempTable     c0008a13 f   AcpiSubsystem:tbdata.obj
 0001:00008716       _AcpiTbCheckDsdtHeader     c0008b16 f   AcpiSubsystem:tbutils.obj
 0001:0000877b       _AcpiTbCopyDsdt            c0008b7b f   AcpiSubsystem:tbutils.obj
 0001:00008834       _AcpiTbInitializeFacs      c0008c34 f   AcpiSubsystem:tbutils.obj
 0001:0000888f       _AcpiTbParseRootTable      c0008c8f f   AcpiSubsystem:tbutils.obj
 0001:00008ab5       _AcpiTbTablesLoaded        c0008eb5 f   AcpiSubsystem:tbutils.obj
 0001:00008ac1       _AcpiClearEvent            c0008ec1 f   AcpiSubsystem:evxfevnt.obj
 0001:00008b2d       _AcpiDisable               c0008f2d f   AcpiSubsystem:evxfevnt.obj
 0001:00008c10       _AcpiDisableEvent          c0009010 f   AcpiSubsystem:evxfevnt.obj
 0001:00008d21       _AcpiEnable                c0009121 f   AcpiSubsystem:evxfevnt.obj
 0001:00008e26       _AcpiEnableEvent           c0009226 f   AcpiSubsystem:evxfevnt.obj
 0001:00008f37       _AcpiGetEventStatus        c0009337 f   AcpiSubsystem:evxfevnt.obj
 0001:0000904e       _AcpiCheckAddressRange     c000944e f   AcpiSubsystem:utxface.obj
 0001:00009087       _AcpiDecodePldBuffer       c0009487 f   AcpiSubsystem:utxface.obj
 0001:000091c7       _AcpiGetStatistics         c00095c7 f   AcpiSubsystem:utxface.obj
 0001:00009248       _AcpiGetSystemInfo         c0009648 f   AcpiSubsystem:utxface.obj
 0001:00009307       _AcpiInstallInitializationHandler c0009707 f   AcpiSubsystem:utxface.obj
 0001:0000932a       _AcpiInstallInterface      c000972a f   AcpiSubsystem:utxface.obj
 0001:0000939c       _AcpiInstallInterfaceHandler c000979c f   AcpiSubsystem:utxface.obj
 0001:000093e5       _AcpiPurgeCachedObjects    c00097e5 f   AcpiSubsystem:utxface.obj
 0001:00009443       _AcpiRemoveInterface       c0009843 f   AcpiSubsystem:utxface.obj
 0001:00009493       _AcpiSubsystemStatus       c0009893 f   AcpiSubsystem:utxface.obj
 0001:000094a3       _AcpiTerminate             c00098a3 f   AcpiSubsystem:utxface.obj
 0001:0000955e       _AcpiUpdateInterfaces      c000995e f   AcpiSubsystem:utxface.obj
 0001:00009597       _AcpiBiosError             c0009997 f   AcpiSubsystem:utxferror.obj
 0001:000095ca       _AcpiBiosWarning           c00099ca f   AcpiSubsystem:utxferror.obj
 0001:000095fd       _AcpiError                 c00099fd f   AcpiSubsystem:utxferror.obj
 0001:00009630       _AcpiException             c0009a30 f   AcpiSubsystem:utxferror.obj
 0001:00009682       _AcpiInfo                  c0009a82 f   AcpiSubsystem:utxferror.obj
 0001:000096a8       _AcpiWarning               c0009aa8 f   AcpiSubsystem:utxferror.obj
 0001:000096db       _AcpiHwGetMode             c0009adb f   AcpiSubsystem:hwacpi.obj
 0001:00009782       _AcpiHwSetMode             c0009b82 f   AcpiSubsystem:hwacpi.obj
 0001:000099e7       _AcpiUtInitGlobals         c0009de7 f   AcpiSubsystem:utinit.obj
 0001:00009bca       _AcpiUtSubsystemShutdown   c0009fca f   AcpiSubsystem:utinit.obj
 0001:00009c4e       _AcpiUtGetInterface        c000a04e f   AcpiSubsystem:utosi.obj
 0001:00009c77       _AcpiUtInitializeInterfaces c000a077 f   AcpiSubsystem:utosi.obj
 0001:00009cc5       _AcpiUtInstallInterface    c000a0c5 f   AcpiSubsystem:utosi.obj
 0001:00009d1c       _AcpiUtInterfaceTerminate  c000a11c f   AcpiSubsystem:utosi.obj
 0001:00009d82       _AcpiUtOsiImplementation   c000a182 f   AcpiSubsystem:utosi.obj
 0001:00009f15       _AcpiUtRemoveInterface     c000a315 f   AcpiSubsystem:utosi.obj
 0001:00009f77       _AcpiUtUpdateInterfaces    c000a377 f   AcpiSubsystem:utosi.obj
 0001:00009fb8       _AcpiEvFixedEventDetect    c000a3b8 f   AcpiSubsystem:evevent.obj
 0001:0000a116       _AcpiEvInitializeEvents    c000a516 f   AcpiSubsystem:evevent.obj
 0001:0000a1c7       _AcpiEvInstallXruptHandlers c000a5c7 f   AcpiSubsystem:evevent.obj
 0001:0000a27f       _AcpiEvHasDefaultHandler   c000a67f f   AcpiSubsystem:evhandler.obj
 0001:0000a37f       _AcpiEvInstallRegionHandlers c000a77f f   AcpiSubsystem:evhandler.obj
 0001:0000a41a       _AcpiEvInstallSpaceHandler c000a81a f   AcpiSubsystem:evhandler.obj
 0001:0000a68e       _AcpiEvAddressSpaceDispatch c000aa8e f   AcpiSubsystem:evregion.obj
 0001:0000a939       _AcpiEvAttachRegion        c000ad39 f   AcpiSubsystem:evregion.obj
 0001:0000a9fc       _AcpiEvDetachRegion        c000adfc f   AcpiSubsystem:evregion.obj
 0001:0000ac38       _AcpiEvExecuteRegMethod    c000b038 f   AcpiSubsystem:evregion.obj
 0001:0000ad76       _AcpiEvExecuteRegMethods   c000b176 f   AcpiSubsystem:evregion.obj
 0001:0000addb       _AcpiEvInitializeOpRegions c000b1db f   AcpiSubsystem:evregion.obj
 0001:0000b272       _AcpiNsInitializeDevices   c000b672 f   AcpiSubsystem:nsinit.obj
 0001:0000b403       _AcpiNsInitializeObjects   c000b803 f   AcpiSubsystem:nsinit.obj
 0001:0000b557       _AcpiNsLookup              c000b957 f   AcpiSubsystem:nsaccess.obj
 0001:0000bb85       _AcpiNsRootInitialize      c000bf85 f   AcpiSubsystem:nsaccess.obj
 0001:0000be23       _AcpiNsEvaluate            c000c223 f   AcpiSubsystem:nseval.obj
 0001:0000c2c6       _AcpiNsExecModuleCodeList  c000c6c6 f   AcpiSubsystem:nseval.obj
 0001:0000c37c       _AcpiDbInitialize          c000c77c f   AcpiSubsystem:dbxface.obj
 0001:0000c50c       _AcpiDbSingleStep          c000c90c f   AcpiSubsystem:dbxface.obj
 0001:0000c7cb       _AcpiDbTerminate           c000cbcb f   AcpiSubsystem:dbxface.obj
 0001:0000c7ea       _AcpiTbChecksum            c000cbea f   AcpiSubsystem:tbprint.obj
 0001:0000c87d       _AcpiTbPrintTableHeader    c000cc7d f   AcpiSubsystem:tbprint.obj
 0001:0000c967       _AcpiTbVerifyChecksum      c000cd67 f   AcpiSubsystem:tbprint.obj
 0001:0000c9b6       _AcpiFormatException       c000cdb6 f   AcpiSubsystem:utexcep.obj
 0001:0000c9ed       _AcpiUtValidateException   c000cded f   AcpiSubsystem:utexcep.obj
 0001:0000ca75       _AcpiUtGetDescriptorName   c000ce75 f   AcpiSubsystem:utdecode.obj
 0001:0000ca9b       _AcpiUtGetEventName        c000ce9b f   AcpiSubsystem:utdecode.obj
 0001:0000cab2       _AcpiUtGetMutexName        c000ceb2 f   AcpiSubsystem:utdecode.obj
 0001:0000cac9       _AcpiUtGetNodeName         c000cec9 f   AcpiSubsystem:utdecode.obj
 0001:0000cb08       _AcpiUtGetNotifyName       c000cf08 f   AcpiSubsystem:utdecode.obj
 0001:0000cb74       _AcpiUtGetObjectTypeName   c000cf74 f   AcpiSubsystem:utdecode.obj
 0001:0000cb8e       _AcpiUtGetReferenceName    c000cf8e f   AcpiSubsystem:utdecode.obj
 0001:0000cbce       _AcpiUtGetRegionName       c000cfce f   AcpiSubsystem:utdecode.obj
 0001:0000cc05       _AcpiUtGetTypeName         c000d005 f   AcpiSubsystem:utdecode.obj
 0001:0000cc1c       _AcpiUtValidObjectType     c000d01c f   AcpiSubsystem:utdecode.obj
 0001:0000cc28       _AcpiUtAcquireReadLock     c000d028 f   AcpiSubsystem:utlock.obj
 0001:0000cc72       _AcpiUtAcquireWriteLock    c000d072 f   AcpiSubsystem:utlock.obj
 0001:0000cc88       _AcpiUtCreateRwLock        c000d088 f   AcpiSubsystem:utlock.obj
 0001:0000ccb4       _AcpiUtDeleteRwLock        c000d0b4 f   AcpiSubsystem:utlock.obj
 0001:0000ccd6       _AcpiUtReleaseReadLock     c000d0d6 f   AcpiSubsystem:utlock.obj
 0001:0000cd11       _AcpiUtReleaseWriteLock    c000d111 f   AcpiSubsystem:utlock.obj
 0001:0000cd21       _AcpiOsAllocateZeroed      c000d121 f   AcpiSubsystem:utalloc.obj
 0001:0000cd4a       _AcpiUtCreateCaches        c000d14a f   AcpiSubsystem:utalloc.obj
 0001:0000cdc9       _AcpiUtDeleteCaches        c000d1c9 f   AcpiSubsystem:utalloc.obj
 0001:0000ce28       _AcpiUtInitializeBuffer    c000d228 f   AcpiSubsystem:utalloc.obj
 0001:0000ce83       _AcpiUtValidateBuffer      c000d283 f   AcpiSubsystem:utalloc.obj
 0001:0000ceb1       _AcpiUtAllocateOwnerId     c000d2b1 f   AcpiSubsystem:utownerid.obj
 0001:0000d01b       _AcpiUtReleaseOwnerId      c000d41b f   AcpiSubsystem:utownerid.obj
 0001:0000d0f1       _AcpiUtPrintString         c000d4f1 f   AcpiSubsystem:utstring.obj
 0001:0000d1eb       _AcpiUtRepairName          c000d5eb f   AcpiSubsystem:utstring.obj
 0001:0000d277       _AcpiUtSafeStrcat          c000d677 f   AcpiSubsystem:utstring.obj
 0001:0000d2ac       _AcpiUtSafeStrcpy          c000d6ac f   AcpiSubsystem:utstring.obj
 0001:0000d2d1       _AcpiUtSafeStrncat         c000d6d1 f   AcpiSubsystem:utstring.obj
 0001:0000d31d       _AcpiUtStrtoul64           c000d71d f   AcpiSubsystem:utstring.obj
 0001:0000d5bc       _AcpiUtStrupr              c000d9bc f   AcpiSubsystem:utstring.obj
 0001:0000d5e0       _AcpiUtValidAcpiChar       c000d9e0 f   AcpiSubsystem:utstring.obj
 0001:0000d609       _AcpiUtValidAcpiName       c000da09 f   AcpiSubsystem:utstring.obj
 0001:0000d636       _AcpiNsCreateNode          c000da36 f   AcpiSubsystem:nsalloc.obj
 0001:0000d69e       _AcpiNsDeleteChildren      c000da9e f   AcpiSubsystem:nsalloc.obj
 0001:0000d720       _AcpiNsDeleteNamespaceByOwner c000db20 f   AcpiSubsystem:nsalloc.obj
 0001:0000d80f       _AcpiNsDeleteNamespaceSubtree c000dc0f f   AcpiSubsystem:nsalloc.obj
 0001:0000d8ca       _AcpiNsDeleteNode          c000dcca f   AcpiSubsystem:nsalloc.obj
 0001:0000d958       _AcpiNsInstallNode         c000dd58 f   AcpiSubsystem:nsalloc.obj
 0001:0000da47       _AcpiNsRemoveNode          c000de47 f   AcpiSubsystem:nsalloc.obj
 0001:0000db15       _AcpiTbInstallFixedTable   c000df15 f   AcpiSubsystem:tbinstal.obj
 0001:0000dbef       _AcpiTbInstallStandardTable c000dfef f   AcpiSubsystem:tbinstal.obj
 0001:0000ddcb       _AcpiTbInstallTableWithOverride c000e1cb f   AcpiSubsystem:tbinstal.obj
 0001:0000de2c       _AcpiTbOverrideTable       c000e22c f   AcpiSubsystem:tbinstal.obj
 0001:0000df1d       _AcpiTbUninstallTable      c000e31d f   AcpiSubsystem:tbinstal.obj
 0001:0000e178       _AcpiTbCreateLocalFadt     c000e578 f   AcpiSubsystem:tbfadt.obj
 0001:0000e251       _AcpiTbParseFadt           c000e651 f   AcpiSubsystem:tbfadt.obj
 0001:0000e42a       _AcpiGetSleepTypeData      c000e82a f   AcpiSubsystem:hwxface.obj
 0001:0000e5d0       _AcpiRead                  c000e9d0 f   AcpiSubsystem:hwxface.obj
 0001:0000e6e9       _AcpiReadBitRegister       c000eae9 f   AcpiSubsystem:hwxface.obj
 0001:0000e7d8       _AcpiReset                 c000ebd8 f   AcpiSubsystem:hwxface.obj
 0001:0000e872       _AcpiWrite                 c000ec72 f   AcpiSubsystem:hwxface.obj
 0001:0000e963       _AcpiWriteBitRegister      c000ed63 f   AcpiSubsystem:hwxface.obj
 0001:0000eaa0       _AcpiUtAddAddressRange     c000eea0 f   AcpiSubsystem:utaddress.obj
 0001:0000ec01       _AcpiUtCheckAddressRange   c000f001 f   AcpiSubsystem:utaddress.obj
 0001:0000ed35       _AcpiUtDeleteAddressLists  c000f135 f   AcpiSubsystem:utaddress.obj
 0001:0000ed5d       _AcpiUtRemoveAddressRange  c000f15d f   AcpiSubsystem:utaddress.obj
 0001:0000ee59       _AcpiHwReadPort            c000f259 f   AcpiSubsystem:hwvalid.obj
 0001:0000f103       _AcpiHwWritePort           c000f503 f   AcpiSubsystem:hwvalid.obj
 0001:0000f195       _AcpiNsBuildInternalName   c000f595 f   AcpiSubsystem:nsutils.obj
 0001:0000f32f       _AcpiNsExternalizeName     c000f72f f   AcpiSubsystem:nsutils.obj
 0001:0000f4f9       _AcpiNsGetInternalNameLength c000f8f9 f   AcpiSubsystem:nsutils.obj
 0001:0000f567       _AcpiNsGetNode             c000f967 f   AcpiSubsystem:nsutils.obj
 0001:0000f6b6       _AcpiNsGetType             c000fab6 f   AcpiSubsystem:nsutils.obj
 0001:0000f727       _AcpiNsInternalizeName     c000fb27 f   AcpiSubsystem:nsutils.obj
 0001:0000f821       _AcpiNsLocal               c000fc21 f   AcpiSubsystem:nsutils.obj
 0001:0000f89b       _AcpiNsOpensScope          c000fc9b f   AcpiSubsystem:nsutils.obj
 0001:0000f8cf       _AcpiNsPrintNodePathname   c000fccf f   AcpiSubsystem:nsutils.obj
 0001:0000f933       _AcpiNsTerminate           c000fd33 f   AcpiSubsystem:nsutils.obj
 0001:0000f9c3       _AcpiNsValidateHandle      c000fdc3 f   AcpiSubsystem:nsutils.obj
 0001:0000f9e5       _AcpiEvIsNotifyObject      c000fde5 f   AcpiSubsystem:evmisc.obj
 0001:0000fa4e       _AcpiEvQueueNotifyRequest  c000fe4e f   AcpiSubsystem:evmisc.obj
 0001:0000fb91       _AcpiEvTerminate           c000ff91 f   AcpiSubsystem:evmisc.obj
 0001:0000fc76       _AcpiUtAddReference        c0010076 f   AcpiSubsystem:utdelete.obj
 0001:0001012a       _AcpiUtDeleteInternalObjectList c001052a f   AcpiSubsystem:utdelete.obj
 0001:00010155       _AcpiUtRemoveReference     c0010555 f   AcpiSubsystem:utdelete.obj
 0001:000101b6       _AcpiUtUpdateObjectReference c00105b6 f   AcpiSubsystem:utdelete.obj
 0001:00010507       _AcpiUtAllocateObjectDescDbg c0010907 f   AcpiSubsystem:utobject.obj
 0001:000105aa       _AcpiUtCreateBufferObject  c00109aa f   AcpiSubsystem:utobject.obj
 0001:00010665       _AcpiUtCreateIntegerObject c0010a65 f   AcpiSubsystem:utobject.obj
 0001:000106d4       _AcpiUtCreateInternalObjectDbg c0010ad4 f   AcpiSubsystem:utobject.obj
 0001:000107a1       _AcpiUtCreatePackageObject c0010ba1 f   AcpiSubsystem:utobject.obj
 0001:00010844       _AcpiUtCreateStringObject  c0010c44 f   AcpiSubsystem:utobject.obj
 0001:000108f5       _AcpiUtDeleteObjectDesc    c0010cf5 f   AcpiSubsystem:utobject.obj
 0001:000109af       _AcpiUtGetObjectSize       c0010daf f   AcpiSubsystem:utobject.obj
 0001:00010bbf       _AcpiUtValidInternalObject c0010fbf f   AcpiSubsystem:utobject.obj
 0001:00010c4c       _AcpiHwClearAcpiStatus     c001104c f   AcpiSubsystem:hwregs.obj
 0001:00010cfd       _AcpiHwGetBitRegisterInfo  c00110fd f   AcpiSubsystem:hwregs.obj
 0001:00010d2e       _AcpiHwRead                c001112e f   AcpiSubsystem:hwregs.obj
 0001:00010e2d       _AcpiHwRegisterRead        c001122d f   AcpiSubsystem:hwregs.obj
 0001:00010f28       _AcpiHwRegisterWrite       c0011328 f   AcpiSubsystem:hwregs.obj
 0001:00011067       _AcpiHwValidateRegister    c0011467 f   AcpiSubsystem:hwregs.obj
 0001:00011104       _AcpiHwWrite               c0011504 f   AcpiSubsystem:hwregs.obj
 0001:000111e1       _AcpiHwWritePm1Control     c00115e1 f   AcpiSubsystem:hwregs.obj
 0001:00011256       _AcpiEvAcquireGlobalLock   c0011656 f   AcpiSubsystem:evglock.obj
 0001:0001146d       _AcpiEvInitGlobalLockHandler c001186d f   AcpiSubsystem:evglock.obj
 0001:0001153c       _AcpiEvReleaseGlobalLock   c001193c f   AcpiSubsystem:evglock.obj
 0001:00011640       _AcpiEvRemoveGlobalLockHandler c0011a40 f   AcpiSubsystem:evglock.obj
 0001:00011693       _AcpiEvGpeInitialize       c0011a93 f   AcpiSubsystem:evgpeinit.obj
 0001:0001188c       _AcpiEvMatchGpeMethod      c0011c8c f   AcpiSubsystem:evgpeinit.obj
 0001:00011aaf       _AcpiEvUpdateGpes          c0011eaf f   AcpiSubsystem:evgpeinit.obj
 0001:00011b63       _AcpiEvGpeXruptHandler     c0011f63 f   AcpiSubsystem:evsci.obj
 0001:00011ba3       _AcpiEvInstallSciHandler   c0011fa3 f   AcpiSubsystem:evsci.obj
 0001:00011bf0       _AcpiEvRemoveAllSciHandlers c0011ff0 f   AcpiSubsystem:evsci.obj
 0001:00011c79       _AcpiEvSciDispatch         c0012079 f   AcpiSubsystem:evsci.obj
 0001:00011d16       _AcpiEvCmosRegionSetup     c0012116 f   AcpiSubsystem:evrgnini.obj
 0001:00011d48       _AcpiEvDefaultRegionSetup  c0012148 f   AcpiSubsystem:evrgnini.obj
 0001:00011d8e       _AcpiEvInitializeRegion    c001218e f   AcpiSubsystem:evrgnini.obj
 0001:00011fc6       _AcpiEvIoSpaceRegionSetup  c00123c6 f   AcpiSubsystem:evrgnini.obj
 0001:00012092       _AcpiEvPciBarRegionSetup   c0012492 f   AcpiSubsystem:evrgnini.obj
 0001:000120c4       _AcpiEvPciConfigRegionSetup c00124c4 f   AcpiSubsystem:evrgnini.obj
 0001:00012337       _AcpiEvSystemMemoryRegionSetup c0012737 f   AcpiSubsystem:evrgnini.obj
 0001:000123f5       _AcpiNsGetNextNode         c00127f5 f   AcpiSubsystem:nswalk.obj
 0001:0001240e       _AcpiNsGetNextNodeTyped    c001280e f   AcpiSubsystem:nswalk.obj
 0001:00012444       _AcpiNsWalkNamespace       c0012844 f   AcpiSubsystem:nswalk.obj
 0001:0001264d       _AcpiNsAttachData          c0012a4d f   AcpiSubsystem:nsobject.obj
 0001:000126b0       _AcpiNsAttachObject        c0012ab0 f   AcpiSubsystem:nsobject.obj
 0001:00012861       _AcpiNsDetachData          c0012c61 f   AcpiSubsystem:nsobject.obj
 0001:000128a1       _AcpiNsDetachObject        c0012ca1 f   AcpiSubsystem:nsobject.obj
 0001:0001298b       _AcpiNsGetAttachedData     c0012d8b f   AcpiSubsystem:nsobject.obj
 0001:000129ba       _AcpiNsGetAttachedObject   c0012dba f   AcpiSubsystem:nsobject.obj
 0001:00012a4b       _AcpiNsGetSecondaryObject  c0012e4b f   AcpiSubsystem:nsobject.obj
 0001:00012ab3       _AcpiExCmosSpaceHandler    c0012eb3 f   AcpiSubsystem:exregion.obj
 0001:00012aea       _AcpiExDataTableSpaceHandler c0012eea f   AcpiSubsystem:exregion.obj
 0001:00012b76       _AcpiExPciBarSpaceHandler  c0012f76 f   AcpiSubsystem:exregion.obj
 0001:00012bad       _AcpiExPciConfigSpaceHandler c0012fad f   AcpiSubsystem:exregion.obj
 0001:00012c91       _AcpiExSystemIoSpaceHandler c0013091 f   AcpiSubsystem:exregion.obj
 0001:00012d5d       _AcpiExSystemMemorySpaceHandler c001315d f   AcpiSubsystem:exregion.obj
 0001:00012fc4       _AcpiGetHandle             c00133c4 f   AcpiSubsystem:nsxfname.obj
 0001:00013044       _AcpiGetName               c0013444 f   AcpiSubsystem:nsxfname.obj
 0001:000130cc       _AcpiGetObjectInfo         c00134cc f   AcpiSubsystem:nsxfname.obj
 0001:00013404       _AcpiInstallMethod         c0013804 f   AcpiSubsystem:nsxfname.obj
 0001:000135a9       _AcpiAttachData            c00139a9 f   AcpiSubsystem:nsxfeval.obj
 0001:00013604       _AcpiDetachData            c0013a04 f   AcpiSubsystem:nsxfeval.obj
 0001:00013654       _AcpiEvaluateObject        c0013a54 f   AcpiSubsystem:nsxfeval.obj
 0001:000138fe       _AcpiEvaluateObjectTyped   c0013cfe f   AcpiSubsystem:nsxfeval.obj
 0001:00013a51       _AcpiGetData               c0013e51 f   AcpiSubsystem:nsxfeval.obj
 0001:00013aac       _AcpiGetDevices            c0013eac f   AcpiSubsystem:nsxfeval.obj
 0001:00013cb5       _AcpiWalkNamespace         c00140b5 f   AcpiSubsystem:nsxfeval.obj
 0001:00013da9       _AcpiUtCreateUpdateStateAndPush c00141a9 f   AcpiSubsystem:utmisc.obj
 0001:00013ddb       _AcpiUtDisplayInitPathname c00141db f   AcpiSubsystem:utmisc.obj
 0001:00013e6b       _AcpiUtDwordByteSwap       c001426b f   AcpiSubsystem:utmisc.obj
 0001:00013e96       _AcpiUtIsPciRootBridge     c0014296 f   AcpiSubsystem:utmisc.obj
 0001:00013ec4       _AcpiUtSetIntegerWidth     c00142c4 f   AcpiSubsystem:utmisc.obj
 0001:00013ef7       _AcpiUtWalkPackageTree     c00142f7 f   AcpiSubsystem:utmisc.obj
 0001:0001406f       _AcpiExAcquireGlobalLock   c001446f f   AcpiSubsystem:exutils.obj
 0001:0001417c       _AcpiExEisaIdToString      c001457c f   AcpiSubsystem:exutils.obj
 0001:0001421d       _AcpiExEnterInterpreter    c001461d f   AcpiSubsystem:exutils.obj
 0001:00014271       _AcpiExExitInterpreter     c0014671 f   AcpiSubsystem:exutils.obj
 0001:000142c5       _AcpiExIntegerToString     c00146c5 f   AcpiSubsystem:exutils.obj
 0001:00014317       _AcpiExPciClsToString      c0014717 f   AcpiSubsystem:exutils.obj
 0001:00014393       _AcpiExReleaseGlobalLock   c0014793 f   AcpiSubsystem:exutils.obj
 0001:000143fe       _AcpiExTruncateFor32bitTable c00147fe f   AcpiSubsystem:exutils.obj
 0001:00014436       _AcpiIsValidSpaceId        c0014836 f   AcpiSubsystem:exutils.obj
 0001:00014451       _AcpiUtEvaluateNumericObject c0014851 f   AcpiSubsystem:uteval.obj
 0001:000144d3       _AcpiUtEvaluateObject      c00148d3 f   AcpiSubsystem:uteval.obj
 0001:00014686       _AcpiUtExecutePowerMethods c0014a86 f   AcpiSubsystem:uteval.obj
 0001:00014773       _AcpiUtExecute_STA         c0014b73 f   AcpiSubsystem:uteval.obj
 0001:00014835       _AcpiNsBuildExternalPath   c0014c35 f   AcpiSubsystem:nsnames.obj
 0001:000148ae       _AcpiNsGetExternalPathname c0014cae f   AcpiSubsystem:nsnames.obj
 0001:00014977       _AcpiNsGetPathnameLength   c0014d77 f   AcpiSubsystem:nsnames.obj
 0001:000149c4       _AcpiNsHandleToPathname    c0014dc4 f   AcpiSubsystem:nsnames.obj
 0001:00014c44       _AcpiDsGetBankFieldArguments c0015044 f   AcpiSubsystem:dsargs.obj
 0001:00014d04       _AcpiDsGetBufferArguments  c0015104 f   AcpiSubsystem:dsargs.obj
 0001:00014dd0       _AcpiDsGetBufferFieldArguments c00151d0 f   AcpiSubsystem:dsargs.obj
 0001:00014e90       _AcpiDsGetPackageArguments c0015290 f   AcpiSubsystem:dsargs.obj
 0001:00014f5c       _AcpiDsGetRegionArguments  c001535c f   AcpiSubsystem:dsargs.obj
 0001:00015089       _AcpiNsDumpEntry           c0015489 f   AcpiSubsystem:nsdump.obj
 0001:000150b7       _AcpiNsDumpObjectPaths     c00154b7 f   AcpiSubsystem:nsdump.obj
 0001:00015124       _AcpiNsDumpObjects         c0015524 f   AcpiSubsystem:nsdump.obj
 0001:00015186       _AcpiNsDumpOneObject       c0015586 f   AcpiSubsystem:nsdump.obj
 0001:000157cb       _AcpiNsDumpPathname        c0015bcb f   AcpiSubsystem:nsdump.obj
 0001:0001584d       _AcpiNsPrintPathname       c0015c4d f   AcpiSubsystem:nsdump.obj
 0001:000158ee       _AcpiNsSearchAndEnter      c0015cee f   AcpiSubsystem:nssearch.obj
 0001:00015b4b       _AcpiNsSearchOneScope      c0015f4b f   AcpiSubsystem:nssearch.obj
 0001:00015e32       _AcpiDsScopeStackClear     c0016232 f   AcpiSubsystem:dswscope.obj
 0001:00015ea4       _AcpiDsScopeStackPop       c00162a4 f   AcpiSubsystem:dswscope.obj
 0001:00015ff8       _AcpiDsScopeStackPush      c00163f8 f   AcpiSubsystem:dswscope.obj
 0001:000161e1       _AcpiUtGetExpectedReturnTypes c00165e1 f   AcpiSubsystem:utpredef.obj
 0001:00016235       _AcpiUtGetNextPredefinedMethod c0016635 f   AcpiSubsystem:utpredef.obj
 0001:0001624d       _AcpiUtMatchPredefinedMethod c001664d f   AcpiSubsystem:utpredef.obj
 0001:0001627e       _AcpiUtMethodError         c001667e f   AcpiSubsystem:uterror.obj
 0001:000162f3       _AcpiUtNamespaceError      c00166f3 f   AcpiSubsystem:uterror.obj
 0001:00016391       _AcpiUtPredefinedBiosError c0016791 f   AcpiSubsystem:uterror.obj
 0001:000163cd       _AcpiUtPredefinedInfo      c00167cd f   AcpiSubsystem:uterror.obj
 0001:00016409       _AcpiUtPredefinedWarning   c0016809 f   AcpiSubsystem:uterror.obj
 0001:00016445       _AcpiDebugTrace            c0016845 f   AcpiSubsystem:psxface.obj
 0001:00016496       _AcpiPsExecuteMethod       c0016896 f   AcpiSubsystem:psxface.obj
 0001:000167e3       _AcpiExResolveNodeToValue  c0016be3 f   AcpiSubsystem:exresnte.obj
 0001:00016bba       _AcpiNsCheckAcpiCompliance c0016fba f   AcpiSubsystem:nsarguments.obj
 0001:00016c69       _AcpiNsCheckArgumentCount  c0017069 f   AcpiSubsystem:nsarguments.obj
 0001:00016d3e       _AcpiNsCheckArgumentTypes  c001713e f   AcpiSubsystem:nsarguments.obj
 0001:00016dd3       _AcpiNsCheckObjectType     c00171d3 f   AcpiSubsystem:nspredef.obj
 0001:00016f38       _AcpiNsCheckReturnValue    c0017338 f   AcpiSubsystem:nspredef.obj
 0001:0001700c       _AcpiDbCommandDispatch     c001740c f   AcpiSubsystem:dbinput.obj
 0001:00017680       _AcpiDbExecuteThread       c0017a80 f   AcpiSubsystem:dbinput.obj
 0001:0001773d       _AcpiDbGetNextToken        c0017b3d f   AcpiSubsystem:dbinput.obj
 0001:00017929       _AcpiDbUserCommands        c0017d29 f   AcpiSubsystem:dbinput.obj
 0001:000179d2       _AcpiDbDumpExternalObject  c0017dd2 f   AcpiSubsystem:dbutils.obj
 0001:00017b4b       _AcpiDbLocalNsLookup       c0017f4b f   AcpiSubsystem:dbutils.obj
 0001:00017bc5       _AcpiDbMatchArgument       c0017fc5 f   AcpiSubsystem:dbutils.obj
 0001:00017c0b       _AcpiDbPrepNamestring      c001800b f   AcpiSubsystem:dbutils.obj
 0001:00017c3f       _AcpiDbSetOutputDestination c001803f f   AcpiSubsystem:dbutils.obj
 0001:00017c65       _AcpiDbUint32ToHexString   c0018065 f   AcpiSubsystem:dbutils.obj
 0001:000183e4       _AcpiDmDisassemble         c00187e4 f   AcpiSubsystem:dmwalk.obj
 0001:0001841e       _AcpiDmEmitExternals       c001881e f   AcpiSubsystem:dmwalk.obj
 0001:0001841f       _AcpiDmListType            c001881f f   AcpiSubsystem:dmwalk.obj
 0001:00018472       _AcpiDmWalkParseTree       c0018872 f   AcpiSubsystem:dmwalk.obj
 0001:000184f3       _AcpiUtDivide              c00188f3 f   AcpiSubsystem:utmath.obj
 0001:00018688       _AcpiUtShortDivide         c0018a88 f   AcpiSubsystem:utmath.obj
 0001:00018743       _AcpiHwClearGpe            c0018b43 f   AcpiSubsystem:hwgpe.obj
 0001:0001876b       _AcpiHwClearGpeBlock       c0018b6b f   AcpiSubsystem:hwgpe.obj
 0001:000187a0       _AcpiHwDisableAllGpes      c0018ba0 f   AcpiSubsystem:hwgpe.obj
 0001:000187ed       _AcpiHwDisableGpeBlock     c0018bed f   AcpiSubsystem:hwgpe.obj
 0001:0001881f       _AcpiHwEnableAllRuntimeGpes c0018c1f f   AcpiSubsystem:hwgpe.obj
 0001:00018860       _AcpiHwEnableAllWakeupGpes c0018c60 f   AcpiSubsystem:hwgpe.obj
 0001:000188a1       _AcpiHwEnableRuntimeGpeBlock c0018ca1 f   AcpiSubsystem:hwgpe.obj
 0001:0001890e       _AcpiHwGetGpeRegisterBit   c0018d0e f   AcpiSubsystem:hwgpe.obj
 0001:00018925       _AcpiHwGetGpeStatus        c0018d25 f   AcpiSubsystem:hwgpe.obj
 0001:000189c7       _AcpiHwLowSetGpe           c0018dc7 f   AcpiSubsystem:hwgpe.obj
 0001:00018a55       _AcpiUtCreateControlState  c0018e55 f   AcpiSubsystem:utstate.obj
 0001:00018a72       _AcpiUtCreateGenericState  c0018e72 f   AcpiSubsystem:utstate.obj
 0001:00018a8c       _AcpiUtCreatePkgState      c0018e8c f   AcpiSubsystem:utstate.obj
 0001:00018ac2       _AcpiUtCreateThreadState   c0018ec2 f   AcpiSubsystem:utstate.obj
 0001:00018b0e       _AcpiUtCreateUpdateState   c0018f0e f   AcpiSubsystem:utstate.obj
 0001:00018b36       _AcpiUtDeleteGenericState  c0018f36 f   AcpiSubsystem:utstate.obj
 0001:00018b54       _AcpiUtPopGenericState     c0018f54 f   AcpiSubsystem:utstate.obj
 0001:00018b68       _AcpiUtPushGenericState    c0018f68 f   AcpiSubsystem:utstate.obj
 0001:00018b7c       _AcpiEvDeleteGpeHandlers   c0018f7c f   AcpiSubsystem:evgpeutil.obj
 0001:00018c2e       _AcpiEvDeleteGpeXrupt      c001902e f   AcpiSubsystem:evgpeutil.obj
 0001:00018d05       _AcpiEvGetGpeDevice        c0019105 f   AcpiSubsystem:evgpeutil.obj
 0001:00018d33       _AcpiEvGetGpeXruptBlock    c0019133 f   AcpiSubsystem:evgpeutil.obj
 0001:00018e61       _AcpiEvWalkGpeList         c0019261 f   AcpiSubsystem:evgpeutil.obj
 0001:00018ef7       _AcpiExAcquireMutex        c00192f7 f   AcpiSubsystem:exmutex.obj
 0001:00019033       _AcpiExAcquireMutexObject  c0019433 f   AcpiSubsystem:exmutex.obj
 0001:00019140       _AcpiExReleaseAllMutexes   c0019540 f   AcpiSubsystem:exmutex.obj
 0001:000191d6       _AcpiExReleaseMutex        c00195d6 f   AcpiSubsystem:exmutex.obj
 0001:000193a0       _AcpiExReleaseMutexObject  c00197a0 f   AcpiSubsystem:exmutex.obj
 0001:0001946a       _AcpiExUnlinkMutex         c001986a f   AcpiSubsystem:exmutex.obj
 0001:000194a0       _AcpiEvCreateGpeBlock      c00198a0 f   AcpiSubsystem:evgpeblk.obj
 0001:0001982a       _AcpiEvDeleteGpeBlock      c0019c2a f   AcpiSubsystem:evgpeblk.obj
 0001:0001991f       _AcpiEvInitializeGpeBlock  c0019d1f f   AcpiSubsystem:evgpeblk.obj
 0001:00019af6       _AcpiAcquireGlobalLock     c0019ef6 f   AcpiSubsystem:evxface.obj
 0001:00019cd2       _AcpiInstallExceptionHandler c001a0d2 f   AcpiSubsystem:evxface.obj
 0001:00019d47       _AcpiInstallFixedEventHandler c001a147 f   AcpiSubsystem:evxface.obj
 0001:00019e87       _AcpiInstallGlobalEventHandler c001a287 f   AcpiSubsystem:evxface.obj
 0001:00019f27       _AcpiInstallGpeHandler     c001a327 f   AcpiSubsystem:evxface.obj
 0001:00019f76       _AcpiInstallGpeRawHandler  c001a376 f   AcpiSubsystem:evxface.obj
 0001:00019fc5       _AcpiInstallNotifyHandler  c001a3c5 f   AcpiSubsystem:evxface.obj
 0001:0001a1b9       _AcpiInstallSciHandler     c001a5b9 f   AcpiSubsystem:evxface.obj
 0001:0001a2aa       _AcpiReleaseGlobalLock     c001a6aa f   AcpiSubsystem:evxface.obj
 0001:0001a2cf       _AcpiRemoveFixedEventHandler c001a6cf f   AcpiSubsystem:evxface.obj
 0001:0001a3de       _AcpiRemoveGpeHandler      c001a7de f   AcpiSubsystem:evxface.obj
 0001:0001a526       _AcpiRemoveNotifyHandler   c001a926 f   AcpiSubsystem:evxface.obj
 0001:0001a774       _AcpiRemoveSciHandler      c001ab74 f   AcpiSubsystem:evxface.obj
 0001:0001a862       _AcpiExSystemDoSleep       c001ac62 f   AcpiSubsystem:exsystem.obj
 0001:0001a896       _AcpiExSystemDoStall       c001ac96 f   AcpiSubsystem:exsystem.obj
 0001:0001a8d4       _AcpiExSystemResetEvent    c001acd4 f   AcpiSubsystem:exsystem.obj
 0001:0001a90f       _AcpiExSystemSignalEvent   c001ad0f f   AcpiSubsystem:exsystem.obj
 0001:0001a962       _AcpiExSystemWaitEvent     c001ad62 f   AcpiSubsystem:exsystem.obj
 0001:0001a9bc       _AcpiExSystemWaitMutex     c001adbc f   AcpiSubsystem:exsystem.obj
 0001:0001aa77       _AcpiExSystemWaitSemaphore c001ae77 f   AcpiSubsystem:exsystem.obj
 0001:0001ab32       _AcpiEvAddGpeReference     c001af32 f   AcpiSubsystem:evgpe.obj
 0001:0001accb       _AcpiEvEnableGpe           c001b0cb f   AcpiSubsystem:evgpe.obj
 0001:0001ad31       _AcpiEvFinishGpe           c001b131 f   AcpiSubsystem:evgpe.obj
 0001:0001ad55       _AcpiEvGetGpeEventInfo     c001b155 f   AcpiSubsystem:evgpe.obj
 0001:0001ada9       _AcpiEvGpeDetect           c001b1a9 f   AcpiSubsystem:evgpe.obj
 0001:0001b00d       _AcpiEvGpeDispatch         c001b40d f   AcpiSubsystem:evgpe.obj
 0001:0001b141       _AcpiEvLowGetGpeInfo       c001b541 f   AcpiSubsystem:evgpe.obj
 0001:0001b169       _AcpiEvRemoveGpeReference  c001b569 f   AcpiSubsystem:evgpe.obj
 0001:0001b1ed       _AcpiEvUpdateGpeEnableMask c001b5ed f   AcpiSubsystem:evgpe.obj
 0001:0001b26b       _AcpiInstallAddressSpaceHandler c001b66b f   AcpiSubsystem:evxfregn.obj
 0001:0001b348       _AcpiRemoveAddressSpaceHandler c001b748 f   AcpiSubsystem:evxfregn.obj
 0001:0001b570       _AcpiHwDerivePciId         c001b970 f   AcpiSubsystem:hwpci.obj
 0001:0001b7be       _AcpiUtExecute_CID         c001bbbe f   AcpiSubsystem:utids.obj
 0001:0001b92c       _AcpiUtExecute_CLS         c001bd2c f   AcpiSubsystem:utids.obj
 0001:0001ba2f       _AcpiUtExecute_HID         c001be2f f   AcpiSubsystem:utids.obj
 0001:0001bb01       _AcpiUtExecute_SUB         c001bf01 f   AcpiSubsystem:utids.obj
 0001:0001bbb1       _AcpiUtExecute_UID         c001bfb1 f   AcpiSubsystem:utids.obj
 0001:0001bc83       _AcpiPsGetNextArg          c001c083 f   AcpiSubsystem:psargs.obj
 0001:0001c106       _AcpiPsGetNextNamepath     c001c506 f   AcpiSubsystem:psargs.obj
 0001:0001c3b8       _AcpiPsGetNextNamestring   c001c7b8 f   AcpiSubsystem:psargs.obj
 0001:0001c43a       _AcpiPsGetNextPackageEnd   c001c83a f   AcpiSubsystem:psargs.obj
 0001:0001c500       _AcpiPsGetNextSimpleArg    c001c900 f   AcpiSubsystem:psargs.obj
 0001:0001c64a       _AcpiPsCompleteThisOp      c001ca4a f   AcpiSubsystem:psparse.obj
 0001:0001c828       _AcpiPsGetOpcodeSize       c001cc28 f   AcpiSubsystem:psparse.obj
 0001:0001c837       _AcpiPsNextParseState      c001cc37 f   AcpiSubsystem:psparse.obj
 0001:0001c951       _AcpiPsParseAml            c001cd51 f   AcpiSubsystem:psparse.obj
 0001:0001ccc2       _AcpiPsPeekOpcode          c001d0c2 f   AcpiSubsystem:psparse.obj
 0001:0001cce1       _AcpiUtCopyEobjectToIobject c001d0e1 f   AcpiSubsystem:utcopy.obj
 0001:0001d0c5       _AcpiUtCopyIobjectToEobject c001d4c5 f   AcpiSubsystem:utcopy.obj
 0001:0001d135       _AcpiUtCopyIobjectToIobject c001d535 f   AcpiSubsystem:utcopy.obj
 0001:0001d595       _AcpiUtAsciiCharToHex      c001d995 f   AcpiSubsystem:uthex.obj
 0001:0001d5af       _AcpiUtHexToAsciiChar      c001d9af f   AcpiSubsystem:uthex.obj
 0001:0001d5ca       _AcpiPsDeleteParseTree     c001d9ca f   AcpiSubsystem:pswalk.obj
 0001:0001d656       _AcpiPsAllocOp             c001da56 f   AcpiSubsystem:psutils.obj
 0001:0001d6b6       _AcpiPsCreateScopeOp       c001dab6 f   AcpiSubsystem:psutils.obj
 0001:0001d6cb       _AcpiPsFreeOp              c001dacb f   AcpiSubsystem:psutils.obj
 0001:0001d72b       _AcpiPsGetName             c001db2b f   AcpiSubsystem:psutils.obj
 0001:0001d73c       _AcpiPsInitOp              c001db3c f   AcpiSubsystem:psutils.obj
 0001:0001d76a       _AcpiPsIsLeadingChar       c001db6a f   AcpiSubsystem:psutils.obj
 0001:0001d785       _AcpiPsSetName             c001db85 f   AcpiSubsystem:psutils.obj
 0001:0001d797       _AcpiDsCreateWalkState     c001db97 f   AcpiSubsystem:dswstate.obj
 0001:0001d835       _AcpiDsDeleteWalkState     c001dc35 f   AcpiSubsystem:dswstate.obj
 0001:0001d93f       _AcpiDsGetCurrentWalkState c001dd3f f   AcpiSubsystem:dswstate.obj
 0001:0001d986       _AcpiDsInitAmlWalk         c001dd86 f   AcpiSubsystem:dswstate.obj
 0001:0001db0e       _AcpiDsObjStackPop         c001df0e f   AcpiSubsystem:dswstate.obj
 0001:0001db9c       _AcpiDsObjStackPopAndDelete c001df9c f   AcpiSubsystem:dswstate.obj
 0001:0001dc23       _AcpiDsObjStackPush        c001e023 f   AcpiSubsystem:dswstate.obj
 0001:0001dcb4       _AcpiDsPopWalkState        c001e0b4 f   AcpiSubsystem:dswstate.obj
 0001:0001dcfa       _AcpiDsPushWalkState       c001e0fa f   AcpiSubsystem:dswstate.obj
 0001:0001dd38       _AcpiDsResultPop           c001e138 f   AcpiSubsystem:dswstate.obj
 0001:0001de35       _AcpiDsResultPush          c001e235 f   AcpiSubsystem:dswstate.obj
 0001:0001e0b5       _AcpiUtDebugDumpBuffer     c001e4b5 f   AcpiSubsystem:utbuffer.obj
 0001:0001e0e3       _AcpiUtDumpBuffer          c001e4e3 f   AcpiSubsystem:utbuffer.obj
 0001:0001e25b       _AcpiPsCleanupScope        c001e65b f   AcpiSubsystem:psscope.obj
 0001:0001e2ba       _AcpiPsGetParentScope      c001e6ba f   AcpiSubsystem:psscope.obj
 0001:0001e2c5       _AcpiPsHasCompletedScope   c001e6c5 f   AcpiSubsystem:psscope.obj
 0001:0001e2de       _AcpiPsInitScope           c001e6de f   AcpiSubsystem:psscope.obj
 0001:0001e35e       _AcpiPsPopScope            c001e75e f   AcpiSubsystem:psscope.obj
 0001:0001e423       _AcpiPsPushScope           c001e823 f   AcpiSubsystem:psscope.obj
 0001:0001e4c4       _AcpiDsAutoSerializeMethod c001e8c4 f   AcpiSubsystem:dsmethod.obj
 0001:0001e602       _AcpiDsBeginMethodExecution c001ea02 f   AcpiSubsystem:dsmethod.obj
 0001:0001e806       _AcpiDsCallControlMethod   c001ec06 f   AcpiSubsystem:dsmethod.obj
 0001:0001eb54       _AcpiDsMethodError         c001ef54 f   AcpiSubsystem:dsmethod.obj
 0001:0001ebca       _AcpiDsRestartControlMethod c001efca f   AcpiSubsystem:dsmethod.obj
 0001:0001ed02       _AcpiDsTerminateControlMethod c001f102 f   AcpiSubsystem:dsmethod.obj
 0001:0001ee75       _AcpiExDumpNamespaceNode   c001f275 f   AcpiSubsystem:exdump.obj
 0001:0001f280       _AcpiExDumpObjectDescriptor c001f680 f   AcpiSubsystem:exdump.obj
 0001:0001f3cf       _AcpiExDumpOperand         c001f7cf f   AcpiSubsystem:exdump.obj
 0001:0001f85f       _AcpiExDumpOperands        c001fc5f f   AcpiSubsystem:exdump.obj
 0001:0001fb75       _AcpiExReadDataFromField   c001ff75 f   AcpiSubsystem:exfield.obj
 0001:0001fec3       _AcpiExWriteDataToField    c00202c3 f   AcpiSubsystem:exfield.obj
 0001:00020295       _AcpiNsCheckPackage        c0020695 f   AcpiSubsystem:nsprepkg.obj
 0001:0002089b       _AcpiNsRemoveNullElements  c0020c9b f   AcpiSubsystem:nsrepair.obj
 0001:00020922       _AcpiNsRepairNullElement   c0020d22 f   AcpiSubsystem:nsrepair.obj
 0001:000209cd       _AcpiNsSimpleRepair        c0020dcd f   AcpiSubsystem:nsrepair.obj
 0001:00020c1d       _AcpiNsWrapWithPackage     c002101d f   AcpiSubsystem:nsrepair.obj
 0001:000211ab       _AcpiNsComplexRepairs      c00215ab f   AcpiSubsystem:nsrepair2.obj
 0001:000212e1       _AcpiDbConvertToNode       c00216e1 f   AcpiSubsystem:dbcmds.obj
 0001:000216b0       _AcpiDbDisplayInterfaces   c0021ab0 f   AcpiSubsystem:dbcmds.obj
 0001:0002178e       _AcpiDbDisplayLocks        c0021b8e f   AcpiSubsystem:dbcmds.obj
 0001:000217cd       _AcpiDbDisplayResources    c0021bcd f   AcpiSubsystem:dbcmds.obj
 0001:00021859       _AcpiDbDisplayTableInfo    c0021c59 f   AcpiSubsystem:dbcmds.obj
 0001:0002192d       _AcpiDbDisplayTemplate     c0021d2d f   AcpiSubsystem:dbcmds.obj
 0001:00021afc       _AcpiDbGenerateGpe         c0021efc f   AcpiSubsystem:dbcmds.obj
 0001:00021b5a       _AcpiDbGenerateSci         c0021f5a f   AcpiSubsystem:dbcmds.obj
 0001:00021b62       _AcpiDbSendNotify          c0021f62 f   AcpiSubsystem:dbcmds.obj
 0001:00021bbe       _AcpiDbSleep               c0021fbe f   AcpiSubsystem:dbcmds.obj
 0001:00021c4c       _AcpiDbUnloadAcpiTable     c002204c f   AcpiSubsystem:dbcmds.obj
 0001:00021ea9       _AcpiDbDecodeAndDisplayObject c00222a9 f   AcpiSubsystem:dbdisply.obj
 0001:0002209a       _AcpiDbDisplayArgumentObject c002249a f   AcpiSubsystem:dbdisply.obj
 0001:000220b4       _AcpiDbDisplayArguments    c00224b4 f   AcpiSubsystem:dbdisply.obj
 0001:000220d8       _AcpiDbDisplayCallingTree  c00224d8 f   AcpiSubsystem:dbdisply.obj
 0001:00022124       _AcpiDbDisplayGpes         c0022524 f   AcpiSubsystem:dbdisply.obj
 0001:000223b8       _AcpiDbDisplayHandlers     c00227b8 f   AcpiSubsystem:dbdisply.obj
 0001:00022583       _AcpiDbDisplayLocals       c0022983 f   AcpiSubsystem:dbdisply.obj
 0001:000225a7       _AcpiDbDisplayMethodInfo   c00229a7 f   AcpiSubsystem:dbdisply.obj
 0001:00022746       _AcpiDbDisplayObjectType   c0022b46 f   AcpiSubsystem:dbdisply.obj
 0001:00022896       _AcpiDbDisplayResultObject c0022c96 f   AcpiSubsystem:dbdisply.obj
 0001:000228c4       _AcpiDbDisplayResults      c0022cc4 f   AcpiSubsystem:dbdisply.obj
 0001:00022bd6       _AcpiDbExecuteTest         c0022fd6 f   AcpiSubsystem:dbtest.obj
 0001:00023450       _AcpiDbDisassembleAml      c0023850 f   AcpiSubsystem:dbmethod.obj
 0001:0002348d       _AcpiDbDisassembleMethod   c002388d f   AcpiSubsystem:dbmethod.obj
 0001:00023599       _AcpiDbSetMethodBreakpoint c0023999 f   AcpiSubsystem:dbmethod.obj
 0001:000235ef       _AcpiDbSetMethodCallBreakpoint c00239ef f   AcpiSubsystem:dbmethod.obj
 0001:0002360a       _AcpiDbSetMethodData       c0023a0a f   AcpiSubsystem:dbmethod.obj
 0001:000238cc       _AcpiDbCheckIntegrity      c0023ccc f   AcpiSubsystem:dbnames.obj
 0001:00023905       _AcpiDbCheckPredefinedNames c0023d05 f   AcpiSubsystem:dbnames.obj
 0001:00023937       _AcpiDbDisplayObjects      c0023d37 f   AcpiSubsystem:dbnames.obj
 0001:000239cc       _AcpiDbDumpNamespace       c0023dcc f   AcpiSubsystem:dbnames.obj
 0001:00023a3f       _AcpiDbDumpNamespaceByOwner c0023e3f f   AcpiSubsystem:dbnames.obj
 0001:00023ab2       _AcpiDbDumpNamespacePaths  c0023eb2 f   AcpiSubsystem:dbnames.obj
 0001:00023aed       _AcpiDbFindNameInNamespace c0023eed f   AcpiSubsystem:dbnames.obj
 0001:00023b63       _AcpiDbFindReferences      c0023f63 f   AcpiSubsystem:dbnames.obj
 0001:00023b89       _AcpiDbGetBusInfo          c0023f89 f   AcpiSubsystem:dbnames.obj
 0001:00023c48       _AcpiDbSetScope            c0024048 f   AcpiSubsystem:dbnames.obj
 0001:00023ee0       _AcpiDbCreateExecutionThreads c00242e0 f   AcpiSubsystem:dbexec.obj
 0001:00024181       _AcpiDbDeleteObjects       c0024581 f   AcpiSubsystem:dbexec.obj
 0001:000241c4       _AcpiDbExecute             c00245c4 f   AcpiSubsystem:dbexec.obj
 0001:0002475f       _AcpiDbCloseDebugFile      c0024b5f f   AcpiSubsystem:dbfileio.obj
 0001:00024760       _AcpiDbGetTableFromFile    c0024b60 f   AcpiSubsystem:dbfileio.obj
 0001:00024763       _AcpiDbOpenDebugFile       c0024b63 f   AcpiSubsystem:dbfileio.obj
 0001:00024764       _AcpiDbAddToHistory        c0024b64 f   AcpiSubsystem:dbhistry.obj
 0001:00024868       _AcpiDbDisplayHistory      c0024c68 f   AcpiSubsystem:dbhistry.obj
 0001:000248bf       _AcpiDbGetFromHistory      c0024cbf f   AcpiSubsystem:dbhistry.obj
 0001:000248e6       _AcpiDbGetHistoryByIndex   c0024ce6 f   AcpiSubsystem:dbhistry.obj
 0001:000249b5       _AcpiDbDisplayStatistics   c0024db5 f   AcpiSubsystem:dbstats.obj
 0001:00024ea0       _AcpiDmDecodeInternalObject c00252a0 f   AcpiSubsystem:dmobject.obj
 0001:00024feb       _AcpiDmDisplayArguments    c00253eb f   AcpiSubsystem:dmobject.obj
 0001:00025067       _AcpiDmDisplayInternalObject c0025467 f   AcpiSubsystem:dmobject.obj
 0001:00025236       _AcpiDmDisplayLocals       c0025636 f   AcpiSubsystem:dmobject.obj
 0001:000252a4       _AcpiDmDumpMethodInfo      c00256a4 f   AcpiSubsystem:dmobject.obj
 0001:000253b3       _AcpiPsGetArgumentCount    c00257b3 f   AcpiSubsystem:psopinfo.obj
 0001:000253c6       _AcpiPsGetOpcodeInfo       c00257c6 f   AcpiSubsystem:psopinfo.obj
 0001:00025445       _AcpiPsGetOpcodeName       c0025845 f   AcpiSubsystem:psopinfo.obj
 0001:00025452       _AcpiPsAppendArg           c0025852 f   AcpiSubsystem:pstree.obj
 0001:000254cb       _AcpiPsGetArg              c00258cb f   AcpiSubsystem:pstree.obj
 0001:0002550e       _AcpiPsGetDepthNext        c002590e f   AcpiSubsystem:pstree.obj
 0001:00025575       _AcpiDmAddressSpace        c0025975 f   AcpiSubsystem:dmopcode.obj
 0001:000255af       _AcpiDmDisassembleOneOp    c00259af f   AcpiSubsystem:dmopcode.obj
 0001:000259f1       _AcpiDmDisplayTargetPathname c0025df1 f   AcpiSubsystem:dmopcode.obj
 0001:00025a79       _AcpiDmFieldFlags          c0025e79 f   AcpiSubsystem:dmopcode.obj
 0001:00025ad3       _AcpiDmFieldPredefinedDescription c0025ed3 f   AcpiSubsystem:dmopcode.obj
 0001:00025b00       _AcpiDmMatchOp             c0025f00 f   AcpiSubsystem:dmopcode.obj
 0001:00025b23       _AcpiDmMethodFlags         c0025f23 f   AcpiSubsystem:dmopcode.obj
 0001:00025b7c       _AcpiDmNotifyDescription   c0025f7c f   AcpiSubsystem:dmopcode.obj
 0001:00025bca       _AcpiDmPredefinedDescription c0025fca f   AcpiSubsystem:dmopcode.obj
 0001:00025bcb       _AcpiDmRegionFlags         c0025fcb f   AcpiSubsystem:dmopcode.obj
 0001:00025bf6       _AcpiDmDumpName            c0025ff6 f   AcpiSubsystem:dmnames.obj
 0001:00025c3f       _AcpiDmNamestring          c002603f f   AcpiSubsystem:dmnames.obj
 0001:00025ca7       _AcpiPsDisplayObjectPathname c00260a7 f   AcpiSubsystem:dmnames.obj
 0001:00025d48       _AcpiDmByteList            c0026148 f   AcpiSubsystem:dmbuffer.obj
 0001:00025dd0       _AcpiDmCheckForHardwareId  c00261d0 f   AcpiSubsystem:dmbuffer.obj
 0001:00025e35       _AcpiDmDecompressEisaId    c0026235 f   AcpiSubsystem:dmbuffer.obj
 0001:00025e79       _AcpiDmDisasmByteList      c0026279 f   AcpiSubsystem:dmbuffer.obj
 0001:0002600a       _AcpiDmIsPldBuffer         c002640a f   AcpiSubsystem:dmbuffer.obj
 0001:0002604f       _AcpiDmIsStringBuffer      c002644f f   AcpiSubsystem:dmbuffer.obj
 0001:00026097       _AcpiDmIsUnicodeBuffer     c0026497 f   AcpiSubsystem:dmbuffer.obj
 0001:000260f7       _AcpiDmIsUuidBuffer        c00264f7 f   AcpiSubsystem:dmbuffer.obj
 0001:00026513       _AcpiDmCommaIfFieldMember  c0026913 f   AcpiSubsystem:dmutils.obj
 0001:00026529       _AcpiDmCommaIfListMember   c0026929 f   AcpiSubsystem:dmutils.obj
 0001:00026591       _AcpiDmDecodeAttribute     c0026991 f   AcpiSubsystem:dmutils.obj
 0001:00026621       _AcpiDmIndent              c0026a21 f   AcpiSubsystem:dmutils.obj
 0001:00026640       _AcpiDmCheckForSymbolicOpcode c0026a40 f   AcpiSubsystem:dmcstyle.obj
 0001:000269d4       _AcpiDmCloseOperator       c0026dd4 f   AcpiSubsystem:dmcstyle.obj
 0001:00026b7b       _AcpiGetNextObject         c0026f7b f   AcpiSubsystem:nsxfobj.obj
 0001:00026bf9       _AcpiGetParent             c0026ff9 f   AcpiSubsystem:nsxfobj.obj
 0001:00026c53       _AcpiGetType               c0027053 f   AcpiSubsystem:nsxfobj.obj
 0001:00026f96       _AcpiPsParseLoop           c0027396 f   AcpiSubsystem:psloop.obj
 0001:000273ce       _AcpiDsClearImplicitReturn c00277ce f   AcpiSubsystem:dsutils.obj
 0001:00027431       _AcpiDsClearOperands       c0027831 f   AcpiSubsystem:dsutils.obj
 0001:00027496       _AcpiDsCreateOperand       c0027896 f   AcpiSubsystem:dsutils.obj
 0001:00027856       _AcpiDsCreateOperands      c0027c56 f   AcpiSubsystem:dsutils.obj
 0001:000279d8       _AcpiDsDeleteResultIfNotUsed c0027dd8 f   AcpiSubsystem:dsutils.obj
 0001:00027a7c       _AcpiDsDoImplicitReturn    c0027e7c f   AcpiSubsystem:dsutils.obj
 0001:00027b03       _AcpiDsEvaluateNamePath    c0027f03 f   AcpiSubsystem:dsutils.obj
 0001:00027c0b       _AcpiDsIsResultUsed        c002800b f   AcpiSubsystem:dsutils.obj
 0001:00027e5a       _AcpiDsResolveOperands     c002825a f   AcpiSubsystem:dsutils.obj
 0001:00027ec8       _AcpiDsInitCallbacks       c00282c8 f   AcpiSubsystem:dswload.obj
 0001:00027f5b       _AcpiDsLoad1BeginOp        c002835b f   AcpiSubsystem:dswload.obj
 0001:000283cf       _AcpiDsLoad1EndOp          c00287cf f   AcpiSubsystem:dswload.obj
 0001:00028695       _AcpiDsMethodDataDeleteAll c0028a95 f   AcpiSubsystem:dsmthdat.obj
 0001:000287f8       _AcpiDsMethodDataGetNode   c0028bf8 f   AcpiSubsystem:dsmthdat.obj
 0001:000288f0       _AcpiDsMethodDataGetValue  c0028cf0 f   AcpiSubsystem:dsmthdat.obj
 0001:00028a6b       _AcpiDsMethodDataInit      c0028e6b f   AcpiSubsystem:dsmthdat.obj
 0001:00028aed       _AcpiDsMethodDataInitArgs  c0028eed f   AcpiSubsystem:dsmthdat.obj
 0001:00028cdc       _AcpiDsStoreObjectToLocal  c00290dc f   AcpiSubsystem:dsmthdat.obj
 0001:00028f23       _AcpiExAccessRegion        c0029323 f   AcpiSubsystem:exfldio.obj
 0001:000290d7       _AcpiExExtractFromField    c00294d7 f   AcpiSubsystem:exfldio.obj
 0001:0002970d       _AcpiExInsertIntoField     c0029b0d f   AcpiSubsystem:exfldio.obj
 0001:00029c5f       _AcpiExWriteWithUpdateRule c002a05f f   AcpiSubsystem:exfldio.obj
 0001:00029e32       _AcpiNsConvertToBuffer     c002a232 f   AcpiSubsystem:nsconvert.obj
 0001:00029ee8       _AcpiNsConvertToInteger    c002a2e8 f   AcpiSubsystem:nsconvert.obj
 0001:00029fa2       _AcpiNsConvertToResource   c002a3a2 f   AcpiSubsystem:nsconvert.obj
 0001:00029ff4       _AcpiNsConvertToString     c002a3f4 f   AcpiSubsystem:nsconvert.obj
 0001:0002a07e       _AcpiNsConvertToUnicode    c002a47e f   AcpiSubsystem:nsconvert.obj
 0001:0002a0ed       _AcpiInstallTable          c002a4ed f   AcpiSubsystem:tbxfload.obj
 0001:0002a147       _AcpiLoadTable             c002a547 f   AcpiSubsystem:tbxfload.obj
 0001:0002a24c       _AcpiLoadTables            c002a64c f   AcpiSubsystem:tbxfload.obj
 0001:0002a416       _AcpiUnloadParentTable     c002a816 f   AcpiSubsystem:tbxfload.obj
 0001:0002a545       _AcpiGetCurrentResources   c002a945 f   AcpiSubsystem:rsxface.obj
 0001:0002a5bc       _AcpiGetEventResources     c002a9bc f   AcpiSubsystem:rsxface.obj
 0001:0002a633       _AcpiGetIrqRoutingTable    c002aa33 f   AcpiSubsystem:rsxface.obj
 0001:0002a6aa       _AcpiGetPossibleResources  c002aaaa f   AcpiSubsystem:rsxface.obj
 0001:0002a721       _AcpiGetVendorResource     c002ab21 f   AcpiSubsystem:rsxface.obj
 0001:0002a76e       _AcpiResourceToAddress64   c002ab6e f   AcpiSubsystem:rsxface.obj
 0001:0002a9ba       _AcpiSetCurrentResources   c002adba f   AcpiSubsystem:rsxface.obj
 0001:0002aa60       _AcpiWalkResourceBuffer    c002ae60 f   AcpiSubsystem:rsxface.obj
 0001:0002ab36       _AcpiWalkResources         c002af36 f   AcpiSubsystem:rsxface.obj
 0001:0002ac07       _AcpiEnterSleepState       c002b007 f   AcpiSubsystem:hwxfsleep.obj
 0001:0002ac8f       _AcpiEnterSleepStatePrep   c002b08f f   AcpiSubsystem:hwxfsleep.obj
 0001:0002ad87       _AcpiEnterSleepStateS4bios c002b187 f   AcpiSubsystem:hwxfsleep.obj
 0001:0002af07       _AcpiLeaveSleepState       c002b307 f   AcpiSubsystem:hwxfsleep.obj
 0001:0002af47       _AcpiLeaveSleepStatePrep   c002b347 f   AcpiSubsystem:hwxfsleep.obj
 0001:0002af87       _AcpiSetFirmwareWakingVector c002b387 f   AcpiSubsystem:hwxfsleep.obj
 0001:0002b012       _AcpiUtGetDescriptorLength c002b412 f   AcpiSubsystem:utresrc.obj
 0001:0002b036       _AcpiUtGetResourceEndTag   c002b436 f   AcpiSubsystem:utresrc.obj
 0001:0002b0ab       _AcpiUtGetResourceHeaderLength c002b4ab f   AcpiSubsystem:utresrc.obj
 0001:0002b0bc       _AcpiUtGetResourceLength   c002b4bc f   AcpiSubsystem:utresrc.obj
 0001:0002b0d6       _AcpiUtGetResourceType     c002b4d6 f   AcpiSubsystem:utresrc.obj
 0001:0002b0ec       _AcpiUtValidateResource    c002b4ec f   AcpiSubsystem:utresrc.obj
 0001:0002b1ee       _AcpiUtWalkAmlResources    c002b5ee f   AcpiSubsystem:utresrc.obj
 0001:0002b395       _AcpiBufferToResource      c002b795 f   AcpiSubsystem:rscreate.obj
 0001:0002b47c       _AcpiRsCreateAmlResources  c002b87c f   AcpiSubsystem:rscreate.obj
 0001:0002b5e9       _AcpiRsCreatePciRoutingTable c002b9e9 f   AcpiSubsystem:rscreate.obj
 0001:0002b96d       _AcpiRsCreateResourceList  c002bd6d f   AcpiSubsystem:rscreate.obj
 0001:0002bd64       _AcpiRsDumpIrqList         c002c164 f   AcpiSubsystem:rsdump.obj
 0001:0002bdb3       _AcpiRsDumpResourceList    c002c1b3 f   AcpiSubsystem:rsdump.obj
 0001:0002c112       _AcpiDmParseDeferredOps    c002c512 f   AcpiSubsystem:dmdeferred.obj
 0001:0002c270       _AcpiDbConvertToObject     c002c670 f   AcpiSubsystem:dbconvert.obj
 0001:0002c2dc       _AcpiDbConvertToPackage    c002c6dc f   AcpiSubsystem:dbconvert.obj
 0001:0002c35f       _AcpiDbDumpPldBuffer       c002c75f f   AcpiSubsystem:dbconvert.obj
 0001:0002c609       _AcpiDbEncodePldBuffer     c002ca09 f   AcpiSubsystem:dbconvert.obj
 0001:0002c774       _AcpiDbHexCharToValue      c002cb74 f   AcpiSubsystem:dbconvert.obj
 0001:0002c7a7       _AcpiAhMatchHardwareId     c002cba7 f   AcpiSubsystem:ahids.obj
 0001:0002c7d7       _AcpiDmBitList             c002cbd7 f   AcpiSubsystem:dmresrc.obj
 0001:0002c834       _AcpiDmDescriptorName      c002cc34 f   AcpiSubsystem:dmresrc.obj
 0001:0002c852       _AcpiDmDumpInteger16       c002cc52 f   AcpiSubsystem:dmresrc.obj
 0001:0002c86c       _AcpiDmDumpInteger32       c002cc6c f   AcpiSubsystem:dmresrc.obj
 0001:0002c882       _AcpiDmDumpInteger64       c002cc82 f   AcpiSubsystem:dmresrc.obj
 0001:0002c89c       _AcpiDmDumpInteger8        c002cc9c f   AcpiSubsystem:dmresrc.obj
 0001:0002c8b6       _AcpiDmIsResourceTemplate  c002ccb6 f   AcpiSubsystem:dmresrc.obj
 0001:0002c91c       _AcpiDmResourceTemplate    c002cd1c f   AcpiSubsystem:dmresrc.obj
 0001:0002ca68       _AcpiAhMatchUuid           c002ce68 f   AcpiSubsystem:ahuuids.obj
 0001:0002cab7       _AcpiPsBuildNamedOp        c002ceb7 f   AcpiSubsystem:psobject.obj
 0001:0002cc76       _AcpiPsCompleteFinalOp     c002d076 f   AcpiSubsystem:psobject.obj
 0001:0002ce6e       _AcpiPsCompleteOp          c002d26e f   AcpiSubsystem:psobject.obj
 0001:0002d19b       _AcpiPsCreateOp            c002d59b f   AcpiSubsystem:psobject.obj
 0001:0002d486       _AcpiDsExecBeginOp         c002d886 f   AcpiSubsystem:dswexec.obj
 0001:0002d69f       _AcpiDsExecEndOp           c002da9f f   AcpiSubsystem:dswexec.obj
 0001:0002dcca       _AcpiDsGetPredicateValue   c002e0ca f   AcpiSubsystem:dswexec.obj
 0001:0002dee9       _AcpiDsBuildInternalBufferObj c002e2e9 f   AcpiSubsystem:dsobject.obj
 0001:0002e288       _AcpiDsBuildInternalPackageObj c002e688 f   AcpiSubsystem:dsobject.obj
 0001:0002e49f       _AcpiDsCreateNode          c002e89f f   AcpiSubsystem:dsobject.obj
 0001:0002e570       _AcpiDsInitObjectFromOp    c002e970 f   AcpiSubsystem:dsobject.obj
 0001:0002e801       _AcpiExResolveMultiple     c002ec01 f   AcpiSubsystem:exresolv.obj
 0001:0002ed20       _AcpiExResolveToValue      c002f120 f   AcpiSubsystem:exresolv.obj
 0001:0002ef3d       _AcpiExGetNameString       c002f33d f   AcpiSubsystem:exnames.obj
 0001:0002f460       _AcpiDsCreateBankField     c002f860 f   AcpiSubsystem:dsfield.obj
 0001:0002f582       _AcpiDsCreateBufferField   c002f982 f   AcpiSubsystem:dsfield.obj
 0001:0002f707       _AcpiDsCreateField         c002fb07 f   AcpiSubsystem:dsfield.obj
 0001:0002f7dc       _AcpiDsCreateIndexField    c002fbdc f   AcpiSubsystem:dsfield.obj
 0001:0002fb92       _AcpiDsInitFieldObjects    c002ff92 f   AcpiSubsystem:dsfield.obj
 0001:0002fd0e       _AcpiDsLoad2BeginOp        c003010e f   AcpiSubsystem:dswload2.obj
 0001:000301ee       _AcpiDsLoad2EndOp          c00305ee f   AcpiSubsystem:dswload2.obj
 0001:000306e4       _AcpiExCreateAlias         c0030ae4 f   AcpiSubsystem:excreate.obj
 0001:00030787       _AcpiExCreateEvent         c0030b87 f   AcpiSubsystem:excreate.obj
 0001:00030811       _AcpiExCreateMethod        c0030c11 f   AcpiSubsystem:excreate.obj
 0001:000308c2       _AcpiExCreateMutex         c0030cc2 f   AcpiSubsystem:excreate.obj
 0001:0003096b       _AcpiExCreatePowerResource c0030d6b f   AcpiSubsystem:excreate.obj
 0001:00030a0d       _AcpiExCreateProcessor     c0030e0d f   AcpiSubsystem:excreate.obj
 0001:00030abf       _AcpiExCreateRegion        c0030ebf f   AcpiSubsystem:excreate.obj
 0001:00030c06       _AcpiExStore               c0031006 f   AcpiSubsystem:exstore.obj
 0001:0003109c       _AcpiExStoreObjectToNode   c003149c f   AcpiSubsystem:exstore.obj
 0001:00031380       _AcpiExConvertToBuffer     c0031780 f   AcpiSubsystem:exconvrt.obj
 0001:0003147e       _AcpiExConvertToInteger    c003187e f   AcpiSubsystem:exconvrt.obj
 0001:0003165e       _AcpiExConvertToString     c0031a5e f   AcpiSubsystem:exconvrt.obj
 0001:00031862       _AcpiExConvertToTargetType c0031c62 f   AcpiSubsystem:exconvrt.obj
 0001:000319d8       _AcpiNsLoadTable           c0031dd8 f   AcpiSubsystem:nsload.obj
 0001:00031b25       _AcpiRsDecodeBitmask       c0031f25 f   AcpiSubsystem:rsutils.obj
 0001:00031b57       _AcpiRsEncodeBitmask       c0031f57 f   AcpiSubsystem:rsutils.obj
 0001:00031b93       _AcpiRsGetAeiMethodData    c0031f93 f   AcpiSubsystem:rsutils.obj
 0001:00031c16       _AcpiRsGetCrsMethodData    c0032016 f   AcpiSubsystem:rsutils.obj
 0001:00031c99       _AcpiRsGetMethodData       c0032099 f   AcpiSubsystem:rsutils.obj
 0001:00031d1b       _AcpiRsGetPrsMethodData    c003211b f   AcpiSubsystem:rsutils.obj
 0001:00031d9e       _AcpiRsGetPrtMethodData    c003219e f   AcpiSubsystem:rsutils.obj
 0001:00031e21       _AcpiRsGetResourceSource   c0032221 f   AcpiSubsystem:rsutils.obj
 0001:00031ea2       _AcpiRsMoveData            c00322a2 f   AcpiSubsystem:rsutils.obj
 0001:00031f48       _AcpiRsSetResourceHeader   c0032348 f   AcpiSubsystem:rsutils.obj
 0001:00031f64       _AcpiRsSetResourceLength   c0032364 f   AcpiSubsystem:rsutils.obj
 0001:00031f96       _AcpiRsSetResourceSource   c0032396 f   AcpiSubsystem:rsutils.obj
 0001:00031fd2       _AcpiRsSetSrsMethodData    c00323d2 f   AcpiSubsystem:rsutils.obj
 0001:00032108       _AcpiHwLegacySleep         c0032508 f   AcpiSubsystem:hwsleep.obj
 0001:00032359       _AcpiHwLegacyWake          c0032759 f   AcpiSubsystem:hwsleep.obj
 0001:00032429       _AcpiHwLegacyWakePrep      c0032829 f   AcpiSubsystem:hwsleep.obj
 0001:000324e5       _AcpiHwExecuteSleepMethod  c00328e5 f   AcpiSubsystem:hwesleep.obj
 0001:00032567       _AcpiHwExtendedSleep       c0032967 f   AcpiSubsystem:hwesleep.obj
 0001:000326a5       _AcpiHwExtendedWake        c0032aa5 f   AcpiSubsystem:hwesleep.obj
 0001:0003271f       _AcpiHwExtendedWakePrep    c0032b1f f   AcpiSubsystem:hwesleep.obj
 0001:000327a2       _AcpiRsGetAmlLength        c0032ba2 f   AcpiSubsystem:rscalc.obj
 0001:00032958       _AcpiRsGetListLength       c0032d58 f   AcpiSubsystem:rscalc.obj
 0001:00032b9f       _AcpiRsGetPciRoutingTableLength c0032f9f f   AcpiSubsystem:rscalc.obj
 0001:00032cff       _AcpiRsConvertAmlToResources c00330ff f   AcpiSubsystem:rslist.obj
 0001:00032e70       _AcpiRsConvertResourcesToAml c0033270 f   AcpiSubsystem:rslist.obj
 0001:00033212       _AcpiDmDwordDescriptor     c0033612 f   AcpiSubsystem:dmresrcl.obj
 0001:00033261       _AcpiDmExtendedDescriptor  c0033661 f   AcpiSubsystem:dmresrcl.obj
 0001:000332b8       _AcpiDmFixedMemory32Descriptor c00336b8 f   AcpiSubsystem:dmresrcl.obj
 0001:00033322       _AcpiDmGenericRegisterDescriptor c0033722 f   AcpiSubsystem:dmresrcl.obj
 0001:000333df       _AcpiDmInterruptDescriptor c00337df f   AcpiSubsystem:dmresrcl.obj
 0001:00033549       _AcpiDmMemory24Descriptor  c0033949 f   AcpiSubsystem:dmresrcl.obj
 0001:0003359b       _AcpiDmMemory32Descriptor  c003399b f   AcpiSubsystem:dmresrcl.obj
 0001:000336e9       _AcpiDmQwordDescriptor     c0033ae9 f   AcpiSubsystem:dmresrcl.obj
 0001:000337ea       _AcpiDmVendorCommon        c0033bea f   AcpiSubsystem:dmresrcl.obj
 0001:0003384b       _AcpiDmVendorLargeDescriptor c0033c4b f   AcpiSubsystem:dmresrcl.obj
 0001:00033869       _AcpiDmWordDescriptor      c0033c69 f   AcpiSubsystem:dmresrcl.obj
 0001:00033e61       _AcpiDmGpioDescriptor      c0034261 f   AcpiSubsystem:dmresrcl2.obj
 0001:00033fcb       _AcpiDmSerialBusDescriptor c00343cb f   AcpiSubsystem:dmresrcl2.obj
 0001:00033feb       _AcpiDmDmaDescriptor       c00343eb f   AcpiSubsystem:dmresrcs.obj
 0001:00034059       _AcpiDmEndDependentDescriptor c0034459 f   AcpiSubsystem:dmresrcs.obj
 0001:00034085       _AcpiDmFixedDmaDescriptor  c0034485 f   AcpiSubsystem:dmresrcs.obj
 0001:000340e1       _AcpiDmFixedIoDescriptor   c00344e1 f   AcpiSubsystem:dmresrcs.obj
 0001:00034145       _AcpiDmIoDescriptor        c0034545 f   AcpiSubsystem:dmresrcs.obj
 0001:000341de       _AcpiDmIrqDescriptor       c00345de f   AcpiSubsystem:dmresrcs.obj
 0001:0003426e       _AcpiDmStartDependentDescriptor c003466e f   AcpiSubsystem:dmresrcs.obj
 0001:000342c5       _AcpiDmVendorSmallDescriptor c00346c5 f   AcpiSubsystem:dmresrcs.obj
 0001:000342e1       _AcpiUtConvertStringToUuid c00346e1 f   AcpiSubsystem:utuuid.obj
 0001:00034326       _AcpiExOpcode_0A_0T_1R     c0034726 f   AcpiSubsystem:exoparg1.obj
 0001:000343d8       _AcpiExOpcode_1A_0T_0R     c00347d8 f   AcpiSubsystem:exoparg1.obj
 0001:000344b7       _AcpiExOpcode_1A_0T_1R     c00348b7 f   AcpiSubsystem:exoparg1.obj
 0001:00034984       _AcpiExOpcode_1A_1T_0R     c0034d84 f   AcpiSubsystem:exoparg1.obj
 0001:00034a0e       _AcpiExOpcode_1A_1T_1R     c0034e0e f   AcpiSubsystem:exoparg1.obj
 0001:00034f90       _AcpiExOpcode_2A_0T_0R     c0035390 f   AcpiSubsystem:exoparg2.obj
 0001:0003504e       _AcpiExOpcode_2A_0T_1R     c003544e f   AcpiSubsystem:exoparg2.obj
 0001:000351a9       _AcpiExOpcode_2A_1T_1R     c00355a9 f   AcpiSubsystem:exoparg2.obj
 0001:00035520       _AcpiExOpcode_2A_2T_1R     c0035920 f   AcpiSubsystem:exoparg2.obj
 0001:0003564a       _AcpiExOpcode_3A_0T_0R     c0035a4a f   AcpiSubsystem:exoparg3.obj
 0001:00035756       _AcpiExOpcode_3A_1T_1R     c0035b56 f   AcpiSubsystem:exoparg3.obj
 0001:00035984       _AcpiExOpcode_6A_0T_1R     c0035d84 f   AcpiSubsystem:exoparg6.obj
 0001:00035b60       _AcpiDsExecBeginControlOp  c0035f60 f   AcpiSubsystem:dscontrol.obj
 0001:00035c1f       _AcpiDsExecEndControlOp    c003601f f   AcpiSubsystem:dscontrol.obj
 0001:00035f44       _AcpiDsEvalBankFieldOperands c0036344 f   AcpiSubsystem:dsopcode.obj
 0001:00036068       _AcpiDsEvalBufferFieldOperands c0036468 f   AcpiSubsystem:dsopcode.obj
 0001:000361b7       _AcpiDsEvalDataObjectOperands c00365b7 f   AcpiSubsystem:dsopcode.obj
 0001:00036316       _AcpiDsEvalRegionOperands  c0036716 f   AcpiSubsystem:dsopcode.obj
 0001:0003647b       _AcpiDsEvalTableRegionOperands c003687b f   AcpiSubsystem:dsopcode.obj
 0001:0003683f       _AcpiDsInitializeRegion    c0036c3f f   AcpiSubsystem:dsopcode.obj
 0001:000368b3       _AcpiExResolveOperands     c0036cb3 f   AcpiSubsystem:exresop.obj
 0001:00037160       _AcpiExPrepCommonFieldObject c0037560 f   AcpiSubsystem:exprep.obj
 0001:00037204       _AcpiExPrepFieldValue      c0037604 f   AcpiSubsystem:exprep.obj
 0001:000375fd       _AcpiExDoDebugObject       c00379fd f   AcpiSubsystem:exdebug.obj
 0001:000379b1       _AcpiExResolveObject       c0037db1 f   AcpiSubsystem:exstoren.obj
 0001:00037ab7       _AcpiExStoreObjectToObject c0037eb7 f   AcpiSubsystem:exstoren.obj
 0001:00037c27       _AcpiNsOneCompleteParse    c0038027 f   AcpiSubsystem:nsparse.obj
 0001:00037dee       _AcpiNsParseTable          c00381ee f   AcpiSubsystem:nsparse.obj
 0001:00037f78       _AcpiDsInitializeObjects   c0038378 f   AcpiSubsystem:dsinit.obj
 0001:00038145       _AcpiRsConvertAmlToResource c0038545 f   AcpiSubsystem:rsmisc.obj
 0001:0003864d       _AcpiRsConvertResourceToAml c0038a4d f   AcpiSubsystem:rsmisc.obj
 0001:000389f1       _AcpiRsGetAddressCommon    c0038df1 f   AcpiSubsystem:rsaddr.obj
 0001:00038a4c       _AcpiRsSetAddressCommon    c0038e4c f   AcpiSubsystem:rsaddr.obj
 0001:00038a96       _AcpiExConcatTemplate      c0038e96 f   AcpiSubsystem:exmisc.obj
 0001:00038bb5       _AcpiExDoConcatenate       c0038fb5 f   AcpiSubsystem:exmisc.obj
 0001:00038d7c       _AcpiExDoLogicalNumericOp  c003917c f   AcpiSubsystem:exmisc.obj
 0001:00038e11       _AcpiExDoLogicalOp         c0039211 f   AcpiSubsystem:exmisc.obj
 0001:00038fa2       _AcpiExDoMathOp            c00393a2 f   AcpiSubsystem:exmisc.obj
 0001:000390a5       _AcpiExGetObjectReference  c00394a5 f   AcpiSubsystem:exmisc.obj
 0001:00039314       _AcpiExLoadOp              c0039714 f   AcpiSubsystem:exconfig.obj
 0001:000396c2       _AcpiExLoadTableOp         c0039ac2 f   AcpiSubsystem:exconfig.obj
 0001:00039993       _AcpiExUnloadTable         c0039d93 f   AcpiSubsystem:exconfig.obj
 0001:00039ac3       _AcpiTbFindTable           c0039ec3 f   AcpiSubsystem:tbfind.obj
 0001:00039c9a       _AcpiExStoreBufferToBuffer c003a09a f   AcpiSubsystem:exstorob.obj
 0001:00039db8       _AcpiExStoreStringToString c003a1b8 f   AcpiSubsystem:exstorob.obj
 0001:00039ea0       __allmul                   c003a2a0 f   crtbase:llmul.obj
 0001:00039ee0       __aullshr                  c003a2e0 f   crtbase:ullshr.obj
 0001:00039f00       __allshl                   c003a300 f   crtbase:llshl.obj
 0001:00039f20       __ftoui3                   c003a320     crtbase:ftol3.obj
 0001:00039f2f       __ftoul3                   c003a32f f   crtbase:ftol3.obj
 0001:00039f3e       __ftol3                    c003a33e f   crtbase:ftol3.obj
 0001:00039f4b       __ftol3_NaN                c003a34b     crtbase:ftol3.obj
 0001:00039f63       __ftol3_work               c003a363     crtbase:ftol3.obj
 0001:00039fe9       __ftol3_common             c003a3e9 f   crtbase:ftol3.obj
 0001:0003a0ab       __ftol3_arg_error          c003a4ab f   crtbase:ftol3.obj
 0001:0003a0bd       __ftol3_except             c003a4bd f   crtbase:ftol3.obj
 0001:0003a0ff       __dtoui3                   c003a4ff f   crtbase:ftol3.obj
 0001:0003a10e       __dtoul3                   c003a50e f   crtbase:ftol3.obj
 0001:0003a11d       __dtol3                    c003a51d f   crtbase:ftol3.obj
 0001:0003a12a       __dtol3_NaN                c003a52a     crtbase:ftol3.obj
 0001:0003a147       __dtol3_work               c003a547     crtbase:ftol3.obj
 0001:0003a22c       __ultod3                   c003a62c f   crtbase:ftol3.obj
 0001:0003a2bd       __ltod3                    c003a6bd f   crtbase:ftol3.obj
 0001:0003a2f0       __alldiv                   c003a6f0 f   crtbase:lldiv.obj
 0001:0003a39a       __except1                  c003a79a f   crtbase:lldiv.obj
 0002:00000000       __imp__getHal@0            c003aa00     hal:Hal.dll
 0002:00000004       \177Hal_NULL_THUNK_DATA    c003aa04     hal:Hal.dll
 0002:00000008       __imp_?enableFancyStuff@@YAXXZ c003aa08     kcstdlib:kcstdlib.dll
 0002:0000000c       __imp_?getKout@@YGAAVostream@@XZ c003aa0c     kcstdlib:kcstdlib.dll
 0002:00000010       __imp_??6ostream@@QAEAAV0@PBD@Z c003aa10     kcstdlib:kcstdlib.dll
 0002:00000014       __imp_?fabs@@YANN@Z        c003aa14     kcstdlib:kcstdlib.dll
 0002:00000018       __imp_??6ostream@@QAEAAV0@I@Z c003aa18     kcstdlib:kcstdlib.dll
 0002:0000001c       __imp_??6ostream@@QAEAAV0@PBX@Z c003aa1c     kcstdlib:kcstdlib.dll
 0002:00000020       __imp_?debug_serial@@YAXPBD@Z c003aa20     kcstdlib:kcstdlib.dll
 0002:00000024       __imp_??6ostream@@QAEAAV0@PB_W@Z c003aa24     kcstdlib:kcstdlib.dll
 0002:00000028       __imp_?wstrlen@@YAIPB_W@Z  c003aa28     kcstdlib:kcstdlib.dll
 0002:0000002c       \177kcstdlib_NULL_THUNK_DATA c003aa2c     kcstdlib:kcstdlib.dll
 0002:00000030       ?__xc_a@@3PAP6AXXZA        c003aa30     msvc.obj
 0002:00000058       ?__xc_z@@3PAP6AXXZA        c003aa58     msvc.obj
 0002:0000005c       ?__xi_a@@3PAP6AHXZA        c003aa5c     msvc.obj
 0002:00000060       ?__xi_z@@3PAP6AHXZA        c003aa60     msvc.obj
 0002:00000174       ??_C@_0BK@KDJJJGBA@During?5OSL?5initialization?$AA@ c003ab74     AcpiSubsystem:utxfinit.obj
 0002:00000190       ??_C@_0CB@LHBBHJHF@During?5initialization?5of?5globals@ c003ab90     AcpiSubsystem:utxfinit.obj
 0002:000001b4       ??_C@_0BN@OFPAOEPE@During?5Global?5Mutex?5creation?$AA@ c003abb4     AcpiSubsystem:utxfinit.obj
 0002:000001d4       ??_C@_0CA@PEIMBDCI@During?5Namespace?5initialization?$AA@ c003abd4     AcpiSubsystem:utxfinit.obj
 0002:000001f4       ??_C@_0CF@KKGBOOJC@During?5OSI?5interfaces?5initializa@ c003abf4     AcpiSubsystem:utxfinit.obj
 0002:0000021c       ??_C@_0BP@IHMPJCPF@During?5Debugger?5initialization?$AA@ c003ac1c     AcpiSubsystem:utxfinit.obj
 0002:0000023c       ??_C@_0BN@HBHHKCPP@?$FLInit?$FN?5Going?5into?5ACPI?5mode?6?$AA@ c003ac3c     AcpiSubsystem:utxfinit.obj
 0002:0000025c       ??_C@_0BC@CJOGEGEM@AcpiEnable?5failed?$AA@ c003ac5c     AcpiSubsystem:utxfinit.obj
 0002:00000270       ??_C@_0BN@LHJILNC@Could?5not?5map?5the?5FACS?5table?$AA@ c003ac70     AcpiSubsystem:utxfinit.obj
 0002:00000290       ??_C@_0DC@KKIJCDPP@?$FLInit?$FN?5Installing?5default?5addres@ c003ac90     AcpiSubsystem:utxfinit.obj
 0002:000002c4       ??_C@_0CB@HMNPAKIG@?$FLInit?$FN?5Initializing?5ACPI?5events?6@ c003acc4     AcpiSubsystem:utxfinit.obj
 0002:000002e8       ??_C@_0CD@BDOGJEGD@?$FLInit?$FN?5Installing?5SCI?1GL?5handler@ c003ace8     AcpiSubsystem:utxfinit.obj
 0002:0000030c       ??_C@_0CI@NCFGJIPI@?$FLInit?$FN?5Executing?5_REG?5OpRegion?5m@ c003ad0c     AcpiSubsystem:utxfinit.obj
 0002:00000334       ??_C@_0DC@IIBDPOCJ@?$FLInit?$FN?5Completing?5Initialization@ c003ad34     AcpiSubsystem:utxfinit.obj
 0002:00000368       ??_C@_0CC@COFHBHFI@?$FLInit?$FN?5Initializing?5ACPI?5Devices@ c003ad68     AcpiSubsystem:utxfinit.obj
 0002:000003c0       ??_C@_08KPNDKLJK@RSD?5PTR?5?$AA@ c003adc0     AcpiSubsystem:tbxfroot.obj
 0002:000003cc       ??_C@_0CO@POADIAOH@Could?5not?5map?5memory?5at?50x?$CF8?48X?5@ c003adcc     AcpiSubsystem:tbxfroot.obj
 0002:000003fc       ??_C@_0BL@IFGNPANF@A?5valid?5RSDP?5was?5not?5found?$AA@ c003adfc     AcpiSubsystem:tbxfroot.obj
 0002:00000418       ??_C@_0CF@CCLCNBE@RSDP?5located?5at?5physical?5address@ c003ae18     AcpiSubsystem:tbxfroot.obj
 0002:00000440       ??_C@_0DJ@KIMJEKKI@Searched?5entire?5block?5from?5?$CFp?0?5v@ c003ae40     AcpiSubsystem:tbxfroot.obj
 0002:00000484       ??_C@_09CNDDEOHP@?9?9?9?9Entry?$AA@ c003ae84     AcpiSubsystem:utdebug.obj
 0002:00000490       ??_C@_09LKLKEHPN@?9?9?9?9Exit?9?$AA@ c003ae90     AcpiSubsystem:utdebug.obj
 0002:0000049c       ??_C@_0DC@HIPCILG@?6?$CK?$CK?$CK?$CK?5Context?5Switch?5from?5TID?5?$CFu@ c003ae9c     AcpiSubsystem:utdebug.obj
 0002:000004d0       ??_C@_0L@DKPMEMNG@?$CF9s?9?$CF04ld?5?$AA@ c003aed0     AcpiSubsystem:utdebug.obj
 0002:000004dc       ??_C@_0L@NGBMBNKF@?$CF?922?422s?3?5?$AA@ c003aedc     AcpiSubsystem:utdebug.obj
 0002:000004e8       ??_C@_03OFAPEBGM@?$CFs?6?$AA@ c003aee8     AcpiSubsystem:utdebug.obj
 0002:000004ec       ??_C@_06IKJDLJAH@?$CFs?5?$CFp?6?$AA@ c003aeec     AcpiSubsystem:utdebug.obj
 0002:000004f4       ??_C@_06IINFAHFO@?$CFs?5?$CFs?6?$AA@ c003aef4     AcpiSubsystem:utdebug.obj
 0002:000004fc       ??_C@_08GHGNOIJN@?$CFs?5?$CF08X?6?$AA@ c003aefc     AcpiSubsystem:utdebug.obj
 0002:00000508       ??_C@_0BK@JIDPNBED@?$CFs?5?$CK?$CK?$CK?$CKException?$CK?$CK?$CK?$CK?3?5?$CFs?6?$AA@ c003af08     AcpiSubsystem:utdebug.obj
 0002:00000524       ??_C@_0P@EABJFLFP@?$CFs?5?$CF8?48X?$CF8?48X?6?$AA@ c003af24     AcpiSubsystem:utdebug.obj
 0002:000005a4       ??_C@_0CM@OEMBAEDA@Thread?5?$CFu?5attempting?5to?5acquire?5@ c003afa4     AcpiSubsystem:utmutex.obj
 0002:000005d0       ??_C@_0BP@IAHCOMCC@Thread?5?$CFu?5acquired?5Mutex?5?$FL?$CFs?$FN?6?$AA@ c003afd0     AcpiSubsystem:utmutex.obj
 0002:000005f0       ??_C@_0CJ@PNNJKDLI@Thread?5?$CFu?5could?5not?5acquire?5Mute@ c003aff0     AcpiSubsystem:utmutex.obj
 0002:0000061c       ??_C@_0CA@LAJIIJMN@Thread?5?$CFu?5releasing?5Mutex?5?$FL?$CFs?$FN?6?$AA@ c003b01c     AcpiSubsystem:utmutex.obj
 0002:0000063c       ??_C@_0CN@PEBLHEAO@Mutex?5?$FL0x?$CFX?$FN?5is?5not?5acquired?0?5ca@ c003b03c     AcpiSubsystem:utmutex.obj
 0002:00000670       _AcpiGbl_Ctypes            c003b070     AcpiSubsystem:utclib.obj
 0002:00000834       ??_C@_0DF@EPHJNGCD@Invalid?5signature?50x?$CFX?5for?5ACPI?5@ c003b234     AcpiSubsystem:tbdata.obj
 0002:0000086c       ??_C@_04MFANEHND@?$DP?$DP?$DP?$DP?$AA@ c003b26c     AcpiSubsystem:tbdata.obj
 0002:00000874       ??_C@_0DC@JJLFGNPA@?$CF4?44s?50x?$CF8?48X?$CF8?48X?5Attempted?5tab@ c003b274     AcpiSubsystem:tbdata.obj
 0002:000008a8       ??_C@_0CK@FGKHLDNC@Resize?5of?5Root?5Table?5Array?5is?5no@ c003b2a8     AcpiSubsystem:tbdata.obj
 0002:000008d4       ??_C@_0CI@KOCLNJMI@Could?5not?5allocate?5new?5root?5tabl@ c003b2d4     AcpiSubsystem:tbdata.obj
 0002:000008fc       ??_C@_0BD@OMKFIPPJ@ACPI?5Tables?5freed?6?$AA@ c003b2fc     AcpiSubsystem:tbdata.obj
 0002:00000930       ??_C@_0EB@NEFGACBF@The?5DSDT?5has?5been?5corrupted?5or?5r@ c003b330     AcpiSubsystem:tbutils.obj
 0002:00000974       ??_C@_0CD@JDNAICIL@Could?5not?5copy?5DSDT?5of?5length?50x@ c003b374     AcpiSubsystem:tbutils.obj
 0002:00000998       ??_C@_0EC@DEAHMDAL@Forced?5DSDT?5copy?3?5length?50x?$CF05X?5@ c003b398     AcpiSubsystem:tbutils.obj
 0002:000009e0       ??_C@_0EI@DEBKPIJC@64?9bit?5Physical?5Address?5in?5XSDT?5@ c003b3e0     AcpiSubsystem:tbutils.obj
 0002:00000a28       ??_C@_0CH@LLGOACIO@Invalid?5table?5length?50x?$CFX?5in?5RSD@ c003b428     AcpiSubsystem:tbutils.obj
 0002:00000a50       _AcpiGbl_PreDefinedNames   c003b450     AcpiSubsystem:utglobal.obj
 0002:00000ab8       ??_C@_05EPMCMKIN@?2_S0_?$AA@ c003b4b8     AcpiSubsystem:utglobal.obj
 0002:00000ac0       ??_C@_05EOAAKALK@?2_S1_?$AA@ c003b4c0     AcpiSubsystem:utglobal.obj
 0002:00000ac8       ??_C@_05EMEGBOOD@?2_S2_?$AA@ c003b4c8     AcpiSubsystem:utglobal.obj
 0002:00000ad0       ??_C@_05ENIEHENE@?2_S3_?$AA@ c003b4d0     AcpiSubsystem:utglobal.obj
 0002:00000ad8       ??_C@_05EIMLGCFB@?2_S4_?$AA@ c003b4d8     AcpiSubsystem:utglobal.obj
 0002:00000ae0       ??_C@_05EJAJAIGG@?2_S5_?$AA@ c003b4e0     AcpiSubsystem:utglobal.obj
 0002:00000ae8       ??_C@_04ILLHNOLH@_S0W?$AA@ c003b4e8     AcpiSubsystem:utglobal.obj
 0002:00000af0       ??_C@_04IKHFLEIA@_S1W?$AA@ c003b4f0     AcpiSubsystem:utglobal.obj
 0002:00000af8       ??_C@_04IIDDAKNJ@_S2W?$AA@ c003b4f8     AcpiSubsystem:utglobal.obj
 0002:00000b00       ??_C@_04IJPBGAOO@_S3W?$AA@ c003b500     AcpiSubsystem:utglobal.obj
 0002:00000b08       ??_C@_04IMLOHGGL@_S4W?$AA@ c003b508     AcpiSubsystem:utglobal.obj
 0002:00000b10       ??_C@_04OLJKPFBC@_S1D?$AA@ c003b510     AcpiSubsystem:utglobal.obj
 0002:00000b18       ??_C@_04OJNMELEL@_S2D?$AA@ c003b518     AcpiSubsystem:utglobal.obj
 0002:00000b20       ??_C@_04OIBOCBHM@_S3D?$AA@ c003b520     AcpiSubsystem:utglobal.obj
 0002:00000b28       ??_C@_04ONFBDHPJ@_S4D?$AA@ c003b528     AcpiSubsystem:utglobal.obj
 0002:00000b30       ??_C@_04GEOPKFIM@_GPE?$AA@ c003b530     AcpiSubsystem:utglobal.obj
 0002:00000b38       ??_C@_04BKIIOEBP@_PR_?$AA@ c003b538     AcpiSubsystem:utglobal.obj
 0002:00000b40       ??_C@_04BEBLOIIB@_SB_?$AA@ c003b540     AcpiSubsystem:utglobal.obj
 0002:00000b48       ??_C@_04BIEOAHGA@_SI_?$AA@ c003b548     AcpiSubsystem:utglobal.obj
 0002:00000b50       ??_C@_04JLPJCCPA@_TZ_?$AA@ c003b550     AcpiSubsystem:utglobal.obj
 0002:00000b58       ??_C@_04HICKCCCI@_REV?$AA@ c003b558     AcpiSubsystem:utglobal.obj
 0002:00000b60       ??_C@_04BDDAMJOB@_OS_?$AA@ c003b560     AcpiSubsystem:utglobal.obj
 0002:00000b68       ??_C@_0BF@BPDEPEPO@Microsoft?5Windows?5NT?$AA@ c003b568     AcpiSubsystem:utglobal.obj
 0002:00000b80       ??_C@_04MBPOAFED@_GL_?$AA@ c003b580     AcpiSubsystem:utglobal.obj
 0002:00000b88       ??_C@_04PKIHMDG@_OSI?$AA@  c003b588     AcpiSubsystem:utglobal.obj
 0002:00000bfc       ??_C@_0CA@EADHPIGL@System?5is?5already?5in?5ACPI?5mode?6?$AA@ c003b5fc     AcpiSubsystem:evxfevnt.obj
 0002:00000c1c       ??_C@_0CC@IIKEIIKK@Could?5not?5transition?5to?5ACPI?5mod@ c003b61c     AcpiSubsystem:evxfevnt.obj
 0002:00000c40       ??_C@_0CE@BAOKIONE@Transition?5to?5ACPI?5mode?5successf@ c003b640     AcpiSubsystem:evxfevnt.obj
 0002:00000c64       ??_C@_0CN@DMNPIAPN@System?5is?5already?5in?5legacy?5?$CInon@ c003b664     AcpiSubsystem:evxfevnt.obj
 0002:00000c94       ??_C@_0CI@GIIAFHOL@Could?5not?5exit?5ACPI?5mode?5to?5lega@ c003b694     AcpiSubsystem:evxfevnt.obj
 0002:00000cbc       ??_C@_0BE@OKLBPBDF@ACPI?5mode?5disabled?6?$AA@ c003b6bc     AcpiSubsystem:evxfevnt.obj
 0002:00000cd0       ??_C@_0BK@GCJJGNFJ@Could?5not?5enable?5?$CFs?5event?$AA@ c003b6d0     AcpiSubsystem:evxfevnt.obj
 0002:00000cec       ??_C@_0BM@CAJLMMIF@Could?5not?5disable?5?$CFs?5events?$AA@ c003b6ec     AcpiSubsystem:evxfevnt.obj
 0002:00000d60       ??_C@_0CF@PFGOBBPB@ACPI?5Subsystem?5is?5already?5termin@ c003b760     AcpiSubsystem:utxface.obj
 0002:00000d88       ??_C@_0BO@MADHHDNM@Shutting?5down?5ACPI?5Subsystem?6?$AA@ c003b788     AcpiSubsystem:utxface.obj
 0002:00000db4       ??_C@_0N@HFMBIKJA@ACPI?5Error?3?5?$AA@ c003b7b4     AcpiSubsystem:utxferror.obj
 0002:00000dc4       ??_C@_0BA@IMDPOJBL@?5?$CI?$CF8?48X?1?$CFs?9?$CFu?$CJ?6?$AA@ c003b7c4     AcpiSubsystem:utxferror.obj
 0002:00000dd4       ??_C@_0BB@BOCEFCDH@ACPI?5Exception?3?5?$AA@ c003b7d4     AcpiSubsystem:utxferror.obj
 0002:00000de8       ??_C@_0BF@NNFLNCCD@ACPI?5Exception?3?5?$CFs?0?5?$AA@ c003b7e8     AcpiSubsystem:utxferror.obj
 0002:00000e00       ??_C@_0P@HCHEAOAD@ACPI?5Warning?3?5?$AA@ c003b800     AcpiSubsystem:utxferror.obj
 0002:00000e10       ??_C@_06GLFELKBG@ACPI?3?5?$AA@ c003b810     AcpiSubsystem:utxferror.obj
 0002:00000e18       ??_C@_0BI@HFGBKPDJ@ACPI?5BIOS?5Error?5?$CIbug?$CJ?3?5?$AA@ c003b818     AcpiSubsystem:utxferror.obj
 0002:00000e30       ??_C@_0BK@CBCGHMHD@ACPI?5BIOS?5Warning?5?$CIbug?$CJ?3?5?$AA@ c003b830     AcpiSubsystem:utxferror.obj
 0002:00000e6c       ??_C@_0CL@KEBNDHGK@No?5SMI_CMD?5in?5FADT?0?5mode?5transit@ c003b86c     AcpiSubsystem:hwacpi.obj
 0002:00000e98       ??_C@_0EM@MBPHMEJI@No?5ACPI?5mode?5transition?5supporte@ c003b898     AcpiSubsystem:hwacpi.obj
 0002:00000ee4       ??_C@_0CA@KAHNDPGL@Attempting?5to?5enable?5ACPI?5mode?6?$AA@ c003b8e4     AcpiSubsystem:hwacpi.obj
 0002:00000f04       ??_C@_0CN@OFDAADAC@Attempting?5to?5enable?5Legacy?5?$CInon@ c003b904     AcpiSubsystem:hwacpi.obj
 0002:00000f34       ??_C@_0CB@BFEEFPDH@Could?5not?5write?5ACPI?5mode?5change@ c003b934     AcpiSubsystem:hwacpi.obj
 0002:00000f58       ??_C@_0BO@JEHIHNGG@Mode?5?$CFX?5successfully?5enabled?6?$AA@ c003b958     AcpiSubsystem:hwacpi.obj
 0002:00000f78       ??_C@_0BO@JNDHILBK@Hardware?5did?5not?5change?5modes?$AA@ c003b978     AcpiSubsystem:hwacpi.obj
 0002:00000fec       ??_C@_0N@MEKDBOKB@Windows?52000?$AA@ c003b9ec     AcpiSubsystem:utosi.obj
 0002:00000ffc       ??_C@_0N@NNLICPOA@Windows?52001?$AA@ c003b9fc     AcpiSubsystem:utosi.obj
 0002:0000100c       ??_C@_0BB@IDIIGMHG@Windows?52001?5SP1?$AA@ c003ba0c     AcpiSubsystem:utosi.obj
 0002:00001020       ??_C@_0P@BCBHPFF@Windows?52001?41?$AA@ c003ba20     AcpiSubsystem:utosi.obj
 0002:00001030       ??_C@_0BB@KIKFDPLF@Windows?52001?5SP2?$AA@ c003ba30     AcpiSubsystem:utosi.obj
 0002:00001044       ??_C@_0BD@OKHOFDMC@Windows?52001?41?5SP1?$AA@ c003ba44     AcpiSubsystem:utosi.obj
 0002:00001058       ??_C@_0N@JCPJLJCH@Windows?52006?$AA@ c003ba58     AcpiSubsystem:utosi.obj
 0002:00001068       ??_C@_0P@JMPGEHOM@Windows?52006?41?$AA@ c003ba68     AcpiSubsystem:utosi.obj
 0002:00001078       ??_C@_0BB@JOINFMMO@Windows?52006?5SP1?$AA@ c003ba78     AcpiSubsystem:utosi.obj
 0002:0000108c       ??_C@_0BB@LFKAAPAN@Windows?52006?5SP2?$AA@ c003ba8c     AcpiSubsystem:utosi.obj
 0002:000010a0       ??_C@_0N@BFGBKFOI@Windows?52009?$AA@ c003baa0     AcpiSubsystem:utosi.obj
 0002:000010b0       ??_C@_0N@PHFHBGBE@Windows?52012?$AA@ c003bab0     AcpiSubsystem:utosi.obj
 0002:000010c0       ??_C@_0N@OOEMCHFF@Windows?52013?$AA@ c003bac0     AcpiSubsystem:utosi.obj
 0002:000010d0       ??_C@_0N@LIBGIAND@Windows?52015?$AA@ c003bad0     AcpiSubsystem:utosi.obj
 0002:000010e0       ??_C@_0CC@ONCHIMLP@Extended?5Address?5Space?5Descripto@ c003bae0     AcpiSubsystem:utosi.obj
 0002:00001104       ??_C@_0O@PLCGGNIC@Module?5Device?$AA@ c003bb04     AcpiSubsystem:utosi.obj
 0002:00001114       ??_C@_0BB@GIBGBIIA@Processor?5Device?$AA@ c003bb14     AcpiSubsystem:utosi.obj
 0002:00001128       ??_C@_0BC@NHHJCHCD@3?40?5Thermal?5Model?$AA@ c003bb28     AcpiSubsystem:utosi.obj
 0002:0000113c       ??_C@_0BE@CPPEEBBG@3?40?5_SCP?5Extensions?$AA@ c003bb3c     AcpiSubsystem:utosi.obj
 0002:00001150       ??_C@_0BM@JFNELCAF@Processor?5Aggregator?5Device?$AA@ c003bb50     AcpiSubsystem:utosi.obj
 0002:0000116c       ??_C@_04LKOGMCLF@not?5?$AA@ c003bb6c     AcpiSubsystem:utosi.obj
 0002:00001171       ??_C@_00CNPNBAHC@?$AA@     c003bb71     AcpiSubsystem:utosi.obj
 0002:00001174       ??_C@_0CG@HBMDJHGF@ACPI?3?5BIOS?5_OSI?$CI?$CC?$CFs?$CC?$CJ?5is?5?$CFssuppo@ c003bb74     AcpiSubsystem:utosi.obj
 0002:000011e4       ??_C@_0CC@FNEBMCFO@Unable?5to?5initialize?5fixed?5event@ c003bbe4     AcpiSubsystem:evevent.obj
 0002:00001208       ??_C@_0CM@BFFOICJA@Unable?5to?5initialize?5general?5pur@ c003bc08     AcpiSubsystem:evevent.obj
 0002:00001234       ??_C@_0DD@OFNCKBOE@Unable?5to?5install?5System?5Control@ c003bc34     AcpiSubsystem:evevent.obj
 0002:00001268       ??_C@_0CJ@DOOEEBEF@Unable?5to?5initialize?5Global?5Lock@ c003bc68     AcpiSubsystem:evevent.obj
 0002:00001294       ??_C@_0CM@BFJDLGCF@Fixed?5Event?5Block?3?5Enable?5?$CF08X?5S@ c003bc94     AcpiSubsystem:evevent.obj
 0002:000012c0       ??_C@_0DK@FMKCJDPE@No?5installed?5handler?5for?5fixed?5e@ c003bcc0     AcpiSubsystem:evevent.obj
 0002:0000134c       ??_C@_0DL@OOHEAKKM@Found?5handler?5for?5region?5?$FL?$CFs?$FN?5in@ c003bd4c     AcpiSubsystem:evhandler.obj
 0002:00001388       ??_C@_0DH@KGBIEIJD@Creating?5object?5on?5Device?5?$CFp?5whi@ c003bd88     AcpiSubsystem:evhandler.obj
 0002:000013c0       ??_C@_0EF@LGGLOGPE@Installing?5address?5handler?5for?5r@ c003bdc0     AcpiSubsystem:evhandler.obj
 0002:000014a0       ??_C@_0CI@GFLDCLAB@No?5handler?5for?5Region?5?$FL?$CF4?44s?$FN?5?$CI?$CF@ c003bea0     AcpiSubsystem:evregion.obj
 0002:000014c8       ??_C@_0CE@JNCOOPHN@No?5init?5routine?5for?5region?$CI?$CFp?$CJ?5?$FL@ c003bec8     AcpiSubsystem:evregion.obj
 0002:000014ec       ??_C@_0CD@PJEGEEMJ@During?5region?5initialization?3?5?$FL?$CF@ c003beec     AcpiSubsystem:evregion.obj
 0002:00001510       ??_C@_0CK@MOFKEBGE@Handler?5?$CFp?5?$CI?$EA?$CFp?$CJ?5Address?5?$CF8?48X?$CF8@ c003bf10     AcpiSubsystem:evregion.obj
 0002:0000153c       ??_C@_0BN@OBKJJDME@Returned?5by?5Handler?5for?5?$FL?$CFs?$FN?$AA@ c003bf3c     AcpiSubsystem:evregion.obj
 0002:0000155c       ??_C@_0CM@CPJCFPOC@Removing?5Region?5?$CFp?5from?5address?5@ c003bf5c     AcpiSubsystem:evregion.obj
 0002:00001588       ??_C@_0BH@NAIJEMMC@from?5region?5_REG?0?5?$FL?$CFs?$FN?$AA@ c003bf88     AcpiSubsystem:evregion.obj
 0002:000015a0       ??_C@_0CH@HABDNKNP@from?5region?5handler?5?9?5deactivate@ c003bfa0     AcpiSubsystem:evregion.obj
 0002:000015c8       ??_C@_0CK@PKOAJBCB@Circular?5handler?5list?5in?5region?5@ c003bfc8     AcpiSubsystem:evregion.obj
 0002:000015f4       ??_C@_0DB@DOODFPII@Cannot?5remove?5region?5?$CFp?5from?5add@ c003bff4     AcpiSubsystem:evregion.obj
 0002:00001628       ??_C@_0DF@BBPJKBOK@Adding?5Region?5?$FL?$CF4?44s?$FN?5?$CFp?5to?5addr@ c003c028     AcpiSubsystem:evregion.obj
 0002:00001660       ??_C@_04CLPDABDI@_REG?$AA@ c003c060     AcpiSubsystem:evregion.obj
 0002:000016b8       ??_C@_0DI@HFDIEKGA@?$CK?$CK?$CK?$CK?5Starting?5initialization?5of?5@ c003c0b8     AcpiSubsystem:nsinit.obj
 0002:000016f0       ??_C@_0DI@OHFFGEBI@Completing?5Region?1Field?1Buffer?1P@ c003c0f0     AcpiSubsystem:nsinit.obj
 0002:00001728       ??_C@_0BF@OCEFKIGF@During?5WalkNamespace?$AA@ c003c128     AcpiSubsystem:nsinit.obj
 0002:00001740       ??_C@_0FE@OAAGJJLP@?5?5?5?5Initialized?5?$CFu?1?$CFu?5Regions?5?$CFu@ c003c140     AcpiSubsystem:nsinit.obj
 0002:00001794       ??_C@_0CO@FOOFFMNE@?$CFu?5Control?5Methods?5found?6?$CFu?5Op?5R@ c003c194     AcpiSubsystem:nsinit.obj
 0002:000017c8       ??_C@_0FA@JIEKDHCC@Initializing?5Device?1Processor?1Th@ c003c1c8     AcpiSubsystem:nsinit.obj
 0002:00001818       ??_C@_04DODNBDMJ@_INI?$AA@ c003c218     AcpiSubsystem:nsinit.obj
 0002:00001820       ??_C@_0FB@CPNIMHOL@?5?5?5?5Executed?5?$CFu?5_INI?5methods?5req@ c003c220     AcpiSubsystem:nsinit.obj
 0002:00001874       ??_C@_0BN@GILCBGJ@During?5device?5initialization?$AA@ c003c274     AcpiSubsystem:nsinit.obj
 0002:00001894       ??_C@_0CN@FGJNKMBG@Could?5not?5execute?5arguments?5for?5@ c003c294     AcpiSubsystem:nsinit.obj
 0002:000018c4       ??_C@_04NIPBAIJM@_STA?$AA@ c003c2c4     AcpiSubsystem:nsinit.obj
 0002:000018cc       ??_C@_0BJ@OBPFJGDF@during?5?$CFs?4_INI?5execution?$AA@ c003c2cc     AcpiSubsystem:nsinit.obj
 0002:00001914       ??_C@_0CM@BBJILCLH@Entering?5predefined?5entries?5into@ c003c314     AcpiSubsystem:nsaccess.obj
 0002:00001940       ??_C@_0CE@KNBDPKNN@Could?5not?5create?5predefined?5name@ c003c340     AcpiSubsystem:nsaccess.obj
 0002:00001964       ??_C@_0CB@NAAJCPJK@Could?5not?5override?5predefined?5?$CFs@ c003c364     AcpiSubsystem:nsaccess.obj
 0002:00001988       ??_C@_0CE@FBNPJEMI@Unsupported?5initial?5type?5value?50@ c003c388     AcpiSubsystem:nsaccess.obj
 0002:000019ac       ??_C@_05GIEDDLLO@?2_GPE?$AA@ c003c3ac     AcpiSubsystem:nsaccess.obj
 0002:000019b4       ??_C@_0CJ@PGMEAEHN@Null?5scope?5prefix?0?5using?5root?5no@ c003c3b4     AcpiSubsystem:nsaccess.obj
 0002:000019e0       ??_C@_0CA@DECDANLJ@?$CFp?5is?5not?5a?5namespace?5node?5?$FL?$CFs?$FN?$AA@ c003c3e0     AcpiSubsystem:nsaccess.obj
 0002:00001a00       ??_C@_0CJ@EADHEMNI@Null?5Pathname?5?$CIZero?5segments?$CJ?0?5F@ c003c400     AcpiSubsystem:nsaccess.obj
 0002:00001a2c       ??_C@_0CB@KIGOGIKH@Path?5is?5absolute?5from?5root?5?$FL?$CFp?$FN?6@ c003c42c     AcpiSubsystem:nsaccess.obj
 0002:00001a50       ??_C@_0DB@DAHDDMF@Searching?5relative?5to?5prefix?5sco@ c003c450     AcpiSubsystem:nsaccess.obj
 0002:00001a88       ??_C@_0EF@ILAGIIFM@?$CFs?3?5Path?5has?5too?5many?5parent?5pre@ c003c488     AcpiSubsystem:nsaccess.obj
 0002:00001ad0       ??_C@_0CP@FPFIIHMH@Search?5scope?5is?5?$FL?$CF4?44s?$FN?0?5path?5ha@ c003c4d0     AcpiSubsystem:nsaccess.obj
 0002:00001b00       ??_C@_0DF@IIPMNHBH@Prefix?9only?5Pathname?5?$CIZero?5name?5@ c003c500     AcpiSubsystem:nsaccess.obj
 0002:00001b38       ??_C@_0CG@INBCKHAA@Dual?5Pathname?5?$CI2?5segments?0?5Flags@ c003c538     AcpiSubsystem:nsaccess.obj
 0002:00001b60       ??_C@_0CI@FPLEEJBL@Multi?5Pathname?5?$CI?$CFu?5Segments?0?5Fla@ c003c560     AcpiSubsystem:nsaccess.obj
 0002:00001b88       ??_C@_0CH@GDIKCNCL@Simple?5Pathname?5?$CI1?5segment?0?5Flag@ c003c588     AcpiSubsystem:nsaccess.obj
 0002:00001bb0       ??_C@_0CM@NLAMIKGI@Name?5?$FL?$CF4?44s?$FN?5not?5found?5in?5scope?5@ c003c5b0     AcpiSubsystem:nsaccess.obj
 0002:00001bdc       ??_C@_0DK@PHLHHLGA@NsLookup?3?5Type?5mismatch?5on?5?$CF4?44s@ c003c5dc     AcpiSubsystem:nsaccess.obj
 0002:00001c58       ??_C@_0BC@OAFDLMIM@?$CFs?5?$FL?$CFp?$FN?5Value?5?$CFp?6?$AA@ c003c658     AcpiSubsystem:nseval.obj
 0002:00001c6c       ??_C@_0CG@CKLDIPJN@Excess?5arguments?5?$CI?$CFu?$CJ?5?9?5using?5on@ c003c66c     AcpiSubsystem:nseval.obj
 0002:00001c94       ??_C@_0DE@DKONGB@?$CFs?3?5Evaluation?5of?5object?5type?5?$FL?$CF@ c003c694     AcpiSubsystem:nseval.obj
 0002:00001cc8       ??_C@_0CG@ONBMHIN@?$CFs?3?5Method?5has?5no?5attached?5sub?9o@ c003c6c8     AcpiSubsystem:nseval.obj
 0002:00001cf0       ??_C@_0DG@CADBPBPD@?$CK?$CK?$CK?$CK?5Execute?5method?5?$FL?$CFs?$FN?5at?5AML?5@ c003c6f0     AcpiSubsystem:nseval.obj
 0002:00001d28       ??_C@_0BJ@PDHFIDMF@Returned?5object?5?$CFp?5?$FL?$CFs?$FN?6?$AA@ c003c728     AcpiSubsystem:nseval.obj
 0002:00001d44       ??_C@_0CL@EHHAJHA@?$CK?$CK?$CK?5Completed?5evaluation?5of?5obje@ c003c744     AcpiSubsystem:nseval.obj
 0002:00001d70       ??_C@_0DH@BHOJBHBH@Executed?5?$CFu?5blocks?5of?5module?9lev@ c003c770     AcpiSubsystem:nseval.obj
 0002:00001da8       ??_C@_0CC@BMMAODD@Executed?5module?9level?5code?5at?5?$CFp@ c003c7a8     AcpiSubsystem:nseval.obj
 0002:00001de4       ??_C@_04KHHOGGIJ@?$CF1c?5?$AA@ c003c7e4     AcpiSubsystem:dbxface.obj
 0002:00001dec       ??_C@_0BL@JCOIGICC@While?5parsing?5command?5line?$AA@ c003c7ec     AcpiSubsystem:dbxface.obj
 0002:00001e08       ??_C@_0BO@CLHKLNMI@?$CK?$CK?$CKBreak?$CK?$CK?$CK?5at?5AML?5offset?5?$CFX?6?$AA@ c003c808     AcpiSubsystem:dbxface.obj
 0002:00001e28       ??_C@_0CH@JHJAPKGE@?$CK?$CK?$CKUserBreakpoint?$CK?$CK?$CK?5at?5AML?5offs@ c003c828     AcpiSubsystem:dbxface.obj
 0002:00001e50       ??_C@_0CJ@OHPMDLBG@?6?$FLAmlDebug?$FN?5Next?5AML?5Opcode?5to?5e@ c003c850     AcpiSubsystem:dbxface.obj
 0002:00001e7c       ??_C@_0CL@CMINDJDO@Predicate?5?$DN?5?$FLTrue?$FN?0?5IF?5block?5was@ c003c87c     AcpiSubsystem:dbxface.obj
 0002:00001ea8       ??_C@_0CI@FCFDMGN@Predicate?5?$DN?5?$FLFalse?$FN?0?5Skipping?5IF@ c003c8a8     AcpiSubsystem:dbxface.obj
 0002:00001ed0       ??_C@_0CO@CIFANAAO@Predicate?5?$DN?5?$FLFalse?$FN?0?5ELSE?5block?5@ c003c8d0     AcpiSubsystem:dbxface.obj
 0002:00001f00       ??_C@_0BO@JKIOIJHM@Could?5not?5get?5debugger?5mutex?6?$AA@ c003c900     AcpiSubsystem:dbxface.obj
 0002:00001f20       ??_C@_0CA@OPCNICHD@Could?5not?5start?5debugger?5thread?$AA@ c003c920     AcpiSubsystem:dbxface.obj
 0002:00001f48       ??_C@_0BJ@CGBLBPHF@?$CF?94?44s?50x?$CF8?48X?$CF8?48X?5?$CF06X?$AA@ c003c948     AcpiSubsystem:tbprint.obj
 0002:00001f64       ??_C@_0CG@IHPOOEIB@RSDP?50x?$CF8?48X?$CF8?48X?5?$CF06X?5?$CIv?$CF?42d?5?$CF?9@ c003c964     AcpiSubsystem:tbprint.obj
 0002:00001f90       ??_C@_0EA@NOELHAIN@?$CF?94?44s?50x?$CF8?48X?$CF8?48X?5?$CF06X?5?$CIv?$CF?42d?5@ c003c990     AcpiSubsystem:tbprint.obj
 0002:00001fd0       ??_C@_0EB@PDNHIHEO@Incorrect?5checksum?5in?5table?5?$FL?$CF4?4@ c003c9d0     AcpiSubsystem:tbprint.obj
 0002:00002198       ??_C@_05OBAPBDGL@AE_OK?$AA@ c003cb98     AcpiSubsystem:utexcep.obj
 0002:000021a0       ??_C@_08OLPGJMLE@AE_ERROR?$AA@ c003cba0     AcpiSubsystem:utexcep.obj
 0002:000021ac       ??_C@_0BC@JINIPNCM@AE_NO_ACPI_TABLES?$AA@ c003cbac     AcpiSubsystem:utexcep.obj
 0002:000021c0       ??_C@_0BA@HGCJFKIC@AE_NO_NAMESPACE?$AA@ c003cbc0     AcpiSubsystem:utexcep.obj
 0002:000021d0       ??_C@_0N@MDFEEFMI@AE_NO_MEMORY?$AA@ c003cbd0     AcpiSubsystem:utexcep.obj
 0002:000021e0       ??_C@_0N@EHNPHEEE@AE_NOT_FOUND?$AA@ c003cbe0     AcpiSubsystem:utexcep.obj
 0002:000021f0       ??_C@_0N@FHHIIHCN@AE_NOT_EXIST?$AA@ c003cbf0     AcpiSubsystem:utexcep.obj
 0002:00002200       ??_C@_0BC@KJMMOBPP@AE_ALREADY_EXISTS?$AA@ c003cc00     AcpiSubsystem:utexcep.obj
 0002:00002214       ??_C@_07OCFLOMK@AE_TYPE?$AA@ c003cc14     AcpiSubsystem:utexcep.obj
 0002:0000221c       ??_C@_0P@LCAACJFD@AE_NULL_OBJECT?$AA@ c003cc1c     AcpiSubsystem:utexcep.obj
 0002:0000222c       ??_C@_0O@KMMNEPLB@AE_NULL_ENTRY?$AA@ c003cc2c     AcpiSubsystem:utexcep.obj
 0002:0000223c       ??_C@_0BD@FAHLAIFN@AE_BUFFER_OVERFLOW?$AA@ c003cc3c     AcpiSubsystem:utexcep.obj
 0002:00002250       ??_C@_0BC@FEOJPKCP@AE_STACK_OVERFLOW?$AA@ c003cc50     AcpiSubsystem:utexcep.obj
 0002:00002264       ??_C@_0BD@MFEPEJKM@AE_STACK_UNDERFLOW?$AA@ c003cc64     AcpiSubsystem:utexcep.obj
 0002:00002278       ??_C@_0BD@IGFFMNIC@AE_NOT_IMPLEMENTED?$AA@ c003cc78     AcpiSubsystem:utexcep.obj
 0002:0000228c       ??_C@_0L@LKIHBFJD@AE_SUPPORT?$AA@ c003cc8c     AcpiSubsystem:utexcep.obj
 0002:00002298       ??_C@_08IBGEPHBC@AE_LIMIT?$AA@ c003cc98     AcpiSubsystem:utexcep.obj
 0002:000022a4       ??_C@_07EKMCNJHG@AE_TIME?$AA@ c003cca4     AcpiSubsystem:utexcep.obj
 0002:000022ac       ??_C@_0BE@FGDBKHMM@AE_ACQUIRE_DEADLOCK?$AA@ c003ccac     AcpiSubsystem:utexcep.obj
 0002:000022c0       ??_C@_0BE@FOBDECPM@AE_RELEASE_DEADLOCK?$AA@ c003ccc0     AcpiSubsystem:utexcep.obj
 0002:000022d4       ??_C@_0BA@PPOMDOJD@AE_NOT_ACQUIRED?$AA@ c003ccd4     AcpiSubsystem:utexcep.obj
 0002:000022e4       ??_C@_0BE@HIPEDKOJ@AE_ALREADY_ACQUIRED?$AA@ c003cce4     AcpiSubsystem:utexcep.obj
 0002:000022f8       ??_C@_0BI@KNLEMKLH@AE_NO_HARDWARE_RESPONSE?$AA@ c003ccf8     AcpiSubsystem:utexcep.obj
 0002:00002310       ??_C@_0BC@JPCCIPIN@AE_NO_GLOBAL_LOCK?$AA@ c003cd10     AcpiSubsystem:utexcep.obj
 0002:00002324       ??_C@_0BA@PKLCJEBC@AE_ABORT_METHOD?$AA@ c003cd24     AcpiSubsystem:utexcep.obj
 0002:00002334       ??_C@_0BA@GDKIHKKP@AE_SAME_HANDLER?$AA@ c003cd34     AcpiSubsystem:utexcep.obj
 0002:00002344       ??_C@_0O@PFOADCGB@AE_NO_HANDLER?$AA@ c003cd44     AcpiSubsystem:utexcep.obj
 0002:00002354       ??_C@_0BC@JGFDFDLG@AE_OWNER_ID_LIMIT?$AA@ c003cd54     AcpiSubsystem:utexcep.obj
 0002:00002368       ??_C@_0BC@PMNNBAHK@AE_NOT_CONFIGURED?$AA@ c003cd68     AcpiSubsystem:utexcep.obj
 0002:0000237c       ??_C@_09FCELEONC@AE_ACCESS?$AA@ c003cd7c     AcpiSubsystem:utexcep.obj
 0002:00002388       ??_C@_0BB@GGMNEPFA@AE_BAD_PARAMETER?$AA@ c003cd88     AcpiSubsystem:utexcep.obj
 0002:0000239c       ??_C@_0BB@FKHHEGKA@AE_BAD_CHARACTER?$AA@ c003cd9c     AcpiSubsystem:utexcep.obj
 0002:000023b0       ??_C@_0BA@NBPLLLII@AE_BAD_PATHNAME?$AA@ c003cdb0     AcpiSubsystem:utexcep.obj
 0002:000023c0       ??_C@_0M@JECPJBCE@AE_BAD_DATA?$AA@ c003cdc0     AcpiSubsystem:utexcep.obj
 0002:000023cc       ??_C@_0BE@IPFKHDDI@AE_BAD_HEX_CONSTANT?$AA@ c003cdcc     AcpiSubsystem:utexcep.obj
 0002:000023e0       ??_C@_0BG@MIDKBGIL@AE_BAD_OCTAL_CONSTANT?$AA@ c003cde0     AcpiSubsystem:utexcep.obj
 0002:000023f8       ??_C@_0BI@BEMEOOAI@AE_BAD_DECIMAL_CONSTANT?$AA@ c003cdf8     AcpiSubsystem:utexcep.obj
 0002:00002410       ??_C@_0BF@HKJOKEC@AE_MISSING_ARGUMENTS?$AA@ c003ce10     AcpiSubsystem:utexcep.obj
 0002:00002428       ??_C@_0P@JBCHJANB@AE_BAD_ADDRESS?$AA@ c003ce28     AcpiSubsystem:utexcep.obj
 0002:00002438       ??_C@_0BB@HKCFDBKC@AE_BAD_SIGNATURE?$AA@ c003ce38     AcpiSubsystem:utexcep.obj
 0002:0000244c       ??_C@_0O@ELNDGGAE@AE_BAD_HEADER?$AA@ c003ce4c     AcpiSubsystem:utexcep.obj
 0002:0000245c       ??_C@_0BA@BIILNBAK@AE_BAD_CHECKSUM?$AA@ c003ce5c     AcpiSubsystem:utexcep.obj
 0002:0000246c       ??_C@_0N@HBAFKHEM@AE_BAD_VALUE?$AA@ c003ce6c     AcpiSubsystem:utexcep.obj
 0002:0000247c       ??_C@_0BI@DKLNCMJF@AE_INVALID_TABLE_LENGTH?$AA@ c003ce7c     AcpiSubsystem:utexcep.obj
 0002:00002494       ??_C@_0BC@KGKLJMBP@AE_AML_BAD_OPCODE?$AA@ c003ce94     AcpiSubsystem:utexcep.obj
 0002:000024a8       ??_C@_0BC@ILAINBHF@AE_AML_NO_OPERAND?$AA@ c003cea8     AcpiSubsystem:utexcep.obj
 0002:000024bc       ??_C@_0BE@CMBNMMAM@AE_AML_OPERAND_TYPE?$AA@ c003cebc     AcpiSubsystem:utexcep.obj
 0002:000024d0       ??_C@_0BF@JPCFNMLI@AE_AML_OPERAND_VALUE?$AA@ c003ced0     AcpiSubsystem:utexcep.obj
 0002:000024e8       ??_C@_0BL@BJKBHBGD@AE_AML_UNINITIALIZED_LOCAL?$AA@ c003cee8     AcpiSubsystem:utexcep.obj
 0002:00002504       ??_C@_0BJ@BDDHFJEF@AE_AML_UNINITIALIZED_ARG?$AA@ c003cf04     AcpiSubsystem:utexcep.obj
 0002:00002520       ??_C@_0BN@INAHBINF@AE_AML_UNINITIALIZED_ELEMENT?$AA@ c003cf20     AcpiSubsystem:utexcep.obj
 0002:00002540       ??_C@_0BI@COHNKOEN@AE_AML_NUMERIC_OVERFLOW?$AA@ c003cf40     AcpiSubsystem:utexcep.obj
 0002:00002558       ??_C@_0BE@ODNDBIBN@AE_AML_REGION_LIMIT?$AA@ c003cf58     AcpiSubsystem:utexcep.obj
 0002:0000256c       ??_C@_0BE@NFHDHJIM@AE_AML_BUFFER_LIMIT?$AA@ c003cf6c     AcpiSubsystem:utexcep.obj
 0002:00002580       ??_C@_0BF@PAHJLGEL@AE_AML_PACKAGE_LIMIT?$AA@ c003cf80     AcpiSubsystem:utexcep.obj
 0002:00002598       ??_C@_0BG@PJELJHDF@AE_AML_DIVIDE_BY_ZERO?$AA@ c003cf98     AcpiSubsystem:utexcep.obj
 0002:000025b0       ??_C@_0BA@CIMDLPJI@AE_AML_BAD_NAME?$AA@ c003cfb0     AcpiSubsystem:utexcep.obj
 0002:000025c0       ??_C@_0BG@NBCCMIJD@AE_AML_NAME_NOT_FOUND?$AA@ c003cfc0     AcpiSubsystem:utexcep.obj
 0002:000025d8       ??_C@_0BA@JDIOKGCC@AE_AML_INTERNAL?$AA@ c003cfd8     AcpiSubsystem:utexcep.obj
 0002:000025e8       ??_C@_0BI@IGMDDMCI@AE_AML_INVALID_SPACE_ID?$AA@ c003cfe8     AcpiSubsystem:utexcep.obj
 0002:00002600       ??_C@_0BE@HOGNAHOK@AE_AML_STRING_LIMIT?$AA@ c003d000     AcpiSubsystem:utexcep.obj
 0002:00002614       ??_C@_0BH@OKOBGBEM@AE_AML_NO_RETURN_VALUE?$AA@ c003d014     AcpiSubsystem:utexcep.obj
 0002:0000262c       ??_C@_0BE@DJLCLOMO@AE_AML_METHOD_LIMIT?$AA@ c003d02c     AcpiSubsystem:utexcep.obj
 0002:00002640       ??_C@_0BB@OOHNPDEB@AE_AML_NOT_OWNER?$AA@ c003d040     AcpiSubsystem:utexcep.obj
 0002:00002654       ??_C@_0BD@BIFMCDBD@AE_AML_MUTEX_ORDER?$AA@ c003d054     AcpiSubsystem:utexcep.obj
 0002:00002668       ??_C@_0BK@FDAGLEMK@AE_AML_MUTEX_NOT_ACQUIRED?$AA@ c003d068     AcpiSubsystem:utexcep.obj
 0002:00002684       ??_C@_0BN@ONMIFGCB@AE_AML_INVALID_RESOURCE_TYPE?$AA@ c003d084     AcpiSubsystem:utexcep.obj
 0002:000026a4       ??_C@_0BF@KCCFIGMH@AE_AML_INVALID_INDEX?$AA@ c003d0a4     AcpiSubsystem:utexcep.obj
 0002:000026bc       ??_C@_0BG@GLGAPHBJ@AE_AML_REGISTER_LIMIT?$AA@ c003d0bc     AcpiSubsystem:utexcep.obj
 0002:000026d4       ??_C@_0BA@BJMBKDJP@AE_AML_NO_WHILE?$AA@ c003d0d4     AcpiSubsystem:utexcep.obj
 0002:000026e4       ??_C@_0BB@PJHGPBLK@AE_AML_ALIGNMENT?$AA@ c003d0e4     AcpiSubsystem:utexcep.obj
 0002:000026f8       ??_C@_0BL@EJHJMLPF@AE_AML_NO_RESOURCE_END_TAG?$AA@ c003d0f8     AcpiSubsystem:utexcep.obj
 0002:00002714       ??_C@_0BK@JPDPGMEO@AE_AML_BAD_RESOURCE_VALUE?$AA@ c003d114     AcpiSubsystem:utexcep.obj
 0002:00002730       ??_C@_0BK@NNHAJIBC@AE_AML_CIRCULAR_REFERENCE?$AA@ c003d130     AcpiSubsystem:utexcep.obj
 0002:0000274c       ??_C@_0BL@GMFABCFD@AE_AML_BAD_RESOURCE_LENGTH?$AA@ c003d14c     AcpiSubsystem:utexcep.obj
 0002:00002768       ??_C@_0BH@HMBGODKD@AE_AML_ILLEGAL_ADDRESS?$AA@ c003d168     AcpiSubsystem:utexcep.obj
 0002:00002780       ??_C@_0BF@BCBOJCNB@AE_AML_INFINITE_LOOP?$AA@ c003d180     AcpiSubsystem:utexcep.obj
 0002:00002798       ??_C@_0BF@GEIGFIMD@AE_CTRL_RETURN_VALUE?$AA@ c003d198     AcpiSubsystem:utexcep.obj
 0002:000027b0       ??_C@_0BA@NFCAKKBE@AE_CTRL_PENDING?$AA@ c003d1b0     AcpiSubsystem:utexcep.obj
 0002:000027c0       ??_C@_0BC@GMBKOLLO@AE_CTRL_TERMINATE?$AA@ c003d1c0     AcpiSubsystem:utexcep.obj
 0002:000027d4       ??_C@_0N@KLLLBMCF@AE_CTRL_TRUE?$AA@ c003d1d4     AcpiSubsystem:utexcep.obj
 0002:000027e4       ??_C@_0O@JKEFFNAO@AE_CTRL_FALSE?$AA@ c003d1e4     AcpiSubsystem:utexcep.obj
 0002:000027f4       ??_C@_0O@IICDNKCK@AE_CTRL_DEPTH?$AA@ c003d1f4     AcpiSubsystem:utexcep.obj
 0002:00002804       ??_C@_0M@MCNHIAMO@AE_CTRL_END?$AA@ c003d204     AcpiSubsystem:utexcep.obj
 0002:00002810       ??_C@_0BB@CKDICBC@AE_CTRL_TRANSFER?$AA@ c003d210     AcpiSubsystem:utexcep.obj
 0002:00002824       ??_C@_0O@NKLNOHFA@AE_CTRL_BREAK?$AA@ c003d224     AcpiSubsystem:utexcep.obj
 0002:00002834       ??_C@_0BB@IPPIFIGO@AE_CTRL_CONTINUE?$AA@ c003d234     AcpiSubsystem:utexcep.obj
 0002:00002848       ??_C@_0N@BGADGECA@AE_CTRL_SKIP?$AA@ c003d248     AcpiSubsystem:utexcep.obj
 0002:00002858       ??_C@_0BH@JBJBIHAH@AE_CTRL_PARSE_CONTINUE?$AA@ c003d258     AcpiSubsystem:utexcep.obj
 0002:00002870       ??_C@_0BG@LNANKLIG@AE_CTRL_PARSE_PENDING?$AA@ c003d270     AcpiSubsystem:utexcep.obj
 0002:00002888       ??_C@_0CA@HAPNOHJM@Unknown?5exception?5code?3?50x?$CF8?48X?$AA@ c003d288     AcpiSubsystem:utexcep.obj
 0002:000028a8       ??_C@_0BE@JENJPLOL@UNKNOWN_STATUS_CODE?$AA@ c003d2a8     AcpiSubsystem:utexcep.obj
 0002:000028bc       _AcpiGbl_NsProperties      c003d2bc     AcpiSubsystem:utdecode.obj
 0002:000028f4       ??_C@_0N@OONKJJEO@SystemMemory?$AA@ c003d2f4     AcpiSubsystem:utdecode.obj
 0002:00002904       ??_C@_08DMDBKLFO@SystemIO?$AA@ c003d304     AcpiSubsystem:utdecode.obj
 0002:00002910       ??_C@_0L@LOMIMFPF@PCI_Config?$AA@ c003d310     AcpiSubsystem:utdecode.obj
 0002:0000291c       ??_C@_0BA@NFJBDGLH@EmbeddedControl?$AA@ c003d31c     AcpiSubsystem:utdecode.obj
 0002:0000292c       ??_C@_05DHBKIMF@SMBus?$AA@ c003d32c     AcpiSubsystem:utdecode.obj
 0002:00002934       ??_C@_0L@GPNFCCML@SystemCMOS?$AA@ c003d334     AcpiSubsystem:utdecode.obj
 0002:00002940       ??_C@_0N@GDMCCAHD@PCIBARTarget?$AA@ c003d340     AcpiSubsystem:utdecode.obj
 0002:00002950       ??_C@_04POMKNHKH@IPMI?$AA@ c003d350     AcpiSubsystem:utdecode.obj
 0002:00002958       ??_C@_0BB@ELEFLBHL@GeneralPurposeIo?$AA@ c003d358     AcpiSubsystem:utdecode.obj
 0002:0000296c       ??_C@_0BB@EFFJKECB@GenericSerialBus?$AA@ c003d36c     AcpiSubsystem:utdecode.obj
 0002:00002980       ??_C@_03LMDOAABO@PCC?$AA@  c003d380     AcpiSubsystem:utdecode.obj
 0002:00002984       ??_C@_08JFMFIGPJ@PM_Timer?$AA@ c003d384     AcpiSubsystem:utdecode.obj
 0002:00002990       ??_C@_0L@NBONFCEK@GlobalLock?$AA@ c003d390     AcpiSubsystem:utdecode.obj
 0002:0000299c       ??_C@_0M@EPOIIOFH@PowerButton?$AA@ c003d39c     AcpiSubsystem:utdecode.obj
 0002:000029a8       ??_C@_0M@MAOKGMAO@SleepButton?$AA@ c003d3a8     AcpiSubsystem:utdecode.obj
 0002:000029b4       ??_C@_0O@LKEIMBPG@RealTimeClock?$AA@ c003d3b4     AcpiSubsystem:utdecode.obj
 0002:000029c4       ??_C@_07BMFBCABB@Untyped?$AA@ c003d3c4     AcpiSubsystem:utdecode.obj
 0002:000029cc       ??_C@_07EDADKEAH@Integer?$AA@ c003d3cc     AcpiSubsystem:utdecode.obj
 0002:000029d4       ??_C@_06ENNEIMBA@String?$AA@ c003d3d4     AcpiSubsystem:utdecode.obj
 0002:000029dc       ??_C@_06LBMCOACO@Buffer?$AA@ c003d3dc     AcpiSubsystem:utdecode.obj
 0002:000029e4       ??_C@_07FEDAHNII@Package?$AA@ c003d3e4     AcpiSubsystem:utdecode.obj
 0002:000029ec       ??_C@_09BPDGJOEF@FieldUnit?$AA@ c003d3ec     AcpiSubsystem:utdecode.obj
 0002:000029f8       ??_C@_06OIEJKIHP@Device?$AA@ c003d3f8     AcpiSubsystem:utdecode.obj
 0002:00002a00       ??_C@_05GCNIINAF@Event?$AA@ c003d400     AcpiSubsystem:utdecode.obj
 0002:00002a08       ??_C@_06KPKMBBIM@Method?$AA@ c003d408     AcpiSubsystem:utdecode.obj
 0002:00002a10       ??_C@_05IBGOOFKP@Mutex?$AA@ c003d410     AcpiSubsystem:utdecode.obj
 0002:00002a18       ??_C@_06FLCJJPBG@Region?$AA@ c003d418     AcpiSubsystem:utdecode.obj
 0002:00002a20       ??_C@_05PMCMDMKN@Power?$AA@ c003d420     AcpiSubsystem:utdecode.obj
 0002:00002a28       ??_C@_09JOCICBA@Processor?$AA@ c003d428     AcpiSubsystem:utdecode.obj
 0002:00002a34       ??_C@_07GBNCFIAM@Thermal?$AA@ c003d434     AcpiSubsystem:utdecode.obj
 0002:00002a3c       ??_C@_0M@MGPMGKBB@BufferField?$AA@ c003d43c     AcpiSubsystem:utdecode.obj
 0002:00002a48       ??_C@_09GHCIKEAC@DdbHandle?$AA@ c003d448     AcpiSubsystem:utdecode.obj
 0002:00002a54       ??_C@_0M@KADHOIH@DebugObject?$AA@ c003d454     AcpiSubsystem:utdecode.obj
 0002:00002a60       ??_C@_0M@GFNHANLL@RegionField?$AA@ c003d460     AcpiSubsystem:utdecode.obj
 0002:00002a6c       ??_C@_09IAHFBIPO@BankField?$AA@ c003d46c     AcpiSubsystem:utdecode.obj
 0002:00002a78       ??_C@_0L@LBNHNKBK@IndexField?$AA@ c003d478     AcpiSubsystem:utdecode.obj
 0002:00002a84       ??_C@_09OGLAPBDF@Reference?$AA@ c003d484     AcpiSubsystem:utdecode.obj
 0002:00002a90       ??_C@_05NNNCCOHC@Alias?$AA@ c003d490     AcpiSubsystem:utdecode.obj
 0002:00002a98       ??_C@_0M@PGKBBJGF@MethodAlias?$AA@ c003d498     AcpiSubsystem:utdecode.obj
 0002:00002aa4       ??_C@_06HHNOBIIB@Notify?$AA@ c003d4a4     AcpiSubsystem:utdecode.obj
 0002:00002aac       ??_C@_0M@GCKIBDEG@AddrHandler?$AA@ c003d4ac     AcpiSubsystem:utdecode.obj
 0002:00002ab8       ??_C@_0N@GBEKIEGD@ResourceDesc?$AA@ c003d4b8     AcpiSubsystem:utdecode.obj
 0002:00002ac8       ??_C@_0M@FFJLPHKO@ResourceFld?$AA@ c003d4c8     AcpiSubsystem:utdecode.obj
 0002:00002ad4       ??_C@_05DFILDJHP@Scope?$AA@ c003d4d4     AcpiSubsystem:utdecode.obj
 0002:00002adc       ??_C@_05BHMELPJO@Extra?$AA@ c003d4dc     AcpiSubsystem:utdecode.obj
 0002:00002ae4       ??_C@_04DICKPMGH@Data?$AA@ c003d4e4     AcpiSubsystem:utdecode.obj
 0002:00002aec       ??_C@_07DJMIGIHO@Invalid?$AA@ c003d4ec     AcpiSubsystem:utdecode.obj
 0002:00002af4       ??_C@_0BB@MGNNEEEF@Not?5a?5Descriptor?$AA@ c003d4f4     AcpiSubsystem:utdecode.obj
 0002:00002b08       ??_C@_06LLFFOGID@Cached?$AA@ c003d508     AcpiSubsystem:utdecode.obj
 0002:00002b10       ??_C@_0O@OHAFELMH@State?9Generic?$AA@ c003d510     AcpiSubsystem:utdecode.obj
 0002:00002b20       ??_C@_0N@KHGNFCGL@State?9Update?$AA@ c003d520     AcpiSubsystem:utdecode.obj
 0002:00002b30       ??_C@_0O@HIPCIIKE@State?9Package?$AA@ c003d530     AcpiSubsystem:utdecode.obj
 0002:00002b40       ??_C@_0O@BJKKMEDM@State?9Control?$AA@ c003d540     AcpiSubsystem:utdecode.obj
 0002:00002b50       ??_C@_0BF@PGOPJMNA@State?9RootParseScope?$AA@ c003d550     AcpiSubsystem:utdecode.obj
 0002:00002b68       ??_C@_0BB@KBKHIMPE@State?9ParseScope?$AA@ c003d568     AcpiSubsystem:utdecode.obj
 0002:00002b7c       ??_C@_0BA@INAABEGI@State?9WalkScope?$AA@ c003d57c     AcpiSubsystem:utdecode.obj
 0002:00002b8c       ??_C@_0N@HNIGKFEP@State?9Result?$AA@ c003d58c     AcpiSubsystem:utdecode.obj
 0002:00002b9c       ??_C@_0N@GMLFLPDP@State?9Notify?$AA@ c003d59c     AcpiSubsystem:utdecode.obj
 0002:00002bac       ??_C@_0N@INKLHMIG@State?9Thread?$AA@ c003d5ac     AcpiSubsystem:utdecode.obj
 0002:00002bbc       ??_C@_04PHLAALHH@Walk?$AA@ c003d5bc     AcpiSubsystem:utdecode.obj
 0002:00002bc4       ??_C@_06CLGDLLKL@Parser?$AA@ c003d5c4     AcpiSubsystem:utdecode.obj
 0002:00002bcc       ??_C@_07JNGBNFFF@Operand?$AA@ c003d5cc     AcpiSubsystem:utdecode.obj
 0002:00002bd4       ??_C@_04OKAPPFIB@Node?$AA@ c003d5d4     AcpiSubsystem:utdecode.obj
 0002:00002bdc       ??_C@_05IEALKJIG@Local?$AA@ c003d5dc     AcpiSubsystem:utdecode.obj
 0002:00002be4       ??_C@_08EPNEGKPE@Argument?$AA@ c003d5e4     AcpiSubsystem:utdecode.obj
 0002:00002bf0       ??_C@_05IIFKBJO@RefOf?$AA@ c003d5f0     AcpiSubsystem:utdecode.obj
 0002:00002bf8       ??_C@_05FNNGFGLF@Index?$AA@ c003d5f8     AcpiSubsystem:utdecode.obj
 0002:00002c00       ??_C@_0N@HJKHKIGD@Named?5Object?$AA@ c003d600     AcpiSubsystem:utdecode.obj
 0002:00002c10       ??_C@_05GCIPIGEI@Debug?$AA@ c003d610     AcpiSubsystem:utdecode.obj
 0002:00002c18       ??_C@_0BF@CCOKINDK@ACPI_MTX_Interpreter?$AA@ c003d618     AcpiSubsystem:utdecode.obj
 0002:00002c30       ??_C@_0BD@JOLKJKDM@ACPI_MTX_Namespace?$AA@ c003d630     AcpiSubsystem:utdecode.obj
 0002:00002c44       ??_C@_0BA@DPLJHJIL@ACPI_MTX_Tables?$AA@ c003d644     AcpiSubsystem:utdecode.obj
 0002:00002c54       ??_C@_0BA@OFAOABAO@ACPI_MTX_Events?$AA@ c003d654     AcpiSubsystem:utdecode.obj
 0002:00002c64       ??_C@_0BA@CPMCGFCM@ACPI_MTX_Caches?$AA@ c003d664     AcpiSubsystem:utdecode.obj
 0002:00002c74       ??_C@_0BA@CFANIHMA@ACPI_MTX_Memory?$AA@ c003d674     AcpiSubsystem:utdecode.obj
 0002:00002c84       ??_C@_0BJ@MAMGGBFE@ACPI_MTX_CommandComplete?$AA@ c003d684     AcpiSubsystem:utdecode.obj
 0002:00002ca0       ??_C@_0BG@HEABFEJI@ACPI_MTX_CommandReady?$AA@ c003d6a0     AcpiSubsystem:utdecode.obj
 0002:00002cb8       ??_C@_09DBICONAL@Bus?5Check?$AA@ c003d6b8     AcpiSubsystem:utdecode.obj
 0002:00002cc4       ??_C@_0N@NEJNEABK@Device?5Check?$AA@ c003d6c4     AcpiSubsystem:utdecode.obj
 0002:00002cd4       ??_C@_0M@EILMLEPH@Device?5Wake?$AA@ c003d6d4     AcpiSubsystem:utdecode.obj
 0002:00002ce0       ??_C@_0O@PFLLKEFE@Eject?5Request?$AA@ c003d6e0     AcpiSubsystem:utdecode.obj
 0002:00002cf0       ??_C@_0BD@LHHHNCEG@Device?5Check?5Light?$AA@ c003d6f0     AcpiSubsystem:utdecode.obj
 0002:00002d04       ??_C@_0BD@LNLNEBKL@Frequency?5Mismatch?$AA@ c003d704     AcpiSubsystem:utdecode.obj
 0002:00002d18       ??_C@_0BC@HNKPKCNF@Bus?5Mode?5Mismatch?$AA@ c003d718     AcpiSubsystem:utdecode.obj
 0002:00002d2c       ??_C@_0M@HDPIJNIN@Power?5Fault?$AA@ c003d72c     AcpiSubsystem:utdecode.obj
 0002:00002d38       ??_C@_0BD@KBFNKAEH@Capabilities?5Check?$AA@ c003d738     AcpiSubsystem:utdecode.obj
 0002:00002d4c       ??_C@_0BB@NLAJEHDK@Device?5PLD?5Check?$AA@ c003d74c     AcpiSubsystem:utdecode.obj
 0002:00002d60       ??_C@_08NKCLJDKG@Reserved?$AA@ c003d760     AcpiSubsystem:utdecode.obj
 0002:00002d6c       ??_C@_0BH@DJMFMKMA@System?5Locality?5Update?$AA@ c003d76c     AcpiSubsystem:utdecode.obj
 0002:00002d84       ??_C@_0BB@IDEABKLH@Shutdown?5Request?$AA@ c003d784     AcpiSubsystem:utdecode.obj
 0002:00002d98       ??_C@_0CA@PPAJAPKG@System?5Resource?5Affinity?5Update?$AA@ c003d798     AcpiSubsystem:utdecode.obj
 0002:00002db8       ??_C@_0O@GJKKNCLJ@Status?5Change?$AA@ c003d7b8     AcpiSubsystem:utdecode.obj
 0002:00002dc8       ??_C@_0BD@JHKLALGB@Information?5Change?$AA@ c003d7c8     AcpiSubsystem:utdecode.obj
 0002:00002ddc       ??_C@_0BH@CEKIBGCE@Device?9Specific?5Change?$AA@ c003d7dc     AcpiSubsystem:utdecode.obj
 0002:00002df4       ??_C@_0BO@KJGOKHBB@Performance?5Capability?5Change?$AA@ c003d7f4     AcpiSubsystem:utdecode.obj
 0002:00002e14       ??_C@_0P@CALPLAFF@C?9State?5Change?$AA@ c003d814     AcpiSubsystem:utdecode.obj
 0002:00002e24       ??_C@_0BN@IFKFJEN@Throttling?5Capability?5Change?$AA@ c003d824     AcpiSubsystem:utdecode.obj
 0002:00002e44       ??_C@_0BG@JHIKPNKF@Thermal?5Status?5Change?$AA@ c003d844     AcpiSubsystem:utdecode.obj
 0002:00002e5c       ??_C@_0BK@CGIIHALG@Thermal?5Trip?5Point?5Change?$AA@ c003d85c     AcpiSubsystem:utdecode.obj
 0002:00002e78       ??_C@_0BL@EOCGKMFN@Thermal?5Device?5List?5Change?$AA@ c003d878     AcpiSubsystem:utdecode.obj
 0002:00002e94       ??_C@_0BM@KKBODMLH@Thermal?5Relationship?5Change?$AA@ c003d894     AcpiSubsystem:utdecode.obj
 0002:00002eb0       ??_C@_0BC@CBCCECHK@UserDefinedRegion?$AA@ c003d8b0     AcpiSubsystem:utdecode.obj
 0002:00002ec4       ??_C@_09DOMCPLLN@DataTable?$AA@ c003d8c4     AcpiSubsystem:utdecode.obj
 0002:00002ed0       ??_C@_0BC@CIHEPHDN@FunctionalFixedHW?$AA@ c003d8d0     AcpiSubsystem:utdecode.obj
 0002:00002ee4       ??_C@_0P@FEGPNIMB@InvalidSpaceId?$AA@ c003d8e4     AcpiSubsystem:utdecode.obj
 0002:00002ef4       ??_C@_0P@JDELEHKI@InvalidEventID?$AA@ c003d8f4     AcpiSubsystem:utdecode.obj
 0002:00002f04       ??_C@_0BJ@JKPCGODJ@?$FLNULL?5Object?5Descriptor?$FN?$AA@ c003d904     AcpiSubsystem:utdecode.obj
 0002:00002f20       ??_C@_04HIBGFPH@NULL?$AA@  c003d920     AcpiSubsystem:utdecode.obj
 0002:00002f28       ??_C@_04KNEKHCLA@?$CC?2?$CC?5?$AA@ c003d928     AcpiSubsystem:utdecode.obj
 0002:00002f30       ??_C@_04IJJJNCDO@?$CD?$CD?$CD?$CD?$AA@ c003d930     AcpiSubsystem:utdecode.obj
 0002:00002f38       ??_C@_0M@PDJGLEKK@NULL?5OBJECT?$AA@ c003d938     AcpiSubsystem:utdecode.obj
 0002:00002f44       ??_C@_0M@DIAAFDOE@NULL?5Object?$AA@ c003d944     AcpiSubsystem:utdecode.obj
 0002:00002f50       ??_C@_0BG@BMJMBLDD@Not?5an?5Operand?5object?$AA@ c003d950     AcpiSubsystem:utdecode.obj
 0002:00002f68       ??_C@_0BH@NEBHNPBE@Not?5a?5Reference?5object?$AA@ c003d968     AcpiSubsystem:utdecode.obj
 0002:00002f80       ??_C@_0BI@IKEOHIML@Unknown?5Reference?5class?$AA@ c003d980     AcpiSubsystem:utdecode.obj
 0002:00002f98       ??_C@_0BB@KBAIAOBL@Invalid?5Mutex?5ID?$AA@ c003d998     AcpiSubsystem:utdecode.obj
 0002:00002fac       ??_C@_0CN@ENKKNKIJ@Target?5object?5type?5does?5not?5supp@ c003d9ac     AcpiSubsystem:utdecode.obj
 0002:00002fdc       ??_C@_0BA@PEENFGKF@Device?9Specific?$AA@ c003d9dc     AcpiSubsystem:utdecode.obj
 0002:00002fec       ??_C@_0BC@GNLBPEPL@Hardware?9Specific?$AA@ c003d9ec     AcpiSubsystem:utdecode.obj
 0002:00003010       ??_C@_0P@BFHJIPDD@Acpi?9Namespace?$AA@ c003da10     AcpiSubsystem:utalloc.obj
 0002:00003020       ??_C@_0L@GGKDOEAI@Acpi?9State?$AA@ c003da20     AcpiSubsystem:utalloc.obj
 0002:0000302c       ??_C@_0L@PNEGAKA@Acpi?9Parse?$AA@ c003da2c     AcpiSubsystem:utalloc.obj
 0002:00003038       ??_C@_0O@IAEAANBA@Acpi?9ParseExt?$AA@ c003da38     AcpiSubsystem:utalloc.obj
 0002:00003048       ??_C@_0N@GIIOKCNF@Acpi?9Operand?$AA@ c003da48     AcpiSubsystem:utalloc.obj
 0002:0000308c       ??_C@_0CC@ENKOIGAD@Owner?5ID?5?$FL0x?$CF2?42X?$FN?5already?5exist@ c003da8c     AcpiSubsystem:utownerid.obj
 0002:000030b0       ??_C@_0BK@NCBKFMHF@Allocated?5OwnerId?3?5?$CF2?42X?6?$AA@ c003dab0     AcpiSubsystem:utownerid.obj
 0002:000030cc       ??_C@_0DM@GBCNDNNJ@Could?5not?5allocate?5new?5OwnerId?5?$CI@ c003dacc     AcpiSubsystem:utownerid.obj
 0002:00003108       ??_C@_0BJ@MLHMHMIM@Invalid?5OwnerId?3?50x?$CF2?42X?$AA@ c003db08     AcpiSubsystem:utownerid.obj
 0002:00003124       ??_C@_0CK@FLMEPKDC@Release?5of?5non?9allocated?5OwnerId@ c003db24     AcpiSubsystem:utownerid.obj
 0002:00003178       ??_C@_0BN@GHBEBGNI@Converted?5value?3?5?$CF8?48X?$CF8?48X?6?$AA@ c003db78     AcpiSubsystem:utstring.obj
 0002:00003198       ??_C@_0BE@LENJFIFF@?$DM?$CCNULL?5STRING?5PTR?$CC?$DO?$AA@ c003db98     AcpiSubsystem:utstring.obj
 0002:000031ac       ??_C@_01BJJEKLCA@?$CC?$AA@ c003dbac     AcpiSubsystem:utstring.obj
 0002:000031b0       ??_C@_02BJPOKLNP@?2a?$AA@  c003dbb0     AcpiSubsystem:utstring.obj
 0002:000031b4       ??_C@_02DCNDPIBM@?2b?$AA@  c003dbb4     AcpiSubsystem:utstring.obj
 0002:000031b8       ??_C@_02FGLPDNBI@?2f?$AA@  c003dbb8     AcpiSubsystem:utstring.obj
 0002:000031bc       ??_C@_02JOGGLHBA@?2n?$AA@  c003dbbc     AcpiSubsystem:utstring.obj
 0002:000031c0       ??_C@_02HIBBOKEN@?2r?$AA@  c003dbc0     AcpiSubsystem:utstring.obj
 0002:000031c4       ??_C@_02COELENML@?2t?$AA@  c003dbc4     AcpiSubsystem:utstring.obj
 0002:000031c8       ??_C@_02BMHNCPEJ@?2v?$AA@  c003dbc8     AcpiSubsystem:utstring.obj
 0002:000031cc       ??_C@_03CPDGCMJG@?2?$CFc?$AA@ c003dbcc     AcpiSubsystem:utstring.obj
 0002:000031d0       ??_C@_02HAOIJKIC@?$CFc?$AA@ c003dbd0     AcpiSubsystem:utstring.obj
 0002:000031d4       ??_C@_07NODDBJJP@?2x?$CF2?42X?$AA@ c003dbd4     AcpiSubsystem:utstring.obj
 0002:000031dc       ??_C@_03KHICJKCI@?4?4?4?$AA@ c003dbdc     AcpiSubsystem:utstring.obj
 0002:000031e0       ??_C@_0DJ@CGJFAAPD@Invalid?5character?$CIs?$CJ?5in?5name?5?$CI0x@ c003dbe0     AcpiSubsystem:utstring.obj
 0002:000032b0       ??_C@_0BH@MJFLICDH@Node?5?$CFp?0?5Remaining?5?$CFX?6?$AA@ c003dcb0     AcpiSubsystem:nsalloc.obj
 0002:000032c8       ??_C@_0DN@GMAPACPE@?$CF4?44s?5?$CI?$CFs?$CJ?5?$FLNode?5?$CFp?5Owner?5?$CFX?$FN?5ad@ c003dcc8     AcpiSubsystem:nsalloc.obj
 0002:00003308       ??_C@_0BO@IOOIAKBI@Found?5a?5grandchild?$CB?5P?$DN?$CFp?5C?$DN?$CFp?$AA@ c003dd08     AcpiSubsystem:nsalloc.obj
 0002:00003374       ??_C@_0CK@HKCPJFBC@Null?5physical?5address?5for?5ACPI?5t@ c003dd74     AcpiSubsystem:tbinstal.obj
 0002:000033a0       ??_C@_0CN@MPHJOELM@Could?5not?5acquire?5table?5length?5a@ c003dda0     AcpiSubsystem:tbinstal.obj
 0002:000033d0       ??_C@_0CN@CMCHKEGF@Ignoring?5installation?5of?5?$CF4?44s?5a@ c003ddd0     AcpiSubsystem:tbinstal.obj
 0002:00003400       ??_C@_03COEKBGOL@OEM?$AA@  c003de00     AcpiSubsystem:tbinstal.obj
 0002:00003408       ??_C@_0EE@FPPBOPGB@Table?5has?5invalid?5signature?5?$FL?$CF4?4@ c003de08     AcpiSubsystem:tbinstal.obj
 0002:0000344c       ??_C@_07LBAMDMLH@Logical?$AA@ c003de4c     AcpiSubsystem:tbinstal.obj
 0002:00003454       ??_C@_08KBAADDND@Physical?$AA@ c003de54     AcpiSubsystem:tbinstal.obj
 0002:00003460       ??_C@_0DO@JDLGCBCE@?$CF4?44s?50x?$CF8?48X?$CF8?48X?5?$CFs?5table?5over@ c003de60     AcpiSubsystem:tbinstal.obj
 0002:000034a8       ??_C@_0P@NCPPCANG@Pm1aEventBlock?$AA@ c003dea8     AcpiSubsystem:tbfadt.obj
 0002:000034b8       ??_C@_0P@KFGBPCCG@Pm1bEventBlock?$AA@ c003deb8     AcpiSubsystem:tbfadt.obj
 0002:000034c8       ??_C@_0BB@KFAENBAN@Pm1aControlBlock?$AA@ c003dec8     AcpiSubsystem:tbfadt.obj
 0002:000034dc       ??_C@_0BB@NJGFPENG@Pm1bControlBlock?$AA@ c003dedc     AcpiSubsystem:tbfadt.obj
 0002:000034f0       ??_C@_0BA@KCBDDDEG@Pm2ControlBlock?$AA@ c003def0     AcpiSubsystem:tbfadt.obj
 0002:00003500       ??_C@_0N@FFDGHKLD@PmTimerBlock?$AA@ c003df00     AcpiSubsystem:tbfadt.obj
 0002:00003510       ??_C@_09BBFHFCGD@Gpe0Block?$AA@ c003df10     AcpiSubsystem:tbfadt.obj
 0002:0000351c       ??_C@_09LHCAFJNH@Gpe1Block?$AA@ c003df1c     AcpiSubsystem:tbfadt.obj
 0002:00003528       ??_C@_0GO@KBIJOHJJ@?$CFs?5?9?532?9bit?5FADT?5register?5is?5too@ c003df28     AcpiSubsystem:tbfadt.obj
 0002:00003598       ??_C@_0EP@MOGMOHKD@32?164X?5?$CFs?5address?5mismatch?5in?5FA@ c003df98     AcpiSubsystem:tbfadt.obj
 0002:000035e8       ??_C@_04OEFCOLGL@DSDT?$AA@ c003dfe8     AcpiSubsystem:tbfadt.obj
 0002:000035f0       ??_C@_04COIMKHFN@FACS?$AA@ c003dff0     AcpiSubsystem:tbfadt.obj
 0002:000035f8       ??_C@_0EP@IMHOPOEL@FADT?5?$CIrevision?5?$CFu?$CJ?5is?5longer?5tha@ c003dff8     AcpiSubsystem:tbfadt.obj
 0002:00003648       ??_C@_0EP@KCNLFKIL@32?164X?5address?5mismatch?5in?5FADT?1@ c003e048     AcpiSubsystem:tbfadt.obj
 0002:00003698       ??_C@_0CJ@IBJJNBOO@32?164X?5length?5mismatch?5in?5FADT?1?$CF@ c003e098     AcpiSubsystem:tbfadt.obj
 0002:000036c8       ??_C@_0EJ@HEHPCNBO@Required?5FADT?5field?5?$CFs?5has?5zero?5@ c003e0c8     AcpiSubsystem:tbfadt.obj
 0002:00003718       ??_C@_0EF@KAJMLCNA@Optional?5FADT?5field?5?$CFs?5has?5zero?5@ c003e118     AcpiSubsystem:tbfadt.obj
 0002:00003760       ??_C@_0DB@JEJIHLEA@Invalid?5length?5for?5FADT?1?$CFs?3?5?$CFu?0?5@ c003e160     AcpiSubsystem:tbfadt.obj
 0002:00003794       ??_C@_0M@JCHPCCPD@PmRegisters?$AA@ c003e194     AcpiSubsystem:tbfadt.obj
 0002:00003810       ??_C@_0DC@DIMGIEPN@Read?3?5?5?$CF8?48X?$CF8?48X?5width?5?$CF2d?5from@ c003e210     AcpiSubsystem:hwxface.obj
 0002:00003844       ??_C@_0DC@HABIMFMP@Wrote?3?5?$CF8?48X?$CF8?48X?5width?5?$CF2d?5?5?5to@ c003e244     AcpiSubsystem:hwxface.obj
 0002:00003878       ??_C@_0DK@JFIIJIKP@BitReg?5?$CFX?0?5ParentReg?5?$CFX?0?5Actual?5@ c003e278     AcpiSubsystem:hwxface.obj
 0002:000038b4       ??_C@_0DE@MMEKMLPF@BitReg?5?$CFX?0?5ParentReg?5?$CFX?0?5Value?5?$CF@ c003e2b4     AcpiSubsystem:hwxface.obj
 0002:000038e8       ??_C@_0CJ@CAODHO@No?5Sleep?5State?5object?5returned?5f@ c003e2e8     AcpiSubsystem:hwxface.obj
 0002:00003914       ??_C@_0CL@HIILFGIH@Sleep?5State?5return?5object?5is?5not@ c003e314     AcpiSubsystem:hwxface.obj
 0002:00003940       ??_C@_0CC@IFNJCMGK@While?5evaluating?5Sleep?5State?5?$FL?$CFs@ c003e340     AcpiSubsystem:hwxface.obj
 0002:000039b0       ??_C@_0DJ@FNMJNJGN@?6Added?5?$FL?$CF4?44s?$FN?5address?5range?3?50x@ c003e3b0     AcpiSubsystem:utaddress.obj
 0002:000039ec       ??_C@_0DL@BHELELBA@?6Removed?5?$FL?$CF4?44s?$FN?5address?5range?3?5@ c003e3ec     AcpiSubsystem:utaddress.obj
 0002:00003a28       ??_C@_0FK@KLKLIIDO@?$CFs?5range?50x?$CF8?48X?$CF8?48X?90x?$CF8?48X?$CF8?4@ c003e428     AcpiSubsystem:utaddress.obj
 0002:00003b40       ??_C@_03FLONIPFO@DMA?$AA@  c003e540     AcpiSubsystem:hwvalid.obj
 0002:00003b44       ??_C@_04EKEINFPE@PIC0?$AA@ c003e544     AcpiSubsystem:hwvalid.obj
 0002:00003b4c       ??_C@_04EKDKFBEA@PIT1?$AA@ c003e54c     AcpiSubsystem:hwvalid.obj
 0002:00003b54       ??_C@_04GBBHACID@PIT2?$AA@ c003e554     AcpiSubsystem:hwvalid.obj
 0002:00003b5c       ??_C@_03PFOHNGA@RTC?$AA@   c003e55c     AcpiSubsystem:hwvalid.obj
 0002:00003b60       ??_C@_04KFKAGOPB@CMOS?$AA@ c003e560     AcpiSubsystem:hwvalid.obj
 0002:00003b68       ??_C@_04EKNFJGMO@DMA1?$AA@ c003e568     AcpiSubsystem:hwvalid.obj
 0002:00003b70       ??_C@_05CAFKDKCI@DMA1L?$AA@ c003e570     AcpiSubsystem:hwvalid.obj
 0002:00003b78       ??_C@_04GBPIMFAN@DMA2?$AA@ c003e578     AcpiSubsystem:hwvalid.obj
 0002:00003b80       ??_C@_05CCBMIEHB@DMA2L?$AA@ c003e580     AcpiSubsystem:hwvalid.obj
 0002:00003b88       ??_C@_04JFAAPLFK@ARBC?$AA@ c003e588     AcpiSubsystem:hwvalid.obj
 0002:00003b90       ??_C@_05MAJHNKMG@SETUP?$AA@ c003e590     AcpiSubsystem:hwvalid.obj
 0002:00003b98       ??_C@_03PPOGOLCL@POS?$AA@  c003e598     AcpiSubsystem:hwvalid.obj
 0002:00003b9c       ??_C@_04FDFDOELF@PIC1?$AA@ c003e59c     AcpiSubsystem:hwvalid.obj
 0002:00003ba4       ??_C@_04OJGIJNGH@IDMA?$AA@ c003e5a4     AcpiSubsystem:hwvalid.obj
 0002:00003bac       ??_C@_04ICFNDEBB@ELCR?$AA@ c003e5ac     AcpiSubsystem:hwvalid.obj
 0002:00003bb4       ??_C@_03EGNBOIJE@PCI?$AA@  c003e5b4     AcpiSubsystem:hwvalid.obj
 0002:00003bb8       ??_C@_0BO@GGKEJNDP@Bad?5BitWidth?5parameter?3?5?$CF8?48X?$AA@ c003e5b8     AcpiSubsystem:hwvalid.obj
 0002:00003bd8       ??_C@_0DE@JAMKBIGJ@Address?5?$CF8?48X?$CF8?48X?5LastAddress?5?$CF@ c003e5d8     AcpiSubsystem:hwvalid.obj
 0002:00003c0c       ??_C@_0DL@JBIACOOG@Illegal?5I?1O?5port?5address?1length?5@ c003e60c     AcpiSubsystem:hwvalid.obj
 0002:00003c48       ??_C@_0DN@DOJOLFIC@Denied?5AML?5access?5to?5port?50x?$CF8?48@ c003e648     AcpiSubsystem:hwvalid.obj
 0002:00003cf8       ??_C@_0M@NLBCFAGN@?$FLNULL?5NAME?$FN?$AA@ c003e6f8     AcpiSubsystem:nsutils.obj
 0002:00003d04       ??_C@_03IKGEINEE@?$CFs?5?$AA@ c003e704     AcpiSubsystem:nsutils.obj
 0002:00003d08       ??_C@_0P@DALLDEBE@?$FL?$CFs?$FN?5?$CINode?5?$CFp?$CJ?$AA@ c003e708     AcpiSubsystem:nsutils.obj
 0002:00003d18       ??_C@_0BE@LJGNCKCJ@Null?5Node?5parameter?$AA@ c003e718     AcpiSubsystem:nsutils.obj
 0002:00003d2c       ??_C@_0BJ@LLLBADOK@Invalid?5Object?5Type?50x?$CFX?$AA@ c003e72c     AcpiSubsystem:nsutils.obj
 0002:00003d48       ??_C@_0BM@CENMGJNE@Returning?5?$FL?$CFp?$FN?5?$CIabs?$CJ?5?$CC?2?$CFs?$CC?6?$AA@ c003e748     AcpiSubsystem:nsutils.obj
 0002:00003d64       ??_C@_0BL@ECJJHBD@Returning?5?$FL?$CFp?$FN?5?$CIrel?$CJ?5?$CC?$CFs?$CC?6?$AA@ c003e764     AcpiSubsystem:nsutils.obj
 0002:00003d80       ??_C@_0BG@OEOEDOKD@Invalid?5internal?5name?$AA@ c003e780     AcpiSubsystem:nsutils.obj
 0002:00003d98       ??_C@_0BB@CKPODJHK@Namespace?5freed?6?$AA@ c003e798     AcpiSubsystem:nsutils.obj
 0002:00003dac       ??_C@_07HMNAANNE@?$CFs?0?5?$CFs?6?$AA@ c003e7ac     AcpiSubsystem:nsutils.obj
 0002:00003de0       ??_C@_0DM@EECPAPBK@No?5notify?5handler?5for?5Notify?0?5ig@ c003e7e0     AcpiSubsystem:evmisc.obj
 0002:00003e1c       ??_C@_0DP@JLDCOLII@Dispatching?5Notify?5on?5?$FL?$CF4?44s?$FN?5?$CI?$CF@ c003e81c     AcpiSubsystem:evmisc.obj
 0002:00003e5c       ??_C@_0CB@KFPCABBJ@Could?5not?5disable?5fixed?5event?5?$CFu@ c003e85c     AcpiSubsystem:evmisc.obj
 0002:00003e80       ??_C@_0CF@PAOLLDGF@Could?5not?5remove?5Global?5Lock?5han@ c003e880     AcpiSubsystem:evmisc.obj
 0002:00003ea8       ??_C@_0BN@KEOIOMFP@Could?5not?5remove?5SCI?5handler?$AA@ c003e8a8     AcpiSubsystem:evmisc.obj
 0002:00003ec8       ??_C@_0BD@EJGLGONH@AcpiDisable?5failed?$AA@ c003e8c8     AcpiSubsystem:evmisc.obj
 0002:00003f4c       ??_C@_0BI@CIFJPNCM@?$CK?$CK?$CK?$CK?5String?5?$CFp?0?5ptr?5?$CFp?6?$AA@ c003e94c     AcpiSubsystem:utdelete.obj
 0002:00003f64       ??_C@_0BI@NFPNNNOI@?$CK?$CK?$CK?$CK?5Buffer?5?$CFp?0?5ptr?5?$CFp?6?$AA@ c003e964     AcpiSubsystem:utdelete.obj
 0002:00003f7c       ??_C@_0BL@BDDHDHEM@?5?$CK?$CK?$CK?$CK?5Package?5of?5count?5?$CFX?6?$AA@ c003e97c     AcpiSubsystem:utdelete.obj
 0002:00003f98       ??_C@_0BN@KNMOIKAJ@?$CK?$CK?$CK?$CK?$CK?5Mutex?5?$CFp?0?5OS?5Mutex?5?$CFp?6?$AA@ c003e998     AcpiSubsystem:utdelete.obj
 0002:00003fb8       ??_C@_0CB@ELIDAHBL@?$CK?$CK?$CK?$CK?$CK?5Event?5?$CFp?0?5OS?5Semaphore?5?$CFp?6@ c003e9b8     AcpiSubsystem:utdelete.obj
 0002:00003fdc       ??_C@_0BB@DKGBAGMJ@?$CK?$CK?$CK?$CK?$CK?5Method?5?$CFp?6?$AA@ c003e9dc     AcpiSubsystem:utdelete.obj
 0002:00003ff0       ??_C@_0BB@PPBDGLII@?$CK?$CK?$CK?$CK?$CK?5Region?5?$CFp?6?$AA@ c003e9f0     AcpiSubsystem:utdelete.obj
 0002:00004004       ??_C@_0DC@NLFJCENI@Circular?5region?5list?5in?5address?5@ c003ea04     AcpiSubsystem:utdelete.obj
 0002:00004038       ??_C@_0BH@NJFJHAJC@?$CK?$CK?$CK?$CK?$CK?5Buffer?5Field?5?$CFp?6?$AA@ c003ea38     AcpiSubsystem:utdelete.obj
 0002:00004050       ??_C@_0BF@DOMHCBNH@?$CK?$CK?$CK?$CK?$CK?5Bank?5Field?5?$CFp?6?$AA@ c003ea50     AcpiSubsystem:utdelete.obj
 0002:00004068       ??_C@_0BL@LCEDCBNI@Deleting?5Object?5Subptr?5?$CFp?6?$AA@ c003ea68     AcpiSubsystem:utdelete.obj
 0002:00004084       ??_C@_0BJ@CILCNJEA@Deleting?5Object?5?$CFp?5?$FL?$CFs?$FN?6?$AA@ c003ea84     AcpiSubsystem:utdelete.obj
 0002:000040a0       ??_C@_0DD@KFBDDMOG@Obj?5?$CFp?0?5Reference?5Count?5was?5zero@ c003eaa0     AcpiSubsystem:utdelete.obj
 0002:000040d4       ??_C@_0CK@BEGNIDHF@Obj?5?$CFp?5Type?5?$CF?42X?5Refs?5?$CF?42X?5?$FLIncr@ c003ead4     AcpiSubsystem:utdelete.obj
 0002:00004100       ??_C@_0DL@LFJAOGFJ@Obj?5?$CFp?0?5Reference?5Count?5is?5alrea@ c003eb00     AcpiSubsystem:utdelete.obj
 0002:0000413c       ??_C@_0CK@EEFOEMIN@Obj?5?$CFp?5Type?5?$CF?42X?5Refs?5?$CF?42X?5?$FLDecr@ c003eb3c     AcpiSubsystem:utdelete.obj
 0002:00004168       ??_C@_0CG@KOOBONAJ@Unknown?5Reference?5Count?5action?5?$CI@ c003eb68     AcpiSubsystem:utdelete.obj
 0002:00004190       ??_C@_0DH@JEDHNHCF@Large?5Reference?5Count?5?$CI0x?$CFX?$CJ?5in?5@ c003eb90     AcpiSubsystem:utdelete.obj
 0002:000041c8       ??_C@_0BI@FFINJFHA@Object?5?$CFp?5is?5NS?5handle?6?$AA@ c003ebc8     AcpiSubsystem:utdelete.obj
 0002:000041e0       ??_C@_0CI@LJHIFPME@Could?5not?5update?5object?5referenc@ c003ebe0     AcpiSubsystem:utdelete.obj
 0002:00004208       ??_C@_0CM@CDAFALEG@Obj?5?$CFp?5Current?5Refs?$DN?$CFX?5?$FLTo?5Be?5In@ c003ec08     AcpiSubsystem:utdelete.obj
 0002:00004234       ??_C@_0CM@HDDGMELO@Obj?5?$CFp?5Current?5Refs?$DN?$CFX?5?$FLTo?5Be?5De@ c003ec34     AcpiSubsystem:utdelete.obj
 0002:0000435c       ??_C@_0BL@LLMLPCCJ@Could?5not?5allocate?5size?5?$CFu?$AA@ c003ed5c     AcpiSubsystem:utobject.obj
 0002:00004378       ??_C@_0BG@FEBPNMLJ@?$CK?$CK?$CK?$CK?5Null?5Object?5Ptr?6?$AA@ c003ed78     AcpiSubsystem:utobject.obj
 0002:00004390       ??_C@_0CE@MMDCHCGM@?$CFp?5is?5not?5an?5ACPI?5operand?5obj?5?$FL?$CF@ c003ed90     AcpiSubsystem:utobject.obj
 0002:000043b4       ??_C@_0CI@LPLJGHCI@Could?5not?5allocate?5an?5object?5des@ c003edb4     AcpiSubsystem:utobject.obj
 0002:000043dc       ??_C@_0M@OPPAPEHO@?$CFp?5Size?5?$CFX?6?$AA@ c003eddc     AcpiSubsystem:utobject.obj
 0002:000043e8       ??_C@_0CG@IOJJIBIA@?$CFp?5is?5not?5an?5ACPI?5Operand?5object@ c003ede8     AcpiSubsystem:utobject.obj
 0002:00004410       ??_C@_0FH@JOOFLFAH@Cannot?5convert?5to?5external?5objec@ c003ee10     AcpiSubsystem:utobject.obj
 0002:00004468       ??_C@_0EM@GBHMKOLP@Cannot?5convert?5to?5external?5objec@ c003ee68     AcpiSubsystem:utobject.obj
 0002:00004514       ??_C@_0CA@JFMNLIPE@Unsupported?5address?5space?3?50x?$CFX?$AA@ c003ef14     AcpiSubsystem:hwregs.obj
 0002:00004534       ??_C@_0CF@KLDDENIM@Unsupported?5register?5bit?5width?3?5@ c003ef34     AcpiSubsystem:hwregs.obj
 0002:0000455c       ??_C@_0CG@LAAKKKAD@Unsupported?5register?5bit?5offset?3@ c003ef5c     AcpiSubsystem:hwregs.obj
 0002:00004584       ??_C@_0CN@LGHFCEML@Read?3?5?5?$CF8?48X?5width?5?$CF2d?5from?5?$CF8?48@ c003ef84     AcpiSubsystem:hwregs.obj
 0002:000045b4       ??_C@_0CN@JMBIGMED@Wrote?3?5?$CF8?48X?5width?5?$CF2d?5?5?5to?5?$CF8?48@ c003efb4     AcpiSubsystem:hwregs.obj
 0002:000045e4       ??_C@_0CD@FACBACIE@About?5to?5write?5?$CF04X?5to?5?$CF8?48X?$CF8?48@ c003efe4     AcpiSubsystem:hwregs.obj
 0002:00004608       ??_C@_0BN@GNEKHCC@Invalid?5BitRegister?5ID?3?50x?$CFX?$AA@ c003f008     AcpiSubsystem:hwregs.obj
 0002:00004628       ??_C@_0BK@MGOAHED@Unknown?5Register?5ID?3?50x?$CFX?$AA@ c003f028     AcpiSubsystem:hwregs.obj
 0002:000046a8       ??_C@_0DG@HECAKGOH@No?5response?5from?5Global?5Lock?5har@ c003f0a8     AcpiSubsystem:evglock.obj
 0002:000046e0       ??_C@_0CH@CAGICFNP@Could?5not?5signal?5Global?5Lock?5sem@ c003f0e0     AcpiSubsystem:evglock.obj
 0002:00004708       ??_C@_0BP@DMLFHKNN@Acquired?5hardware?5Global?5Lock?6?$AA@ c003f108     AcpiSubsystem:evglock.obj
 0002:00004728       ??_C@_0CC@CJMFONAE@Waiting?5for?5hardware?5Global?5Lock@ c003f128     AcpiSubsystem:evglock.obj
 0002:0000474c       ??_C@_0DO@FAJNMCJD@Cannot?5release?5the?5ACPI?5Global?5L@ c003f14c     AcpiSubsystem:evglock.obj
 0002:0000478c       ??_C@_0BP@GKBMNGBB@Released?5hardware?5Global?5Lock?6?$AA@ c003f18c     AcpiSubsystem:evglock.obj
 0002:000047dc       ??_C@_0CN@BHMMBNI@Initializing?5General?5Purpose?5Eve@ c003f1dc     AcpiSubsystem:evgpeinit.obj
 0002:0000480c       ??_C@_0BN@LKDDNHOM@Could?5not?5create?5GPE?5Block?50?$AA@ c003f20c     AcpiSubsystem:evgpeinit.obj
 0002:00004830       ??_C@_0FA@BPKEHKH@GPE0?5block?5?$CIGPE?50?5to?5?$CFu?$CJ?5overlap@ c003f230     AcpiSubsystem:evgpeinit.obj
 0002:00004880       ??_C@_0BN@KDCIOGKN@Could?5not?5create?5GPE?5Block?51?$AA@ c003f280     AcpiSubsystem:evgpeinit.obj
 0002:000048a0       ??_C@_0CN@FLGLKDMH@There?5are?5no?5GPE?5blocks?5defined?5@ c003f2a0     AcpiSubsystem:evgpeinit.obj
 0002:000048d0       ??_C@_0CB@HPNLHIFH@While?5decoding?5_Lxx?1_Exx?5methods@ c003f2d0     AcpiSubsystem:evgpeinit.obj
 0002:000048f4       ??_C@_0BE@EGNCGPFP@Enabled?5?$CFu?5new?5GPEs?$AA@ c003f2f4     AcpiSubsystem:evgpeinit.obj
 0002:00004908       ??_C@_0EF@JHEFFCOE@Ignoring?5unknown?5GPE?5method?5type@ c003f308     AcpiSubsystem:evgpeinit.obj
 0002:00004950       ??_C@_0EO@CPKOONPN@Could?5not?5extract?5GPE?5number?5fro@ c003f350     AcpiSubsystem:evgpeinit.obj
 0002:000049a0       ??_C@_0DH@MPPLENP@For?5GPE?50x?$CF?42X?0?5found?5both?5_L?$CF2?4@ c003f3a0     AcpiSubsystem:evgpeinit.obj
 0002:000049d8       ??_C@_0CP@PBFBGNLL@Registered?5GPE?5method?5?$CFs?5as?5GPE?5@ c003f3d8     AcpiSubsystem:evgpeinit.obj
 0002:00004b20       ??_C@_0DB@GHNIJMKE@Attempting?5to?5init?5a?5region?5?$CFp?0?5@ c003f520     AcpiSubsystem:evrgnini.obj
 0002:00004b54       ??_C@_0DK@NMHFABAP@Could?5not?5install?5PciConfig?5hand@ c003f554     AcpiSubsystem:evrgnini.obj
 0002:00004b90       ??_C@_04FPCIHFGK@_ADR?$AA@ c003f590     AcpiSubsystem:evrgnini.obj
 0002:00004b98       ??_C@_04JDEPGGFN@_SEG?$AA@ c003f598     AcpiSubsystem:evrgnini.obj
 0002:00004ba0       ??_C@_04KPGHPLGL@_BBN?$AA@ c003f5a0     AcpiSubsystem:evrgnini.obj
 0002:00004ba8       ??_C@_0CK@BBGFOMCG@Found?5handler?5?$CFp?5for?5region?5?$CFp?5i@ c003f5a8     AcpiSubsystem:evrgnini.obj
 0002:00004bd4       ??_C@_0DB@JAHEMPDH@No?5handler?5for?5RegionType?5?$CFs?$CI?$CFX?$CJ@ c003f5d4     AcpiSubsystem:evrgnini.obj
 0002:00004c78       ??_C@_0BF@MFLGCMFA@Null?5NamedObj?5handle?$AA@ c003f678     AcpiSubsystem:nsobject.obj
 0002:00004c90       ??_C@_0CI@DFHANHAN@Null?5object?0?5but?5type?5not?5ACPI_T@ c003f690     AcpiSubsystem:nsobject.obj
 0002:00004cb8       ??_C@_0BH@PKPKIBNM@Invalid?5handle?5?$CFp?5?$FL?$CFs?$FN?$AA@ c003f6b8     AcpiSubsystem:nsobject.obj
 0002:00004cd0       ??_C@_0CI@LDMLHPNA@Obj?5?$CFp?5already?5installed?5in?5Name@ c003f6d0     AcpiSubsystem:nsobject.obj
 0002:00004cf8       ??_C@_0CE@DOINPOJM@Installing?5?$CFp?5into?5Node?5?$CFp?5?$FL?$CF4?44@ c003f6f8     AcpiSubsystem:nsobject.obj
 0002:00004d1c       ??_C@_0BL@GJHDBAEA@Node?5?$CFp?5?$FL?$CF4?44s?$FN?5Object?5?$CFp?6?$AA@ c003f71c     AcpiSubsystem:nsobject.obj
 0002:00004d38       ??_C@_0O@OHCCAFIF@Null?5Node?5ptr?$AA@ c003f738     AcpiSubsystem:nsobject.obj
 0002:00004de4       ??_C@_0BO@IAIGLIJH@Invalid?5SystemMemory?5width?5?$CFu?$AA@ c003f7e4     AcpiSubsystem:exregion.obj
 0002:00004e04       ??_C@_0CO@KABOLPPG@Could?5not?5map?5memory?5at?50x?$CF8?48X?$CF@ c003f804     AcpiSubsystem:exregion.obj
 0002:00004e34       ??_C@_0DE@FKLAIMPH@System?9Memory?5?$CIwidth?5?$CFu?$CJ?5R?1W?5?$CFu?5@ c003f834     AcpiSubsystem:exregion.obj
 0002:00004e68       ??_C@_0DA@HFJCEEAF@System?9IO?5?$CIwidth?5?$CFu?$CJ?5R?1W?5?$CFu?5Addr@ c003f868     AcpiSubsystem:exregion.obj
 0002:00004e98       ??_C@_0EH@CIAMICEE@Pci?9Config?5?$CFu?5?$CI?$CFu?$CJ?5Seg?$CI?$CF04x?$CJ?5Bus@ c003f898     AcpiSubsystem:exregion.obj
 0002:00004eec       ??_C@_01KICIPPFI@?2?$AA@   c003f8ec     AcpiSubsystem:nsxfname.obj
 0002:00004f4c       ??_C@_0BA@GEEIFKKC@No?5return?5value?$AA@ c003f94c     AcpiSubsystem:nsxfeval.obj
 0002:00004f5c       ??_C@_0CK@FKJNJMKE@Incorrect?5return?5type?5?$FL?$CFs?$FN?5reque@ c003f95c     AcpiSubsystem:nsxfeval.obj
 0002:00004f88       ??_C@_0CC@KJLDJKCH@Both?5Handle?5and?5Pathname?5are?5NUL@ c003f988     AcpiSubsystem:nsxfeval.obj
 0002:00004fac       ??_C@_0CI@GEKAEFBC@Null?5Handle?5with?5relative?5pathna@ c003f9ac     AcpiSubsystem:nsxfeval.obj
 0002:00004fd4       ??_C@_0BL@MAHEJKBB@Needed?5buffer?5size?5?$CFX?0?5?$CFs?6?$AA@ c003f9d4     AcpiSubsystem:nsxfeval.obj
 0002:0000500c       ??_C@_07IFMINCPN@PNP0A03?$AA@ c003fa0c     AcpiSubsystem:utmisc.obj
 0002:00005014       ??_C@_07GGDMALDG@PNP0A08?$AA@ c003fa14     AcpiSubsystem:utmisc.obj
 0002:0000501c       ??_C@_0O@CKHNGNL@Executing?5?5?5?5?$AA@ c003fa1c     AcpiSubsystem:utmisc.obj
 0002:0000502c       ??_C@_0O@MEAGLLM@Initializing?5?$AA@ c003fa2c     AcpiSubsystem:utmisc.obj
 0002:0000503c       ??_C@_09GGPFIMBK@?$CF?912s?5?5?$CFs?$AA@ c003fa3c     AcpiSubsystem:utmisc.obj
 0002:00005048       ??_C@_03KEMCFGNA@?4?$CFs?$AA@ c003fa48     AcpiSubsystem:utmisc.obj
 0002:000050b4       ??_C@_0CI@EGOMAENM@Could?5not?5acquire?5AML?5Interprete@ c003fab4     AcpiSubsystem:exutils.obj
 0002:000050dc       ??_C@_0CI@FMIEOLOJ@Could?5not?5release?5AML?5Interprete@ c003fadc     AcpiSubsystem:exutils.obj
 0002:00005104       ??_C@_0BO@HDPLEJCF@Could?5not?5acquire?5Global?5Lock?$AA@ c003fb04     AcpiSubsystem:exutils.obj
 0002:00005124       ??_C@_0BO@KBPJOKPA@Could?5not?5release?5Global?5Lock?$AA@ c003fb24     AcpiSubsystem:exutils.obj
 0002:00005148       ??_C@_0EB@FAKDKJEL@Expected?5EISAID?5is?5larger?5than?53@ c003fb48     AcpiSubsystem:exutils.obj
 0002:000051e8       ??_C@_0BK@ICHBPHDD@?$FL?$CF4?44s?4?$CFs?$FN?5was?5not?5found?6?$AA@ c003fbe8     AcpiSubsystem:uteval.obj
 0002:00005204       ??_C@_0BI@GMDGNDDG@Method?5execution?5failed?$AA@ c003fc04     AcpiSubsystem:uteval.obj
 0002:0000521c       ??_C@_0BM@PPNDLHBO@No?5object?5was?5returned?5from?$AA@ c003fc1c     AcpiSubsystem:uteval.obj
 0002:00005238       ??_C@_0CA@FDCHKJLL@Return?5object?5type?5is?5incorrect?$AA@ c003fc38     AcpiSubsystem:uteval.obj
 0002:00005258       ??_C@_0DP@JMCBJKHK@Type?5returned?5from?5?$CFs?5was?5incorr@ c003fc58     AcpiSubsystem:uteval.obj
 0002:00005298       ??_C@_0DJ@JEJCMACD@_STA?5on?5?$CF4?44s?5was?5not?5found?0?5ass@ c003fc98     AcpiSubsystem:uteval.obj
 0002:000052d4       ??_C@_0BP@KJCJOPNB@Failed?5?$CFs?5on?5Device?5?$CF4?44s?0?5?$CFs?6?$AA@ c003fcd4     AcpiSubsystem:uteval.obj
 0002:00005328       ??_C@_0EC@NBEANKAN@Could?5not?5construct?5external?5pat@ c003fd28     AcpiSubsystem:nsnames.obj
 0002:0000536c       ??_C@_0BM@KMHDIFHP@Could?5not?5allocate?5?$CFu?5bytes?$AA@ c003fd6c     AcpiSubsystem:nsnames.obj
 0002:00005388       ??_C@_0DH@HAPBECBE@Invalid?5Namespace?5Node?5?$CI?$CFp?$CJ?5whil@ c003fd88     AcpiSubsystem:nsnames.obj
 0002:000053c0       ??_C@_08MDKIKJDG@?$CFs?5?$FL?$CFX?$FN?6?$AA@ c003fdc0     AcpiSubsystem:nsnames.obj
 0002:00005464       ??_C@_0BO@GEKLCFPI@?$FL?$CF4?44s?$FN?5BufferField?5Arg?5Init?6?$AA@ c003fe64     AcpiSubsystem:dsargs.obj
 0002:00005484       ??_C@_0BM@ILPAOEHG@?$FL?$CF4?44s?$FN?5BankField?5Arg?5Init?6?$AA@ c003fe84     AcpiSubsystem:dsargs.obj
 0002:000054a0       ??_C@_0DG@HOPFCHGA@No?5pointer?5back?5to?5namespace?5nod@ c003fea0     AcpiSubsystem:dsargs.obj
 0002:000054d8       ??_C@_0BB@IGNCMPF@Buffer?5Arg?5Init?6?$AA@ c003fed8     AcpiSubsystem:dsargs.obj
 0002:000054ec       ??_C@_0DA@JHIHMGNG@No?5pointer?5back?5to?5namespace?5nod@ c003feec     AcpiSubsystem:dsargs.obj
 0002:0000551c       ??_C@_0BC@HLCHGJIN@Package?5Arg?5Init?6?$AA@ c003ff1c     AcpiSubsystem:dsargs.obj
 0002:00005530       ??_C@_0CF@HEOBKCCC@?$FL?$CF4?44s?$FN?5OpRegion?5Arg?5Init?5at?5AML@ c003ff30     AcpiSubsystem:dsargs.obj
 0002:00005590       ??_C@_01OHGJGJJP@?$FL?$AA@ c003ff90     AcpiSubsystem:nsdump.obj
 0002:00005594       ??_C@_01OGPIMHDM@?$DP?$AA@ c003ff94     AcpiSubsystem:nsdump.obj
 0002:00005598       ??_C@_01LFCBOECM@?4?$AA@   c003ff98     AcpiSubsystem:nsdump.obj
 0002:0000559c       ??_C@_02JODFHDIE@?$FN?6?$AA@ c003ff9c     AcpiSubsystem:nsdump.obj
 0002:000055a0       ??_C@_0BE@GOCDIBBH@Null?5object?5handle?6?$AA@ c003ffa0     AcpiSubsystem:nsdump.obj
 0002:000055b4       ??_C@_0BK@LILJHOHO@Invalid?5object?5handle?5?$CFp?6?$AA@ c003ffb4     AcpiSubsystem:nsdump.obj
 0002:000055d0       ??_C@_06HMDCPHJO@?$CF2d?$CF?$CKs?$AA@ c003ffd0     AcpiSubsystem:nsdump.obj
 0002:000055d8       ??_C@_0CA@HLCLNDCM@Invalid?5ACPI?5Object?5Type?50x?$CF08X?$AA@ c003ffd8     AcpiSubsystem:nsdump.obj
 0002:000055f8       ??_C@_05CKGAGLOL@?$CF4?44s?$AA@ c003fff8     AcpiSubsystem:nsdump.obj
 0002:00005600       ??_C@_0BB@CCMENEFL@?5?$CF?912s?5?$CFp?5?$CF2?42X?5?$AA@ c0040000     AcpiSubsystem:nsdump.obj
 0002:00005614       ??_C@_04COBLKNBP@?$CIT?$CJ?5?$AA@ c0040014     AcpiSubsystem:nsdump.obj
 0002:0000561c       ??_C@_0BF@FOIHOFAO@?$DMNo?5attached?5object?$DO?$AA@ c004001c     AcpiSubsystem:nsdump.obj
 0002:00005634       ??_C@_0CC@PDMEDONF@ID?5?$CF02X?5Len?5?$CF02X?5Addr?5?$CF8?48X?$CF8?48X@ c0040034     AcpiSubsystem:nsdump.obj
 0002:00005658       ??_C@_0BD@INMIMEB@Notify?5Object?3?5?$CFp?6?$AA@ c0040058     AcpiSubsystem:nsdump.obj
 0002:0000566c       ??_C@_0BJ@PHPLGFHM@Args?5?$CFX?5Len?5?$CF?44X?5Aml?5?$CFp?6?$AA@ c004006c     AcpiSubsystem:nsdump.obj
 0002:00005688       ??_C@_0O@HHBBADBL@?$DN?5?$CF8?48X?$CF8?48X?6?$AA@ c0040088     AcpiSubsystem:nsdump.obj
 0002:00005698       ??_C@_0P@JHCLLCIG@Elements?5?$CF?42X?6?$AA@ c0040098     AcpiSubsystem:nsdump.obj
 0002:000056a8       ??_C@_0BM@IPPMKKHD@?$FLLength?5not?5yet?5evaluated?$FN?6?$AA@ c00400a8     AcpiSubsystem:nsdump.obj
 0002:000056c4       ??_C@_08HJDPBJMI@Len?5?$CF?42X?$AA@ c00400c4     AcpiSubsystem:nsdump.obj
 0002:000056d0       ??_C@_02FCBLCILD@?5?$DN?$AA@ c00400d0     AcpiSubsystem:nsdump.obj
 0002:000056d4       ??_C@_06OKDKGBBD@?5?$CF?42hX?$AA@ c00400d4     AcpiSubsystem:nsdump.obj
 0002:000056dc       ??_C@_09ECFBDJ@Len?5?$CF?42X?5?$AA@ c00400dc     AcpiSubsystem:nsdump.obj
 0002:000056e8       ??_C@_04LIFAFMCE@?$FL?$CFs?$FN?$AA@ c00400e8     AcpiSubsystem:nsdump.obj
 0002:000056f0       ??_C@_0BL@IABMNFEE@?5Addr?5?$CF8?48X?$CF8?48X?5Len?5?$CF?44X?6?$AA@ c00400f0     AcpiSubsystem:nsdump.obj
 0002:0000570c       ??_C@_0CF@HALBJPLE@?5?$FLAddress?1Length?5not?5yet?5evaluat@ c004010c     AcpiSubsystem:nsdump.obj
 0002:00005734       ??_C@_05MGFEFMAH@?$FL?$CFs?$FN?6?$AA@ c0040134     AcpiSubsystem:nsdump.obj
 0002:0000573c       ??_C@_0M@NLDHKPEJ@Buf?5?$FL?$CF4?44s?$FN?$AA@ c004013c     AcpiSubsystem:nsdump.obj
 0002:00005748       ??_C@_0M@DCGCHPEL@Rgn?5?$FL?$CF4?44s?$FN?$AA@ c0040148     AcpiSubsystem:nsdump.obj
 0002:00005754       ??_C@_0BI@GNLEJMMB@Rgn?5?$FL?$CF4?44s?$FN?5Bnk?5?$FL?$CF4?44s?$FN?$AA@ c0040154     AcpiSubsystem:nsdump.obj
 0002:0000576c       ??_C@_0BI@JPEPNENF@Idx?5?$FL?$CF4?44s?$FN?5Dat?5?$FL?$CF4?44s?$FN?$AA@ c004016c     AcpiSubsystem:nsdump.obj
 0002:00005784       ??_C@_0BD@EMOALOBG@Target?5?$CF4?44s?5?$CI?$CFp?$CJ?6?$AA@ c0040184     AcpiSubsystem:nsdump.obj
 0002:00005798       ??_C@_0L@IHECDLOP@Object?5?$CFp?6?$AA@ c0040198     AcpiSubsystem:nsdump.obj
 0002:000057a4       ??_C@_0BO@OGJOFKKE@?5Off?5?$CF?43X?5Len?5?$CF?42X?5Acc?5?$CF?42hd?6?$AA@ c00401a4     AcpiSubsystem:nsdump.obj
 0002:000057c4       ??_C@_04GNFBCCEC@O?3?$CFp?$AA@ c00401c4     AcpiSubsystem:nsdump.obj
 0002:000057cc       ??_C@_05GGIBCPPA@?$CIR?$CFu?$CJ?$AA@ c00401cc     AcpiSubsystem:nsdump.obj
 0002:000057d4       ??_C@_09MIKCAHHN@?5M?3?$CFp?9?$CFX?6?$AA@ c00401d4     AcpiSubsystem:nsdump.obj
 0002:000057e0       ??_C@_0P@BKHCEKOP@?5I?3?$CF8?48X8?48?$CFX?6?$AA@ c00401e0     AcpiSubsystem:nsdump.obj
 0002:000057f0       ??_C@_09KMKAJOJO@?5S?3?$CFp?9?$CFX?6?$AA@ c00401f0     AcpiSubsystem:nsdump.obj
 0002:000057fc       ??_C@_09BHBLMIKM@?5B?3?$CFp?9?$CFX?6?$AA@ c00401fc     AcpiSubsystem:nsdump.obj
 0002:00005808       ??_C@_0BF@PFLMHNIC@Attached?5Object?5?$CFp?3?5?$AA@ c0040208     AcpiSubsystem:nsdump.obj
 0002:00005820       ??_C@_0P@LJGKLKAB@?$CIPtr?5to?5Node?$CJ?6?$AA@ c0040220     AcpiSubsystem:nsdump.obj
 0002:00005830       ??_C@_0CO@IHFDOAOF@?$CIPointer?5to?5ACPI?5Object?5type?5?$CF?42@ c0040230     AcpiSubsystem:nsdump.obj
 0002:00005860       ??_C@_0CJ@NDPJNDJA@?$CIPointer?5to?5ACPI?5Object?5type?5?$CF?42@ c0040260     AcpiSubsystem:nsdump.obj
 0002:0000588c       ??_C@_0CG@OIJGJHGK@?$CIBuffer?1String?5pointer?5?$CFp?5length@ c004028c     AcpiSubsystem:nsdump.obj
 0002:000058b4       ??_C@_0CD@HNHLFPC@Could?5not?5acquire?5namespace?5mute@ c00402b4     AcpiSubsystem:nsdump.obj
 0002:000058d8       ??_C@_0P@BLKGJNMH@?$CF2d?$CF?$CKs?$CF?912s?$CF?$CKs?$AA@ c00402d8     AcpiSubsystem:nsdump.obj
 0002:00005930       ??_C@_0CE@EPHLJJLK@Searching?5?$CFs?5?$CI?$CFp?$CJ?5For?5?$FL?$CF4?44s?$FN?5?$CI?$CF@ c0040330     AcpiSubsystem:nssearch.obj
 0002:00005954       ??_C@_0DA@BKPDKHFG@Name?5?$FL?$CF4?44s?$FN?5?$CI?$CFs?$CJ?5?$CFp?5found?5in?5sc@ c0040354     AcpiSubsystem:nssearch.obj
 0002:00005988       ??_C@_0EK@NOEHGIIP@Name?5?$FL?$CF4?44s?$FN?5?$CI?$CFs?$CJ?5not?5found?5in?5s@ c0040388     AcpiSubsystem:nssearch.obj
 0002:000059d4       ??_C@_0BH@IGDIDIOF@?$FL?$CF4?44s?$FN?5has?5no?5parent?6?$AA@ c00403d4     AcpiSubsystem:nssearch.obj
 0002:000059f0       ??_C@_0EC@JGMDNIO@?$FL?$CF4?44s?$FN?5type?5?$FL?$CFs?$FN?5must?5be?5local?5@ c00403f0     AcpiSubsystem:nssearch.obj
 0002:00005a34       ??_C@_0CG@JHNODLF@Searching?5parent?5?$FL?$CF4?44s?$FN?5for?5?$FL?$CF4@ c0040434     AcpiSubsystem:nssearch.obj
 0002:00005a5c       ??_C@_0DA@FHAAEHOC@Null?5parameter?3?5Node?5?$CFp?5Name?50x?$CF@ c004045c     AcpiSubsystem:nssearch.obj
 0002:00005a8c       ??_C@_0DE@GGBHDJKK@Namespace?5override?3?5?$CF4?44s?5pass?5?$CF@ c004048c     AcpiSubsystem:nssearch.obj
 0002:00005ac0       ??_C@_0CE@CDDNMLBF@?$CF4?44s?5Not?5found?5in?5?$CFp?5?$FLNot?5addin@ c00404c0     AcpiSubsystem:nssearch.obj
 0002:00005b28       ??_C@_0BJ@KHHKMODL@Popped?5object?5type?5?$CI?$CFs?$CJ?6?$AA@ c0040528     AcpiSubsystem:dswscope.obj
 0002:00005b44       ??_C@_0BF@PMGBACAC@Null?5scope?5parameter?$AA@ c0040544     AcpiSubsystem:dswscope.obj
 0002:00005b5c       ??_C@_0BK@CEGJKEDB@Invalid?5object?5type?3?50x?$CFX?$AA@ c004055c     AcpiSubsystem:dswscope.obj
 0002:00005b78       ??_C@_0BF@ONJGMCDB@?$FL?$CF?42d?$FN?5Pushed?5scope?5?$AA@ c0040578     AcpiSubsystem:dswscope.obj
 0002:00005b90       ??_C@_0N@DHHNGOHN@?$FL?$CF4?44s?$FN?5?$CI?$CFs?$CJ?$AA@ c0040590     AcpiSubsystem:dswscope.obj
 0002:00005ba0       ??_C@_04BNGIIOIP@ROOT?$AA@ c00405a0     AcpiSubsystem:dswscope.obj
 0002:00005ba8       ??_C@_0M@ODJHMFBD@?$FL?2___?$FN?5?$CI?$CFs?$CJ?$AA@ c00405a8     AcpiSubsystem:dswscope.obj
 0002:00005bb4       ??_C@_0BN@KIOPLCCM@?0?5New?5scope?5?9?$DO?5?$FL?$CF4?44s?$FN?5?$CI?$CFs?$CJ?6?$AA@ c00405b4     AcpiSubsystem:dswscope.obj
 0002:00005bd4       ??_C@_0DA@CBGDLDAG@?$FL?$CF?42d?$FN?5Popped?5scope?5?$FL?$CF4?44s?$FN?5?$CI?$CFs?$CJ@ c00405d4     AcpiSubsystem:dswscope.obj
 0002:00005c04       ??_C@_0O@NEGMJIGF@?$FL?$CF4?44s?$FN?5?$CI?$CFs?$CJ?6?$AA@ c0040604     AcpiSubsystem:dswscope.obj
 0002:00005c14       ??_C@_0P@DJPJOKI@?$FL?2___?$FN?5?$CIROOT?$CJ?6?$AA@ c0040614     AcpiSubsystem:dswscope.obj
 0002:00005c30       ??_C@_08JNGACCLC@?1Integer?$AA@ c0040630     AcpiSubsystem:utpredef.obj
 0002:00005c3c       ??_C@_07JFMMPMPN@?1String?$AA@ c004063c     AcpiSubsystem:utpredef.obj
 0002:00005c44       ??_C@_07GJNKJAMD@?1Buffer?$AA@ c0040644     AcpiSubsystem:utpredef.obj
 0002:00005c4c       ??_C@_08IKFDPLDN@?1Package?$AA@ c004064c     AcpiSubsystem:utpredef.obj
 0002:00005c58       ??_C@_0L@HLNJFDLO@?1Reference?$AA@ c0040658     AcpiSubsystem:utpredef.obj
 0002:00005c64       ??_C@_04OKGDLNCL@NONE?$AA@ c0040664     AcpiSubsystem:utpredef.obj
 0002:00005c74       ??_C@_0BD@CBKAMFOE@ACPI?5Warning?3?5?$CFs?3?5?$AA@ c0040674     AcpiSubsystem:uterror.obj
 0002:00005c88       ??_C@_0L@HFNPLIOH@ACPI?3?5?$CFs?3?5?$AA@ c0040688     AcpiSubsystem:uterror.obj
 0002:00005c94       ??_C@_0BM@MPFNJJMB@ACPI?5BIOS?5Error?5?$CIbug?$CJ?3?5?$CFs?3?5?$AA@ c0040694     AcpiSubsystem:uterror.obj
 0002:00005cb0       ??_C@_0BF@MJFNMMDO@?$FL0x?$CF?48X?$FN?5?$CINON?9ASCII?$CJ?$AA@ c00406b0     AcpiSubsystem:uterror.obj
 0002:00005cc8       ??_C@_0BN@NOLPJEDB@?$FLCOULD?5NOT?5EXTERNALIZE?5NAME?$FN?$AA@ c00406c8     AcpiSubsystem:uterror.obj
 0002:00005ce8       ??_C@_0BO@DCPNDCHF@?5Namespace?5lookup?5failure?0?5?$CFs?$AA@ c00406e8     AcpiSubsystem:uterror.obj
 0002:00005d08       ??_C@_0CB@LPJFGMAD@?$FLCould?5not?5get?5node?5by?5pathname?$FN@ c0040708     AcpiSubsystem:uterror.obj
 0002:00005d2c       ??_C@_04KHEKMLOH@?0?5?$CFs?$AA@ c004072c     AcpiSubsystem:uterror.obj
 0002:00005d4c       ??_C@_0DN@FNJPDKEF@?$CK?$CK?$CK?$CK?5Begin?5Method?5Parse?1Execute?5@ c004074c     AcpiSubsystem:psxface.obj
 0002:00005d8c       ??_C@_0BM@HPJKDKHE@Method?5returned?5ObjDesc?$DN?$CFp?6?$AA@ c004078c     AcpiSubsystem:psxface.obj
 0002:00005dcc       ??_C@_0BN@HFIBJMAC@Entry?$DN?$CFp?5SourceDesc?$DN?$CFp?5?$FL?$CFs?$FN?6?$AA@ c00407cc     AcpiSubsystem:exresnte.obj
 0002:00005dec       ??_C@_0CG@HLJJEACG@No?5object?5attached?5to?5node?5?$FL?$CF4?44@ c00407ec     AcpiSubsystem:exresnte.obj
 0002:00005e14       ??_C@_0BO@LHPLEOCC@Object?5not?5a?5Package?0?5type?5?$CFs?$AA@ c0040814     AcpiSubsystem:exresnte.obj
 0002:00005e34       ??_C@_0BN@MCGABPEC@Object?5not?5a?5Buffer?0?5type?5?$CFs?$AA@ c0040834     AcpiSubsystem:exresnte.obj
 0002:00005e54       ??_C@_0BN@MFIJMBGA@Object?5not?5a?5String?0?5type?5?$CFs?$AA@ c0040854     AcpiSubsystem:exresnte.obj
 0002:00005e74       ??_C@_0BO@JABNGBGH@Object?5not?5a?5Integer?0?5type?5?$CFs?$AA@ c0040874     AcpiSubsystem:exresnte.obj
 0002:00005e94       ??_C@_0CJ@FLNNKMNE@FieldRead?5Node?$DN?$CFp?5SourceDesc?$DN?$CFp?5@ c0040894     AcpiSubsystem:exresnte.obj
 0002:00005ec0       ??_C@_0CG@LCBNLDCP@Untyped?5entry?5?$CFp?0?5no?5attached?5ob@ c00408c0     AcpiSubsystem:exresnte.obj
 0002:00005ee8       ??_C@_0CA@LNGINJD@Unsupported?5Reference?5type?50x?$CFX?$AA@ c00408e8     AcpiSubsystem:exresnte.obj
 0002:00005f08       ??_C@_0CD@FLEGKFPE@Node?5?$CFp?5?9?5Unknown?5object?5type?50x@ c0040908     AcpiSubsystem:exresnte.obj
 0002:00005f38       ??_C@_0DM@LOEKFHML@Argument?5?$CD?$CFu?5type?5mismatch?5?9?5Fou@ c0040938     AcpiSubsystem:nsarguments.obj
 0002:00005f74       ??_C@_0DH@BOOMKFHL@Object?5?$CI?$CFs?$CJ?5must?5be?5a?5control?5me@ c0040974     AcpiSubsystem:nsarguments.obj
 0002:00005fb0       ??_C@_0EL@NMJOGKFA@Object?5?$CI?$CFs?$CJ?5must?5be?5a?5control?5me@ c00409b0     AcpiSubsystem:nsarguments.obj
 0002:00005ffc       ??_C@_0DL@CADDEEDA@Insufficient?5arguments?5?9?5ASL?5dec@ c00409fc     AcpiSubsystem:nsarguments.obj
 0002:00006038       ??_C@_0DF@LIGFDMIC@Excess?5arguments?5?9?5ASL?5declared?5@ c0040a38     AcpiSubsystem:nsarguments.obj
 0002:00006070       ??_C@_0DK@GNNHFPNI@?$CFu?5arguments?5were?5passed?5to?5a?5no@ c0040a70     AcpiSubsystem:nsarguments.obj
 0002:000060ac       ??_C@_0DO@BIGANCFH@Insufficient?5arguments?5?9?5Caller?5@ c0040aac     AcpiSubsystem:nsarguments.obj
 0002:000060ec       ??_C@_0DI@LLFEPPIO@Excess?5arguments?5?9?5Caller?5passed@ c0040aec     AcpiSubsystem:nsarguments.obj
 0002:00006124       ??_C@_0DM@MEGNIJCI@Insufficient?5arguments?5?9?5Caller?5@ c0040b24     AcpiSubsystem:nsarguments.obj
 0002:00006160       ??_C@_0DG@OBJKANPA@Excess?5arguments?5?9?5Caller?5passed@ c0040b60     AcpiSubsystem:nsarguments.obj
 0002:00006198       _AcpiGbl_PredefinedMethods c0040b98     AcpiSubsystem:nspredef.obj
 0002:00006a10       ??_C@_0DN@KPCNNPAL@Invalid?5return?5type?5?9?5Found?5a?5Na@ c0041410     AcpiSubsystem:nspredef.obj
 0002:00006a50       ??_C@_0CC@IAHBGCGO@Expected?5return?5object?5of?5type?5?$CF@ c0041450     AcpiSubsystem:nspredef.obj
 0002:00006a74       ??_C@_0CN@FDFCEDME@Return?5type?5mismatch?5?9?5found?5?$CFs?0@ c0041474     AcpiSubsystem:nspredef.obj
 0002:00006aa8       ??_C@_0EB@GGIMIAML@Return?5Package?5type?5mismatch?5at?5@ c00414a8     AcpiSubsystem:nspredef.obj
 0002:00006af0       ??_C@_0ED@HPKEEKPJ@Return?5type?5mismatch?5?9?5unexpecte@ c00414f0     AcpiSubsystem:nspredef.obj
 0002:00006f64       ??_C@_0M@MMPFPHND@?$DMNOT?5FOUND?$DO?$AA@ c0041964     AcpiSubsystem:dbinput.obj
 0002:00006f70       ??_C@_06CBHGEMFM@?$DMNULL?$DO?$AA@ c0041970     AcpiSubsystem:dbinput.obj
 0002:00006f78       ??_C@_0M@NJGEEPPD@ALLOCATIONS?$AA@ c0041978     AcpiSubsystem:dbinput.obj
 0002:00006f84       ??_C@_04NJAJCLOA@ARGS?$AA@ c0041984     AcpiSubsystem:dbinput.obj
 0002:00006f8c       ??_C@_09MBCBPGHN@ARGUMENTS?$AA@ c004198c     AcpiSubsystem:dbinput.obj
 0002:00006f98       ??_C@_0L@EGBPFLC@BREAKPOINT?$AA@ c0041998     AcpiSubsystem:dbinput.obj
 0002:00006fa4       ??_C@_07CHEMOOMB@BUSINFO?$AA@ c00419a4     AcpiSubsystem:dbinput.obj
 0002:00006fac       ??_C@_04CAGKGBIO@CALL?$AA@ c00419ac     AcpiSubsystem:dbinput.obj
 0002:00006fb4       ??_C@_05HKHBPABE@CLOSE?$AA@ c00419b4     AcpiSubsystem:dbinput.obj
 0002:00006fbc       ??_C@_05KOLFGEDA@DEBUG?$AA@ c00419bc     AcpiSubsystem:dbinput.obj
 0002:00006fc4       ??_C@_0M@HCHBOHAA@DISASSEMBLE?$AA@ c00419c4     AcpiSubsystem:dbinput.obj
 0002:00006fd0       ??_C@_06INLGABKN@DISASM?$AA@ c00419d0     AcpiSubsystem:dbinput.obj
 0002:00006fd8       ??_C@_04KKIEEKDM@DUMP?$AA@ c00419d8     AcpiSubsystem:dbinput.obj
 0002:00006fe0       ??_C@_0L@GMEOMGHN@ENABLEACPI?$AA@ c00419e0     AcpiSubsystem:dbinput.obj
 0002:00006fec       ??_C@_08LBLMKBEN@EVALUATE?$AA@ c00419ec     AcpiSubsystem:dbinput.obj
 0002:00006ff8       ??_C@_05KOOCGPHN@EVENT?$AA@ c00419f8     AcpiSubsystem:dbinput.obj
 0002:00007000       ??_C@_07LBDEDADF@EXECUTE?$AA@ c0041a00     AcpiSubsystem:dbinput.obj
 0002:00007008       ??_C@_04GOLNGIJ@EXIT?$AA@  c0041a08     AcpiSubsystem:dbinput.obj
 0002:00007010       ??_C@_04OGGDJIHH@FIND?$AA@ c0041a10     AcpiSubsystem:dbinput.obj
 0002:00007018       ??_C@_02CIKOOGC@GO?$AA@    c0041a18     AcpiSubsystem:dbinput.obj
 0002:0000701c       ??_C@_03DJMKNFJH@GPE?$AA@  c0041a1c     AcpiSubsystem:dbinput.obj
 0002:00007020       ??_C@_04PPMEMCKF@GPES?$AA@ c0041a20     AcpiSubsystem:dbinput.obj
 0002:00007028       ??_C@_08NGBBCHGN@HANDLERS?$AA@ c0041a28     AcpiSubsystem:dbinput.obj
 0002:00007034       ??_C@_04DOKPJKJF@HELP?$AA@ c0041a34     AcpiSubsystem:dbinput.obj
 0002:0000703c       ??_C@_07DBIJIOJO@HISTORY?$AA@ c0041a3c     AcpiSubsystem:dbinput.obj
 0002:00007044       ??_C@_01DCLJPIOD@?$CB?$AA@ c0041a44     AcpiSubsystem:dbinput.obj
 0002:00007048       ??_C@_02LFKOBPNJ@?$CB?$CB?$AA@ c0041a48     AcpiSubsystem:dbinput.obj
 0002:0000704c       ??_C@_0M@PHDJNCCI@INFORMATION?$AA@ c0041a4c     AcpiSubsystem:dbinput.obj
 0002:00007058       ??_C@_09BJILBFCN@INTEGRITY?$AA@ c0041a58     AcpiSubsystem:dbinput.obj
 0002:00007064       ??_C@_04LKBMIHC@INTO?$AA@  c0041a64     AcpiSubsystem:dbinput.obj
 0002:0000706c       ??_C@_05GCEPFMCO@LEVEL?$AA@ c0041a6c     AcpiSubsystem:dbinput.obj
 0002:00007074       ??_C@_04PCOPKCKE@LIST?$AA@ c0041a74     AcpiSubsystem:dbinput.obj
 0002:0000707c       ??_C@_04ICOEJIDH@LOAD?$AA@ c0041a7c     AcpiSubsystem:dbinput.obj
 0002:00007084       ??_C@_06MLNLOAMH@LOCALS?$AA@ c0041a84     AcpiSubsystem:dbinput.obj
 0002:0000708c       ??_C@_05IIPMMALG@LOCKS?$AA@ c0041a8c     AcpiSubsystem:dbinput.obj
 0002:00007094       ??_C@_07OEJIJHPN@METHODS?$AA@ c0041a94     AcpiSubsystem:dbinput.obj
 0002:0000709c       ??_C@_09JPDHDICP@NAMESPACE?$AA@ c0041a9c     AcpiSubsystem:dbinput.obj
 0002:000070a8       ??_C@_06LMEIPPMP@NOTIFY?$AA@ c0041aa8     AcpiSubsystem:dbinput.obj
 0002:000070b0       ??_C@_07PEKGBFJM@OBJECTS?$AA@ c0041ab0     AcpiSubsystem:dbinput.obj
 0002:000070b8       ??_C@_04DANIOFHI@OPEN?$AA@ c0041ab8     AcpiSubsystem:dbinput.obj
 0002:000070c0       ??_C@_03FCINAMCN@OSI?$AA@  c0041ac0     AcpiSubsystem:dbinput.obj
 0002:000070c4       ??_C@_05LPBHKKMN@OWNER?$AA@ c0041ac4     AcpiSubsystem:dbinput.obj
 0002:000070cc       ??_C@_05IMFAGNEI@PATHS?$AA@ c0041acc     AcpiSubsystem:dbinput.obj
 0002:000070d4       ??_C@_0L@GLKLCMKO@PREDEFINED?$AA@ c0041ad4     AcpiSubsystem:dbinput.obj
 0002:000070e0       ??_C@_06CDEFNBAB@PREFIX?$AA@ c0041ae0     AcpiSubsystem:dbinput.obj
 0002:000070e8       ??_C@_04GBOBDPBG@QUIT?$AA@ c0041ae8     AcpiSubsystem:dbinput.obj
 0002:000070f0       ??_C@_0L@GCLGGDBA@REFERENCES?$AA@ c0041af0     AcpiSubsystem:dbinput.obj
 0002:000070fc       ??_C@_09CMINMFIB@RESOURCES?$AA@ c0041afc     AcpiSubsystem:dbinput.obj
 0002:00007108       ??_C@_07MKOFNLGP@RESULTS?$AA@ c0041b08     AcpiSubsystem:dbinput.obj
 0002:00007110       ??_C@_03FEGEEHHK@SCI?$AA@  c0041b10     AcpiSubsystem:dbinput.obj
 0002:00007114       ??_C@_03KPIFFHNE@SET?$AA@  c0041b14     AcpiSubsystem:dbinput.obj
 0002:00007118       ??_C@_05DJAECLDN@SLEEP?$AA@ c0041b18     AcpiSubsystem:dbinput.obj
 0002:00007120       ??_C@_05NADPPKKN@STATS?$AA@ c0041b20     AcpiSubsystem:dbinput.obj
 0002:00007128       ??_C@_04MDHMLCKF@STOP?$AA@ c0041b28     AcpiSubsystem:dbinput.obj
 0002:00007130       ??_C@_06GFDLJJPM@TABLES?$AA@ c0041b30     AcpiSubsystem:dbinput.obj
 0002:00007138       ??_C@_08CGHHJMNA@TEMPLATE?$AA@ c0041b38     AcpiSubsystem:dbinput.obj
 0002:00007144       ??_C@_09NHKIAJ@TERMINATE?$AA@ c0041b44     AcpiSubsystem:dbinput.obj
 0002:00007150       ??_C@_04OIKJMBFP@TEST?$AA@ c0041b50     AcpiSubsystem:dbinput.obj
 0002:00007158       ??_C@_07CIKNIMKC@THREADS?$AA@ c0041b58     AcpiSubsystem:dbinput.obj
 0002:00007160       ??_C@_05EHILDPJH@TRACE?$AA@ c0041b60     AcpiSubsystem:dbinput.obj
 0002:00007168       ??_C@_04GOBFFCKL@TREE?$AA@ c0041b68     AcpiSubsystem:dbinput.obj
 0002:00007170       ??_C@_04KDPJLEDB@TYPE?$AA@ c0041b70     AcpiSubsystem:dbinput.obj
 0002:00007178       ??_C@_06JNBFBNFI@UNLOAD?$AA@ c0041b78     AcpiSubsystem:dbinput.obj
 0002:00007180       ??_C@_0BL@IFINHCJF@?6General?9Purpose?5Commands?3?$AA@ c0041b80     AcpiSubsystem:dbinput.obj
 0002:0000719c       ??_C@_0O@LLHNHBFG@?5?5Allocations?$AA@ c0041b9c     AcpiSubsystem:dbinput.obj
 0002:000071ac       ??_C@_0CM@EOCCJDOK@Display?5list?5of?5current?5memory?5a@ c0041bac     AcpiSubsystem:dbinput.obj
 0002:000071d8       ??_C@_0BM@DGFLACMB@?5?5Dump?5?$DMAddress?$DO?$HM?$DMNamepath?$DO?$AA@ c0041bd8     AcpiSubsystem:dbinput.obj
 0002:000071f4       ??_C@_0BP@LEICJNEC@?5?5?5?5?5?5?5?$FLByte?$HMWord?$HMDword?$HMQword?$FN?$AA@ c0041bf4     AcpiSubsystem:dbinput.obj
 0002:00007214       ??_C@_0CA@MBFKEMGH@Display?5ACPI?5objects?5or?5memory?6?$AA@ c0041c14     AcpiSubsystem:dbinput.obj
 0002:00007234       ??_C@_0N@FCMCLDON@?5?5EnableAcpi?$AA@ c0041c34     AcpiSubsystem:dbinput.obj
 0002:00007244       ??_C@_0BN@HDGEMJLN@Enable?5ACPI?5?$CIhardware?$CJ?5mode?6?$AA@ c0041c44     AcpiSubsystem:dbinput.obj
 0002:00007264       ??_C@_0L@GPADLCKM@?5?5Handlers?$AA@ c0041c64     AcpiSubsystem:dbinput.obj
 0002:00007270       ??_C@_0BM@FEOHGCOP@Info?5about?5global?5handlers?6?$AA@ c0041c70     AcpiSubsystem:dbinput.obj
 0002:0000728c       ??_C@_0BB@PKFECDBO@?5?5Help?5?$FLCommand?$FN?$AA@ c0041c8c     AcpiSubsystem:dbinput.obj
 0002:000072a0       ??_C@_0CI@GOFCPDEP@This?5help?5screen?5or?5individual?5c@ c0041ca0     AcpiSubsystem:dbinput.obj
 0002:000072c8       ??_C@_09HOKGGGCA@?5?5History?$AA@ c0041cc8     AcpiSubsystem:dbinput.obj
 0002:000072d4       ??_C@_0CA@OFHDPAEE@Display?5command?5history?5buffer?6?$AA@ c0041cd4     AcpiSubsystem:dbinput.obj
 0002:000072f4       ??_C@_0CA@MJGLCMPE@?5?5Level?5?$DMDebugLevel?$DO?$FN?5?$FLconsole?$FN?$AA@ c0041cf4     AcpiSubsystem:dbinput.obj
 0002:00007314       ??_C@_0CJ@OFOGKOBA@Get?1Set?5debug?5level?5for?5file?5or?5@ c0041d14     AcpiSubsystem:dbinput.obj
 0002:00007340       ??_C@_07KGONAHMO@?5?5Locks?$AA@ c0041d40     AcpiSubsystem:dbinput.obj
 0002:00007348       ??_C@_0CE@CJFPNGGM@Current?5status?5of?5internal?5mutex@ c0041d48     AcpiSubsystem:dbinput.obj
 0002:0000736c       ??_C@_0BO@MBFCJLLP@?5?5Osi?5?$FLInstall?$HMRemove?5?$DMname?$DO?$FN?$AA@ c0041d6c     AcpiSubsystem:dbinput.obj
 0002:0000738c       ??_C@_0CE@NFOKKHCC@Display?5or?5modify?5global?5_OSI?5li@ c0041d8c     AcpiSubsystem:dbinput.obj
 0002:000073b0       ??_C@_0P@BEOPMIIG@?5?5Quit?5or?5Exit?$AA@ c0041db0     AcpiSubsystem:dbinput.obj
 0002:000073c0       ??_C@_0BD@NLGMEACP@Exit?5this?5command?6?$AA@ c0041dc0     AcpiSubsystem:dbinput.obj
 0002:000073d4       ??_C@_0BF@GEGMBKFA@?5?5Stats?5?$DMSubCommand?$DO?$AA@ c0041dd4     AcpiSubsystem:dbinput.obj
 0002:000073ec       ??_C@_0CJ@BDMGDCCG@Display?5namespace?5and?5memory?5sta@ c0041dec     AcpiSubsystem:dbinput.obj
 0002:00007418       ??_C@_0BB@BCHAIODF@?5?5?5?5?5Allocations?$AA@ c0041e18     AcpiSubsystem:dbinput.obj
 0002:0000742c       ??_C@_0M@PINHCOOC@?5?5?5?5?5Memory?$AA@ c0041e2c     AcpiSubsystem:dbinput.obj
 0002:00007438       ??_C@_0BM@IBIGEFLE@Dump?5internal?5memory?5lists?6?$AA@ c0041e38     AcpiSubsystem:dbinput.obj
 0002:00007454       ??_C@_09BOJEICBK@?5?5?5?5?5Misc?$AA@ c0041e54     AcpiSubsystem:dbinput.obj
 0002:00007460       ??_C@_0CC@IKNHBJLM@Namespace?5search?5and?5mutex?5stats@ c0041e60     AcpiSubsystem:dbinput.obj
 0002:00007484       ??_C@_0N@HKKEMMAM@?5?5?5?5?5Objects?$AA@ c0041e84     AcpiSubsystem:dbinput.obj
 0002:00007494       ??_C@_0BO@PBIOMKMO@Summary?5of?5namespace?5objects?6?$AA@ c0041e94     AcpiSubsystem:dbinput.obj
 0002:000074b4       ??_C@_0L@LJDHBHBO@?5?5?5?5?5Sizes?$AA@ c0041eb4     AcpiSubsystem:dbinput.obj
 0002:000074c0       ??_C@_0CI@LOMBNPDK@Sizes?5for?5each?5of?5the?5internal?5o@ c0041ec0     AcpiSubsystem:dbinput.obj
 0002:000074e8       ??_C@_0L@CAMJHAFI@?5?5?5?5?5Stack?$AA@ c0041ee8     AcpiSubsystem:dbinput.obj
 0002:000074f4       ??_C@_0BJ@DMGHADCJ@Display?5CPU?5stack?5usage?6?$AA@ c0041ef4     AcpiSubsystem:dbinput.obj
 0002:00007510       ??_C@_0M@OCGDNAKJ@?5?5?5?5?5Tables?$AA@ c0041f10     AcpiSubsystem:dbinput.obj
 0002:0000751c       ??_C@_0CC@GHFHHHPI@Info?5about?5current?5ACPI?5table?$CIs?$CJ@ c0041f1c     AcpiSubsystem:dbinput.obj
 0002:00007540       ??_C@_08KOEPFFJH@?5?5Tables?$AA@ c0041f40     AcpiSubsystem:dbinput.obj
 0002:0000754c       ??_C@_0CH@LHGMOOH@Display?5info?5about?5loaded?5ACPI?5t@ c0041f4c     AcpiSubsystem:dbinput.obj
 0002:00007574       ??_C@_0BE@PGGMDFCB@?5?5Unload?5?$DMNamepath?$DO?$AA@ c0041f74     AcpiSubsystem:dbinput.obj
 0002:00007588       ??_C@_0CL@PHOBJPFA@Unload?5an?5ACPI?5table?5via?5namespa@ c0041f88     AcpiSubsystem:dbinput.obj
 0002:000075b4       ??_C@_0BE@GIFOAPGL@?5?5?$CB?5?$DMCommandNumber?$DO?$AA@ c0041fb4     AcpiSubsystem:dbinput.obj
 0002:000075c8       ??_C@_0CF@MOBAEMGD@Execute?5command?5from?5history?5buf@ c0041fc8     AcpiSubsystem:dbinput.obj
 0002:000075f0       ??_C@_04ONDOLBOM@?5?5?$CB?$CB?$AA@ c0041ff0     AcpiSubsystem:dbinput.obj
 0002:000075f8       ??_C@_0BM@CJOLIDEL@Execute?5last?5command?5again?6?$AA@ c0041ff8     AcpiSubsystem:dbinput.obj
 0002:00007614       ??_C@_0BM@JBLMICOI@?6Namespace?5Access?5Commands?3?$AA@ c0042014     AcpiSubsystem:dbinput.obj
 0002:00007630       ??_C@_09GIGDAGHP@?5?5Businfo?$AA@ c0042030     AcpiSubsystem:dbinput.obj
 0002:0000763c       ??_C@_0BJ@HNGOIPNF@Display?5system?5bus?5info?6?$AA@ c004203c     AcpiSubsystem:dbinput.obj
 0002:00007658       ??_C@_0BH@LEAPMCGK@?5?5Disassemble?5?$DMMethod?$DO?$AA@ c0042058     AcpiSubsystem:dbinput.obj
 0002:00007670       ??_C@_0BO@KIOCDALB@Disassemble?5a?5control?5method?6?$AA@ c0042070     AcpiSubsystem:dbinput.obj
 0002:00007690       ??_C@_0CC@NKDHDLFH@?5?5Find?5?$DMAcpiName?$DO?5?$CI?$DP?5is?5wildcard@ c0042090     AcpiSubsystem:dbinput.obj
 0002:000076b4       ??_C@_0CC@JHCALDHD@Find?5ACPI?5name?$CIs?$CJ?5with?5wildcards@ c00420b4     AcpiSubsystem:dbinput.obj
 0002:000076d8       ??_C@_0M@GANFNBDM@?5?5Integrity?$AA@ c00420d8     AcpiSubsystem:dbinput.obj
 0002:000076e4       ??_C@_0BO@GPKCBEMI@Validate?5namespace?5integrity?6?$AA@ c00420e4     AcpiSubsystem:dbinput.obj
 0002:00007704       ??_C@_09KLLHHPED@?5?5Methods?$AA@ c0042104     AcpiSubsystem:dbinput.obj
 0002:00007710       ??_C@_0CI@FDGHLFJI@Display?5list?5of?5loaded?5control?5m@ c0042110     AcpiSubsystem:dbinput.obj
 0002:00007738       ??_C@_0BN@FBMNPAGP@?5?5Namespace?5?$FLObject?$FN?5?$FLDepth?$FN?$AA@ c0042138     AcpiSubsystem:dbinput.obj
 0002:00007758       ??_C@_0CH@LEKEBKMN@Display?5loaded?5namespace?5tree?1su@ c0042158     AcpiSubsystem:dbinput.obj
 0002:00007780       ??_C@_0BK@HEHICNGC@?5?5Notify?5?$DMObject?$DO?5?$DMValue?$DO?$AA@ c0042180     AcpiSubsystem:dbinput.obj
 0002:0000779c       ??_C@_0BP@GDDBNLDK@Send?5a?5notification?5on?5Object?6?$AA@ c004219c     AcpiSubsystem:dbinput.obj
 0002:000077bc       ??_C@_0BH@PIBLDIKD@?5?5Objects?5?$DMObjectType?$DO?$AA@ c00421bc     AcpiSubsystem:dbinput.obj
 0002:000077d4       ??_C@_0CH@DNNNGIJJ@Display?5all?5objects?5of?5the?5given@ c00421d4     AcpiSubsystem:dbinput.obj
 0002:000077fc       ??_C@_0BK@DIJLNPKJ@?5?5Owner?5?$DMOwnerId?$DO?5?$FLDepth?$FN?$AA@ c00421fc     AcpiSubsystem:dbinput.obj
 0002:00007818       ??_C@_0CK@CDINIBAI@Display?5loaded?5namespace?5by?5obje@ c0042218     AcpiSubsystem:dbinput.obj
 0002:00007844       ??_C@_07KCEBKKDA@?5?5Paths?$AA@ c0042244     AcpiSubsystem:dbinput.obj
 0002:0000784c       ??_C@_0CN@EMDPPGFH@Display?5full?5pathnames?5of?5namesp@ c004224c     AcpiSubsystem:dbinput.obj
 0002:0000787c       ??_C@_0N@JEOGHGDK@?5?5Predefined?$AA@ c004227c     AcpiSubsystem:dbinput.obj
 0002:0000788c       ??_C@_0BM@KIAFIKE@Check?5all?5predefined?5names?6?$AA@ c004228c     AcpiSubsystem:dbinput.obj
 0002:000078a8       ??_C@_0BG@OFKPNABP@?5?5Prefix?5?$FL?$DMNamePath?$DO?$FN?$AA@ c00422a8     AcpiSubsystem:dbinput.obj
 0002:000078c0       ??_C@_0CF@MFHNOFMB@Set?5or?5Get?5current?5execution?5pre@ c00422c0     AcpiSubsystem:dbinput.obj
 0002:000078e8       ??_C@_0BE@LDBFKCJC@?5?5References?5?$DMAddr?$DO?$AA@ c00422e8     AcpiSubsystem:dbinput.obj
 0002:000078fc       ??_C@_0CH@FJDLBMOL@Find?5all?5references?5to?5object?5at@ c00422fc     AcpiSubsystem:dbinput.obj
 0002:00007924       ??_C@_0BJ@OCLBHMDM@?5?5Resources?5?$FLDeviceName?$FN?$AA@ c0042324     AcpiSubsystem:dbinput.obj
 0002:00007940       ??_C@_0DB@MMGAJGGH@Display?5Device?5resources?5?$CIno?5arg@ c0042340     AcpiSubsystem:dbinput.obj
 0002:00007974       ??_C@_0BO@NKDLCJDH@?5?5Set?5N?5?$DMNamedObject?$DO?5?$DMValue?$DO?$AA@ c0042374     AcpiSubsystem:dbinput.obj
 0002:00007994       ??_C@_0BN@DGNMICFA@Set?5value?5for?5named?5integer?6?$AA@ c0042394     AcpiSubsystem:dbinput.obj
 0002:000079b4       ??_C@_0BE@DJJFGAEL@?5?5Template?5?$DMObject?$DO?$AA@ c00423b4     AcpiSubsystem:dbinput.obj
 0002:000079c8       ??_C@_0CH@GNGABMNO@Format?1dump?5a?5Buffer?1ResourceTem@ c00423c8     AcpiSubsystem:dbinput.obj
 0002:000079f0       ??_C@_0M@HJIJGMBI@?5?5Terminate?$AA@ c00423f0     AcpiSubsystem:dbinput.obj
 0002:000079fc       ??_C@_0CL@JPPNBGFN@Delete?5namespace?5and?5all?5interna@ c00423fc     AcpiSubsystem:dbinput.obj
 0002:00007a28       ??_C@_0BA@CCGOJCKL@?5?5Type?5?$DMObject?$DO?$AA@ c0042428     AcpiSubsystem:dbinput.obj
 0002:00007a38       ??_C@_0BF@JOCAAF@Display?5object?5type?6?$AA@ c0042438     AcpiSubsystem:dbinput.obj
 0002:00007a50       ??_C@_0CE@OJHJMBDG@?6Control?5Method?5Execution?5Comman@ c0042450     AcpiSubsystem:dbinput.obj
 0002:00007a74       ??_C@_0BG@CGOEEPJI@?5?5Arguments?5?$CIor?5Args?$CJ?$AA@ c0042474     AcpiSubsystem:dbinput.obj
 0002:00007a8c       ??_C@_0BK@PFDEIOLJ@Display?5method?5arguments?6?$AA@ c004248c     AcpiSubsystem:dbinput.obj
 0002:00007aa8       ??_C@_0BJ@JJFPIGKG@?5?5Breakpoint?5?$DMAmlOffset?$DO?$AA@ c00424a8     AcpiSubsystem:dbinput.obj
 0002:00007ac4       ??_C@_0CB@OIONDILA@Set?5an?5AML?5execution?5breakpoint?6@ c00424c4     AcpiSubsystem:dbinput.obj
 0002:00007ae8       ??_C@_06LOMOLIDL@?5?5Call?$AA@ c00424e8     AcpiSubsystem:dbinput.obj
 0002:00007af0       ??_C@_0CH@DFNBNPEI@Run?5to?5next?5control?5method?5invoc@ c00424f0     AcpiSubsystem:dbinput.obj
 0002:00007b18       ??_C@_0BP@NOIOJJHP@?5?5Debug?5?$DMNamepath?$DO?5?$FLArguments?$FN?$AA@ c0042518     AcpiSubsystem:dbinput.obj
 0002:00007b38       ??_C@_0BO@FOOKNFGB@Single?5Step?5a?5control?5method?6?$AA@ c0042538     AcpiSubsystem:dbinput.obj
 0002:00007b58       ??_C@_0L@IKODEIM@?5?5Evaluate?$AA@ c0042558     AcpiSubsystem:dbinput.obj
 0002:00007b64       ??_C@_0BF@CAFCJJEK@Synonym?5for?5Execute?6?$AA@ c0042564     AcpiSubsystem:dbinput.obj
 0002:00007b7c       ??_C@_0CB@LJJIMOPB@?5?5Execute?5?$DMNamepath?$DO?5?$FLArguments?$FN@ c004257c     AcpiSubsystem:dbinput.obj
 0002:00007ba0       ??_C@_0BI@NJJAFFEI@Execute?5control?5method?6?$AA@ c00425a0     AcpiSubsystem:dbinput.obj
 0002:00007bb8       ??_C@_0BB@FAAOHCFM@?5?5?5?5?5Hex?5Integer?$AA@ c00425b8     AcpiSubsystem:dbinput.obj
 0002:00007bcc       ??_C@_0BJ@EIHGGFAM@Integer?5method?5argument?6?$AA@ c00425cc     AcpiSubsystem:dbinput.obj
 0002:00007be8       ??_C@_0BE@KIIACDBK@?5?5?5?5?5?$CCAscii?5String?$CC?$AA@ c00425e8     AcpiSubsystem:dbinput.obj
 0002:00007bfc       ??_C@_0BI@ILBNCKBL@String?5method?5argument?6?$AA@ c00425fc     AcpiSubsystem:dbinput.obj
 0002:00007c14       ??_C@_0BF@LEFPBDM@?5?5?5?5?5?$CIHex?5Byte?5List?$CJ?$AA@ c0042614     AcpiSubsystem:dbinput.obj
 0002:00007c2c       ??_C@_0BI@EINJKBHC@Buffer?5method?5argument?6?$AA@ c004262c     AcpiSubsystem:dbinput.obj
 0002:00007c44       ??_C@_0BM@PPEKKHEH@?5?5?5?5?5?$FLPackage?5Element?5List?$FN?$AA@ c0042644     AcpiSubsystem:dbinput.obj
 0002:00007c60       ??_C@_0BJ@KDACOLHL@Package?5method?5argument?6?$AA@ c0042660     AcpiSubsystem:dbinput.obj
 0002:00007c7c       ??_C@_04MPJOGEPF@?5?5Go?$AA@ c004267c     AcpiSubsystem:dbinput.obj
 0002:00007c84       ??_C@_0CD@PBAAMFKI@Allow?5method?5to?5run?5to?5completio@ c0042684     AcpiSubsystem:dbinput.obj
 0002:00007ca8       ??_C@_0O@JFCAOMIN@?5?5Information?$AA@ c00426a8     AcpiSubsystem:dbinput.obj
 0002:00007cb8       ??_C@_0CH@BKBAAFNK@Display?5info?5about?5the?5current?5m@ c00426b8     AcpiSubsystem:dbinput.obj
 0002:00007ce0       ??_C@_06JFAFBBMH@?5?5Into?$AA@ c00426e0     AcpiSubsystem:dbinput.obj
 0002:00007ce8       ??_C@_0CE@DFPEKGMA@Step?5into?5?$CInot?5over?$CJ?5a?5method?5ca@ c00426e8     AcpiSubsystem:dbinput.obj
 0002:00007d0c       ??_C@_0BK@PPIDIMPG@?5?5List?5?$FL?$CD?5of?5Aml?5Opcodes?$FN?$AA@ c004270c     AcpiSubsystem:dbinput.obj
 0002:00007d28       ??_C@_0BP@FDKBMAKL@Display?5method?5ASL?5statements?6?$AA@ c0042728     AcpiSubsystem:dbinput.obj
 0002:00007d48       ??_C@_08KPCMKM@?5?5Locals?$AA@ c0042748     AcpiSubsystem:dbinput.obj
 0002:00007d54       ??_C@_0CA@IKIABEOA@Display?5method?5local?5variables?6?$AA@ c0042754     AcpiSubsystem:dbinput.obj
 0002:00007d74       ??_C@_09IFMKDDNB@?5?5Results?$AA@ c0042774     AcpiSubsystem:dbinput.obj
 0002:00007d80       ??_C@_0BN@FLFCNKLD@Display?5method?5result?5stack?6?$AA@ c0042780     AcpiSubsystem:dbinput.obj
 0002:00007da0       ??_C@_0BI@IGELMNPB@?5?5Set?5?$DMA?$HML?$DO?5?$DM?$CD?$DO?5?$DMValue?$DO?$AA@ c00427a0     AcpiSubsystem:dbinput.obj
 0002:00007db8       ??_C@_0CE@IOAOFDIG@Set?5method?5data?5?$CIArguments?1Local@ c00427b8     AcpiSubsystem:dbinput.obj
 0002:00007ddc       ??_C@_06FNNIGLBA@?5?5Stop?$AA@ c00427dc     AcpiSubsystem:dbinput.obj
 0002:00007de4       ??_C@_0BK@NHEIEBL@Terminate?5control?5method?6?$AA@ c00427e4     AcpiSubsystem:dbinput.obj
 0002:00007e00       ??_C@_0CE@LHLPBMHL@?5?5Thread?5?$DMThreads?$DO?$DMLoops?$DO?$DMNamePa@ c0042800     AcpiSubsystem:dbinput.obj
 0002:00007e24       ??_C@_0CE@JDHNCGEJ@Spawn?5threads?5to?5execute?5method?$CI@ c0042824     AcpiSubsystem:dbinput.obj
 0002:00007e48       ??_C@_0BG@IACKGHNO@?5?5Trace?5?$DMmethod?5name?$DO?$AA@ c0042848     AcpiSubsystem:dbinput.obj
 0002:00007e60       ??_C@_0BI@BMNGENAG@Trace?5method?5execution?6?$AA@ c0042860     AcpiSubsystem:dbinput.obj
 0002:00007e78       ??_C@_06PALBILBO@?5?5Tree?$AA@ c0042878     AcpiSubsystem:dbinput.obj
 0002:00007e80       ??_C@_0CF@GHNHEFK@Display?5control?5method?5calling?5t@ c0042880     AcpiSubsystem:dbinput.obj
 0002:00007ea8       ??_C@_09DBGMICEB@?5?5?$DMEnter?$DO?$AA@ c00428a8     AcpiSubsystem:dbinput.obj
 0002:00007eb4       ??_C@_0CK@OHMCGIBN@Single?5step?5next?5AML?5opcode?5?$CIove@ c00428b4     AcpiSubsystem:dbinput.obj
 0002:00007ee0       ??_C@_0BM@EPPAINBI@?6Hardware?5Related?5Commands?3?$AA@ c00428e0     AcpiSubsystem:dbinput.obj
 0002:00007efc       ??_C@_0BG@OJAFBBMN@?5?5Event?5?$DMF?$HMG?$DO?5?$DMValue?$DO?$AA@ c00428fc     AcpiSubsystem:dbinput.obj
 0002:00007f14       ??_C@_0CA@CAKICHDD@Generate?5AcpiEvent?5?$CIFixed?1GPE?$CJ?6?$AA@ c0042914     AcpiSubsystem:dbinput.obj
 0002:00007f34       ??_C@_0CA@MFIHLJIB@?5?5Gpe?5?$DMGpeNum?$DO?5?$FLGpeBlockDevice?$FN?$AA@ c0042934     AcpiSubsystem:dbinput.obj
 0002:00007f54       ??_C@_0BA@HBEKCPEG@Simulate?5a?5GPE?6?$AA@ c0042954     AcpiSubsystem:dbinput.obj
 0002:00007f64       ??_C@_06GBGABLBA@?5?5Gpes?$AA@ c0042964     AcpiSubsystem:dbinput.obj
 0002:00007f6c       ??_C@_0BK@JLOGKALG@Display?5info?5on?5all?5GPEs?6?$AA@ c004296c     AcpiSubsystem:dbinput.obj
 0002:00007f88       ??_C@_05KPEGHBLF@?5?5Sci?$AA@ c0042988     AcpiSubsystem:dbinput.obj
 0002:00007f90       ??_C@_0BB@IOKGPAFG@Generate?5an?5SCI?6?$AA@ c0042990     AcpiSubsystem:dbinput.obj
 0002:00007fa4       ??_C@_0BF@MLAAIHJG@?5?5Sleep?5?$FLSleepState?$FN?$AA@ c00429a4     AcpiSubsystem:dbinput.obj
 0002:00007fbc       ??_C@_0CH@NALLGDOF@Simulate?5sleep?1wake?5sequence?$CIs?$CJ?5@ c00429bc     AcpiSubsystem:dbinput.obj
 0002:00007fe4       ??_C@_0BE@IPKBIEND@?6File?5I?1O?5Commands?3?$AA@ c00429e4     AcpiSubsystem:dbinput.obj
 0002:00007ff8       ??_C@_07FEGADHGM@?5?5Close?$AA@ c00429f8     AcpiSubsystem:dbinput.obj
 0002:00008000       ??_C@_0BJ@MENJNFND@Close?5debug?5output?5file?6?$AA@ c0042a00     AcpiSubsystem:dbinput.obj
 0002:0000801c       ??_C@_0BI@EEANOGLD@?5?5Load?5?$DMInput?5Filename?$DO?$AA@ c0042a1c     AcpiSubsystem:dbinput.obj
 0002:00008034       ??_C@_0BN@CIGMIAFN@Load?5ACPI?5table?5from?5a?5file?6?$AA@ c0042a34     AcpiSubsystem:dbinput.obj
 0002:00008054       ??_C@_0BJ@GCGCJCBF@?5?5Open?5?$DMOutput?5Filename?$DO?$AA@ c0042a54     AcpiSubsystem:dbinput.obj
 0002:00008070       ??_C@_0BO@EJMMCOO@Open?5a?5file?5for?5debug?5output?6?$AA@ c0042a70     AcpiSubsystem:dbinput.obj
 0002:00008090       ??_C@_0BG@ILOMKDOA@?6Debug?5Test?5Commands?3?$AA@ c0042a90     AcpiSubsystem:dbinput.obj
 0002:000080a8       ??_C@_0BC@JLLEMPEH@?5?5Test?5?$DMTestName?$DO?$AA@ c0042aa8     AcpiSubsystem:dbinput.obj
 0002:000080bc       ??_C@_0BF@PMOILHMB@Invoke?5a?5debug?5test?6?$AA@ c0042abc     AcpiSubsystem:dbinput.obj
 0002:000080d4       ??_C@_0CP@JHEDOPEF@Read?1write?1compare?5all?5namespace@ c0042ad4     AcpiSubsystem:dbinput.obj
 0002:00008104       ??_C@_0BA@CFLHEGNG@?5?5?5?5?5Predefined?$AA@ c0042b04     AcpiSubsystem:dbinput.obj
 0002:00008114       ??_C@_0DA@LGCKDEFC@Execute?5all?5ACPI?5predefined?5name@ c0042b14     AcpiSubsystem:dbinput.obj
 0002:00008144       ??_C@_0L@DDJPDPJO@?$CF?938s?5?3?5?$CFs?$AA@ c0042b44     AcpiSubsystem:dbinput.obj
 0002:00008150       ??_C@_07NFIADDPA@?$CF?938s?$CFs?$AA@ c0042b50     AcpiSubsystem:dbinput.obj
 0002:00008158       ??_C@_0DO@LGABDJBM@Buffer?5overflow?5while?5parsing?5in@ c0042b58     AcpiSubsystem:dbinput.obj
 0002:00008198       ??_C@_0DE@LBHOAEBI@?$CFu?5parameters?5entered?0?5?$FL?$CFs?$FN?5requ@ c0042b98     AcpiSubsystem:dbinput.obj
 0002:000081cc       ??_C@_0BP@HNPDJMAJ@AcpiEnable?5failed?5?$CIStatus?$DN?$CFX?$CJ?6?$AA@ c0042bcc     AcpiSubsystem:dbinput.obj
 0002:000081ec       ??_C@_0BP@DECDJPMG@Event?5command?5not?5implemented?6?$AA@ c0042bec     AcpiSubsystem:dbinput.obj
 0002:0000820c       ??_C@_0DD@JBEEJAKI@Current?5debug?5level?5for?5file?5out@ c0042c0c     AcpiSubsystem:dbinput.obj
 0002:00008240       ??_C@_0DD@GKHOLFAB@Current?5debug?5level?5for?5console?5@ c0042c40     AcpiSubsystem:dbinput.obj
 0002:00008274       ??_C@_0DH@ILHKMLMJ@Debug?5Level?5for?5console?5output?5w@ c0042c74     AcpiSubsystem:dbinput.obj
 0002:000082ac       ??_C@_0DE@EBEHAFJC@Debug?5Level?5for?5file?5output?5was?5@ c0042cac     AcpiSubsystem:dbinput.obj
 0002:000082e0       ??_C@_06GEDKPGMC@METHOD?$AA@ c0042ce0     AcpiSubsystem:dbinput.obj
 0002:000082e8       ??_C@_0BN@OOANNEND@Method?5execution?5terminated?6?$AA@ c0042ce8     AcpiSubsystem:dbinput.obj
 0002:00008308       ??_C@_0BF@EPKBLCNE@?$CFs?3?5unknown?5command?6?$AA@ c0042d08     AcpiSubsystem:dbinput.obj
 0002:00008328       ??_C@_0BB@JGGOGLEG@0123456789ABCDEF?$AA@ c0042d28     AcpiSubsystem:dbutils.obj
 0002:0000833c       ??_C@_0P@CNCNHMPJ@?$FLNull?5Object?$FN?6?$AA@ c0042d3c     AcpiSubsystem:dbutils.obj
 0002:0000834c       ??_C@_02KNHHEEKP@?5?5?$AA@ c0042d4c     AcpiSubsystem:dbutils.obj
 0002:00008350       ??_C@_0BI@KAFCOOKN@?$FLNull?5Object?$FN?5?$CIType?$DN0?$CJ?6?$AA@ c0042d50     AcpiSubsystem:dbutils.obj
 0002:00008368       ??_C@_0BI@CEMLNBAP@?$FLInteger?$FN?5?$DN?5?$CF8?48X?$CF8?48X?6?$AA@ c0042d68     AcpiSubsystem:dbutils.obj
 0002:00008380       ??_C@_0BI@LACGJBAO@?$FLString?$FN?5Length?5?$CF?42X?5?$DN?5?$AA@ c0042d80     AcpiSubsystem:dbutils.obj
 0002:00008398       ??_C@_0BI@HICDFJPD@?$FLBuffer?$FN?5Length?5?$CF?42X?5?$DN?5?$AA@ c0042d98     AcpiSubsystem:dbutils.obj
 0002:000083b0       ??_C@_0CB@EFCGLJK@?$FLPackage?$FN?5Contains?5?$CFu?5Elements?3?6@ c0042db0     AcpiSubsystem:dbutils.obj
 0002:000083d4       ??_C@_0BG@HGLCIFHO@?$FLObject?5Reference?$FN?5?$DN?5?$AA@ c0042dd4     AcpiSubsystem:dbutils.obj
 0002:000083ec       ??_C@_0N@ENBNKEOJ@?$FLProcessor?$FN?6?$AA@ c0042dec     AcpiSubsystem:dbutils.obj
 0002:000083fc       ??_C@_0BC@DILJLFAA@?$FLPower?5Resource?$FN?6?$AA@ c0042dfc     AcpiSubsystem:dbutils.obj
 0002:00008410       ??_C@_0BD@OCOFEPDK@?$FLUnknown?5Type?$FN?5?$CFX?6?$AA@ c0042e10     AcpiSubsystem:dbutils.obj
 0002:00008424       ??_C@_0BI@CMMFNGFL@Invalid?5namestring?3?5?$CFs?6?$AA@ c0042e24     AcpiSubsystem:dbutils.obj
 0002:0000843c       ??_C@_0BP@LGKEBHOG@Could?5not?5locate?5name?3?5?$CFs?0?5?$CFs?6?$AA@ c0042e3c     AcpiSubsystem:dbutils.obj
 0002:0000845c       ??_C@_01GBGANLPD@0?$AA@    c0042e5c     AcpiSubsystem:dbutils.obj
 0002:00008468       ??_C@_03NDEAONJP@?5?5?5?$AA@ c0042e68     AcpiSubsystem:dmwalk.obj
 0002:0000846c       ??_C@_0BJ@BIPKKFJO@?$FL?$CF4?44s?$FN?5?$EA?$CF5?45X?5?$CD?$CF4?44X?3?5?5?$AA@ c0042e6c     AcpiSubsystem:dmwalk.obj
 0002:00008488       ??_C@_02KCPFEJNG@?$HL?6?$AA@ c0042e88     AcpiSubsystem:dmwalk.obj
 0002:0000848c       ??_C@_02GFKOMOKH@?5?$CI?$AA@ c0042e8c     AcpiSubsystem:dmwalk.obj
 0002:00008490       ??_C@_02KEGNLNML@?0?5?$AA@ c0042e90     AcpiSubsystem:dmwalk.obj
 0002:00008494       ??_C@_01PKGAHCOL@?$CJ?$AA@ c0042e94     AcpiSubsystem:dmwalk.obj
 0002:00008498       ??_C@_0BP@HALOFLNJ@?$CK?$CK?$CK?5Unhandled?5named?5opcode?5?$CFX?6?$AA@ c0042e98     AcpiSubsystem:dmwalk.obj
 0002:000084b8       ??_C@_03LAJGDFPO@?$HN?6?6?$AA@ c0042eb8     AcpiSubsystem:dmwalk.obj
 0002:000084bc       ??_C@_01CELHOKLL@?$HN?$AA@ c0042ebc     AcpiSubsystem:dmwalk.obj
 0002:000084c0       ??_C@_03PHAHCGIK@?$CJ?5?$HL?$AA@ c0042ec0     AcpiSubsystem:dmwalk.obj
 0002:000084c4       ??_C@_02DKCKIIND@?$CFs?$AA@ c0042ec4     AcpiSubsystem:dmwalk.obj
 0002:000084ec       ??_C@_0P@FGOAMMID@Divide?5by?5zero?$AA@ c0042eec     AcpiSubsystem:utmath.obj
 0002:00008548       ??_C@_0BH@ILKCGDPF@Invalid?5GPE?5Action?0?5?$CFu?$AA@ c0042f48     AcpiSubsystem:hwgpe.obj
 0002:00008568       ??_C@_0CH@OMHDEAOL@Invalid?5zero?5ID?5from?5AcpiOsGetTh@ c0042f68     AcpiSubsystem:utstate.obj
 0002:000085e8       ??_C@_0DG@EGPKPGO@Could?5not?5install?5GPE?5interrupt?5@ c0042fe8     AcpiSubsystem:evgpeutil.obj
 0002:0000868c       ??_C@_0CP@OAPHHLLM@Cannot?5acquire?5Mutex?5?$FL?$CF4?44s?$FN?0?5nu@ c004308c     AcpiSubsystem:exmutex.obj
 0002:000086c0       ??_C@_0EC@PPHMCELA@Cannot?5acquire?5Mutex?5?$FL?$CF4?44s?$FN?0?5cu@ c00430c0     AcpiSubsystem:exmutex.obj
 0002:00008704       ??_C@_0CL@GECKFKKP@Cannot?5release?5Mutex?5?$FL?$CF4?44s?$FN?0?5no@ c0043104     AcpiSubsystem:exmutex.obj
 0002:00008730       ??_C@_0CP@ELACAEHE@Cannot?5release?5Mutex?5?$FL?$CF4?44s?$FN?0?5nu@ c0043130     AcpiSubsystem:exmutex.obj
 0002:00008760       ??_C@_0DN@LHMLBDOI@Thread?5?$CFu?5cannot?5release?5Mutex?5?$FL@ c0043160     AcpiSubsystem:exmutex.obj
 0002:000087a0       ??_C@_0EG@KPNKKPIF@Cannot?5release?5Mutex?5?$FL?$CF4?44s?$FN?0?5Sy@ c00431a0     AcpiSubsystem:exmutex.obj
 0002:000087e8       ??_C@_0CA@HLCFNNAI@Force?9releasing?5held?5mutex?3?5?$CFp?6?$AA@ c00431e8     AcpiSubsystem:exmutex.obj
 0002:00008880       ??_C@_0CN@IHJGAKIJ@Could?5not?5allocate?5the?5GpeRegist@ c0043280     AcpiSubsystem:evgpeblk.obj
 0002:000088b0       ??_C@_0CK@GLLJNIKF@Could?5not?5allocate?5the?5GpeEventI@ c00432b0     AcpiSubsystem:evgpeblk.obj
 0002:000088dc       ??_C@_06ILMOPFCK@?5?$CISCI?$CJ?$AA@ c00432dc     AcpiSubsystem:evgpeblk.obj
 0002:000088e8       ??_C@_0EG@EELPBMOA@?5?5?5?5Initialized?5GPE?5?$CF02X?5to?5?$CF02X@ c00432e8     AcpiSubsystem:evgpeblk.obj
 0002:00008930       ??_C@_0BM@HFGKBHLP@Could?5not?5enable?5GPE?50x?$CF02X?$AA@ c0043330     AcpiSubsystem:evgpeblk.obj
 0002:0000894c       ??_C@_0CG@OMMDBEBC@Enabled?5?$CFu?5GPEs?5in?5block?5?$CF02X?5to@ c004334c     AcpiSubsystem:evgpeblk.obj
 0002:00008ab8       ??_C@_0CA@NFAKABLJ@Removing?5global?5notify?5handler?6?$AA@ c00434b8     AcpiSubsystem:evxface.obj
 0002:00008ad8       ??_C@_0CH@HABLIDND@Could?5not?5enable?5fixed?5event?5?9?5?$CF@ c00434d8     AcpiSubsystem:evxface.obj
 0002:00008b00       ??_C@_0CJ@MFMIDFAH@Enabled?5fixed?5event?5?$CFs?5?$CI?$CFX?$CJ?0?5Han@ c0043500     AcpiSubsystem:evxface.obj
 0002:00008b2c       ??_C@_0CI@EBNCAJFE@Could?5not?5disable?5fixed?5event?5?9?5@ c004352c     AcpiSubsystem:evxface.obj
 0002:00008b54       ??_C@_0CA@HJKOGMIF@Disabled?5fixed?5event?5?9?5?$CFs?5?$CI?$CFX?$CJ?6?$AA@ c0043554     AcpiSubsystem:evxface.obj
 0002:00008b74       ??_C@_0BP@IKOALPGJ@GPE?5type?5mismatch?5?$CIlevel?1edge?$CJ?$AA@ c0043574     AcpiSubsystem:evxface.obj
 0002:00008bf4       ??_C@_0CF@FFMONHHM@?$CK?$CK?$CK?5Thread?5awake?5after?5blocking?0@ c00435f4     AcpiSubsystem:exsystem.obj
 0002:00008c1c       ??_C@_0CB@FLOKDLCI@Time?5parameter?5is?5too?5large?5?$CI?$CFu?$CJ@ c004361c     AcpiSubsystem:exsystem.obj
 0002:00008cd0       ??_C@_0EO@DMKFIPPI@Ignore?5disabled?5registers?5for?5GP@ c00436d0     AcpiSubsystem:evgpe.obj
 0002:00008d20       ??_C@_0FN@PKCOKELP@Read?5registers?5for?5GPE?5?$CF02X?9?$CF02X@ c0043720     AcpiSubsystem:evgpe.obj
 0002:00008d80       ??_C@_0CE@FKNHNOPG@while?5evaluating?5GPE?5method?5?$FL?$CF4?4@ c0043780     AcpiSubsystem:evgpe.obj
 0002:00008da4       ??_C@_0BL@GIDOMBGN@Unable?5to?5disable?5GPE?5?$CF02X?$AA@ c00437a4     AcpiSubsystem:evgpe.obj
 0002:00008dc0       ??_C@_0BJ@BJPFPJBA@Unable?5to?5clear?5GPE?5?$CF02X?$AA@ c00437c0     AcpiSubsystem:evgpe.obj
 0002:00008ddc       ??_C@_0DG@FBAJLBDM@Unable?5to?5queue?5handler?5for?5GPE?5@ c00437dc     AcpiSubsystem:evgpe.obj
 0002:00008e14       ??_C@_0DD@GDEFLNNH@No?5handler?5or?5method?5for?5GPE?5?$CF02@ c0043814     AcpiSubsystem:evgpe.obj
 0002:00008e98       ??_C@_0EA@INAFOKEB@Removing?5address?5handler?5?$CFp?$CI?$CFp?$CJ?5@ c0043898     AcpiSubsystem:evxfregn.obj
 0002:00008ed8       ??_C@_0EE@MOIJNALI@Unable?5to?5remove?5address?5handler@ c00438d8     AcpiSubsystem:evxfregn.obj
 0002:00008f48       ??_C@_0DI@KOGGHJKE@Input?5PciId?3?5?5Seg?5?$CF4?44X?5Bus?5?$CF4?44@ c0043948     AcpiSubsystem:hwpci.obj
 0002:00008f80       ??_C@_0FL@LKHDAJEB@Output?5PciId?3?5Seg?5?$CF4?44X?5Bus?5?$CF4?44@ c0043980     AcpiSubsystem:hwpci.obj
 0002:00009034       ??_C@_04DGGABMGE@_HID?$AA@ c0043a34     AcpiSubsystem:utids.obj
 0002:0000903c       ??_C@_04PCBODBGI@_SUB?$AA@ c0043a3c     AcpiSubsystem:utids.obj
 0002:00009044       ??_C@_04JEBDJDCG@_UID?$AA@ c0043a44     AcpiSubsystem:utids.obj
 0002:0000904c       ??_C@_04OBGBJLGF@_CID?$AA@ c0043a4c     AcpiSubsystem:utids.obj
 0002:00009054       ??_C@_04OCCJNNBI@_CLS?$AA@ c0043a54     AcpiSubsystem:utids.obj
 0002:000090ec       ??_C@_0CF@KJCGLGKE@Control?5Method?5?9?5?$CFp?5Desc?5?$CFp?5Path@ c0043aec     AcpiSubsystem:psargs.obj
 0002:00009114       ??_C@_0CJ@GKHALKOC@Control?5Method?5?$CFp?5has?5no?5attache@ c0043b14     AcpiSubsystem:psargs.obj
 0002:00009140       ??_C@_0BN@JCBPCFMG@Control?5Method?5?9?5?$CFp?5Args?5?$CFX?6?$AA@ c0043b40     AcpiSubsystem:psargs.obj
 0002:00009160       ??_C@_0BF@CAOCGFNJ@Invalid?5ArgType?50x?$CFX?$AA@ c0043b60     AcpiSubsystem:psargs.obj
 0002:00009178       ??_C@_0BG@EAPIKBKG@Invalid?5ArgType?3?50x?$CFX?$AA@ c0043b78     AcpiSubsystem:psargs.obj
 0002:000091cc       ??_C@_0CK@ECOIMAOC@Entered?5with?5WalkState?$DN?$CFp?5Aml?$DN?$CFp@ c0043bcc     AcpiSubsystem:psparse.obj
 0002:000091f8       ??_C@_09NPAFFBAO@State?$DN?$CFp?6?$AA@ c0043bf8     AcpiSubsystem:psparse.obj
 0002:00009204       ??_C@_0CO@IFAGLICA@Completed?5one?5call?5to?5walk?5loop?0@ c0043c04     AcpiSubsystem:psparse.obj
 0002:00009234       ??_C@_0BO@BIPMNGJH@Method?5parse?1execution?5failed?$AA@ c0043c34     AcpiSubsystem:psparse.obj
 0002:00009254       ??_C@_0CL@PGPIDOKI@ReturnValue?$DN?$CFp?0?5ImplicitValue?$DN?$CFp@ c0043c54     AcpiSubsystem:psparse.obj
 0002:00009354       ??_C@_0DP@CFAHEDNB@Unsupported?5object?5type?0?5cannot?5@ c0043d54     AcpiSubsystem:utcopy.obj
 0002:00009394       ??_C@_0DP@HIKPEOCD@Unsupported?5object?5type?0?5cannot?5@ c0043d94     AcpiSubsystem:utcopy.obj
 0002:000093d4       ??_C@_0BL@NIKJBDNE@Package?5allocation?5failure?$AA@ c0043dd4     AcpiSubsystem:utcopy.obj
 0002:00009428       ??_C@_0BE@KJFBLGMB@Free?5retval?5op?3?5?$CFp?6?$AA@ c0043e28     AcpiSubsystem:psutils.obj
 0002:00009534       ??_C@_0BL@OBGIMHJK@No?5results?5on?5result?5stack?$AA@ c0043f34     AcpiSubsystem:dswstate.obj
 0002:00009550       ??_C@_0CB@KLKGJGOG@No?5result?5state?5for?5result?5stack@ c0043f50     AcpiSubsystem:dswstate.obj
 0002:00009574       ??_C@_0CA@DKLNIDAG@Result?5stack?5is?5empty?$CB?5State?$DN?$CFp?$AA@ c0043f74     AcpiSubsystem:dswstate.obj
 0002:00009594       ??_C@_0CM@KJIMIICD@No?5result?5objects?5on?5result?5stac@ c0043f94     AcpiSubsystem:dswstate.obj
 0002:000095c0       ??_C@_0CG@OBLKGBGC@Obj?$DN?$CFp?5?$FL?$CFs?$FN?5Index?$DN?$CFX?5State?$DN?$CFp?5Nu@ c0043fc0     AcpiSubsystem:dswstate.obj
 0002:000095e8       ??_C@_0BF@JIDLPFDD@Result?5stack?5is?5full?$AA@ c0043fe8     AcpiSubsystem:dswstate.obj
 0002:00009600       ??_C@_0CC@COKBLAKF@Failed?5to?5extend?5the?5result?5stac@ c0044000     AcpiSubsystem:dswstate.obj
 0002:00009624       ??_C@_0CB@JJKONBCO@No?5free?5elements?5in?5result?5stack@ c0044024     AcpiSubsystem:dswstate.obj
 0002:00009648       ??_C@_0CC@JOADKEJF@No?5result?5stack?5frame?5during?5pus@ c0044048     AcpiSubsystem:dswstate.obj
 0002:0000966c       ??_C@_0CE@JLLGNAEL@Null?5Object?$CB?5Obj?$DN?$CFp?5State?$DN?$CFp?5Num@ c004406c     AcpiSubsystem:dswstate.obj
 0002:00009690       ??_C@_0CE@NENBCGPO@Obj?$DN?$CFp?5?$FL?$CFs?$FN?5State?$DN?$CFp?5Num?$DN?$CFX?5Cur?$DN@ c0044090     AcpiSubsystem:dswstate.obj
 0002:000096b4       ??_C@_0CH@IEAAGIKD@Result?5stack?5overflow?3?5State?$DN?$CFp?5@ c00440b4     AcpiSubsystem:dswstate.obj
 0002:000096dc       ??_C@_0BF@DOOOOCJP@Results?$DN?$CFp?5State?$DN?$CFp?6?$AA@ c00440dc     AcpiSubsystem:dswstate.obj
 0002:000096f4       ??_C@_0CD@JLBADFJJ@Result?5stack?5underflow?5?9?5State?$DN?$CF@ c00440f4     AcpiSubsystem:dswstate.obj
 0002:00009718       ??_C@_0BP@MMLHPEEJ@Insufficient?5result?5stack?5size?$AA@ c0044118     AcpiSubsystem:dswstate.obj
 0002:00009738       ??_C@_0CI@NMGPGJM@Result?$DN?$CFp?5RemainingResults?$DN?$CFX?5St@ c0044138     AcpiSubsystem:dswstate.obj
 0002:00009760       ??_C@_0CP@OFDDDFMB@Object?5stack?5overflow?$CB?5Obj?$DN?$CFp?5St@ c0044160     AcpiSubsystem:dswstate.obj
 0002:00009790       ??_C@_0BO@EJGLGNNH@Obj?$DN?$CFp?5?$FL?$CFs?$FN?5State?$DN?$CFp?5?$CDOps?$DN?$CFX?6?$AA@ c0044190     AcpiSubsystem:dswstate.obj
 0002:000097b0       ??_C@_0DC@MLIGCHNA@Object?5stack?5underflow?$CB?5Count?$DN?$CFX@ c00441b0     AcpiSubsystem:dswstate.obj
 0002:000097e4       ??_C@_0BL@GDCKFAJI@Count?$DN?$CFX?5State?$DN?$CFp?5?$CDOps?$DN?$CFu?6?$AA@ c00441e4     AcpiSubsystem:dswstate.obj
 0002:00009800       ??_C@_0BL@FDLPIFCL@Count?$DN?$CFX?5State?$DN?$CFp?5?$CDOps?$DN?$CFX?6?$AA@ c0044200     AcpiSubsystem:dswstate.obj
 0002:0000981c       ??_C@_0BG@COBELHOD@Current?5WalkState?5?$CFp?6?$AA@ c004421c     AcpiSubsystem:dswstate.obj
 0002:00009834       ??_C@_0BN@MBHOKCBD@?$CFp?5is?5not?5a?5valid?5walk?5state?$AA@ c0044234     AcpiSubsystem:dswstate.obj
 0002:00009854       ??_C@_0BP@JLLEFJCP@?$CFp?5walk?5still?5has?5a?5scope?5list?$AA@ c0044254     AcpiSubsystem:dswstate.obj
 0002:00009880       ??_C@_0CE@JNKLINAF@Null?5Buffer?5Pointer?5in?5DumpBuffe@ c0044280     AcpiSubsystem:utbuffer.obj
 0002:000098a4       ??_C@_07DLDOMFGF@?$CF6?44X?3?5?$AA@ c00442a4     AcpiSubsystem:utbuffer.obj
 0002:000098ac       ??_C@_03HIJPJGOM@?$CF?$CKs?$AA@ c00442ac     AcpiSubsystem:utbuffer.obj
 0002:000098b0       ??_C@_05BFHEBJNP@?$CF02X?5?$AA@ c00442b0     AcpiSubsystem:utbuffer.obj
 0002:000098b8       ??_C@_05DABPEGAD@?$CF04X?5?$AA@ c00442b8     AcpiSubsystem:utbuffer.obj
 0002:000098c0       ??_C@_05HKMJPJLL@?$CF08X?5?$AA@ c00442c0     AcpiSubsystem:utbuffer.obj
 0002:000098c8       ??_C@_04JIMNDDED@?$CF08X?$AA@ c00442c8     AcpiSubsystem:utbuffer.obj
 0002:000098d0       ??_C@_03IAHPLKPE@?1?1?5?$AA@ c00442d0     AcpiSubsystem:utbuffer.obj
 0002:00009910       ??_C@_0BG@GEGFEOCH@Popped?5Op?5?$CFp?5Args?5?$CFX?6?$AA@ c0044310     AcpiSubsystem:psscope.obj
 0002:000099dc       ??_C@_0CM@NBKEKABD@Method?5auto?9serialization?5parse?5@ c00443dc     AcpiSubsystem:dsmethod.obj
 0002:00009a08       ??_C@_0CN@EJBLCAPL@Method?5serialized?5?$FL?$CF4?44s?$FN?5?$CFp?5?9?5?$FL@ c0044408     AcpiSubsystem:dsmethod.obj
 0002:00009a38       ??_C@_0CO@JEPHFJGP@Method?5reached?5maximum?5reentranc@ c0044438     AcpiSubsystem:dsmethod.obj
 0002:00009a68       ??_C@_0EN@IPHBLDOP@Cannot?5acquire?5Mutex?5for?5method?5@ c0044468     AcpiSubsystem:dsmethod.obj
 0002:00009ab8       ??_C@_0CE@DADFIONO@Calling?5method?5?$CFp?0?5currentstate?$DN@ c00444b8     AcpiSubsystem:dsmethod.obj
 0002:00009adc       ??_C@_0DK@NIOKAPDG@?$CK?$CK?$CK?$CK?5Begin?5nested?5execution?5of?5?$FL@ c00444dc     AcpiSubsystem:dsmethod.obj
 0002:00009b18       ??_C@_0DE@BKONJJGK@?$CK?$CK?$CK?$CKRestart?5?$FL?$CF4?44s?$FN?5Op?5?$CFp?5Return@ c0044518     AcpiSubsystem:dsmethod.obj
 0002:00009b4c       ??_C@_0DG@PBKAOFJL@?5?5?5?5ReturnFromThisMethodUsed?$DP?$DN?$CFX@ c004454c     AcpiSubsystem:dsmethod.obj
 0002:00009b84       ??_C@_0CE@GIEFHCDM@Invalid?5zero?5thread?5count?5in?5met@ c0044584     AcpiSubsystem:dsmethod.obj
 0002:00009ba8       ??_C@_0DN@MNEHFEDI@?$CK?$CK?$CK?5Completed?5execution?5of?5one?5t@ c00445a8     AcpiSubsystem:dsmethod.obj
 0002:00009be8       ??_C@_0EG@GKDCPMM@Marking?5method?5?$CF4?44s?5as?5Serializ@ c00445e8     AcpiSubsystem:dsmethod.obj
 0002:00009c30       ??_C@_0N@BAPLEJJE@Processor?5ID?$AA@ c0044630     AcpiSubsystem:exdump.obj
 0002:00009fac       ??_C@_0O@GPGMKDMG@Buffer?5Object?$AA@ c00449ac     AcpiSubsystem:exdump.obj
 0002:00009fbc       ??_C@_0N@HPOILPJE@AccessLength?$AA@ c00449bc     AcpiSubsystem:exdump.obj
 0002:00009fcc       ??_C@_0O@OIFCKAHF@Region?5Object?$AA@ c00449cc     AcpiSubsystem:exdump.obj
 0002:00009fdc       ??_C@_0P@IMINDMJ@ResourceBuffer?$AA@ c00449dc     AcpiSubsystem:exdump.obj
 0002:00009fec       ??_C@_0M@IIBBKHM@Bank?5Object?$AA@ c00449ec     AcpiSubsystem:exdump.obj
 0002:00009ff8       ??_C@_0N@EHPJLOKK@Index?5Object?$AA@ c00449f8     AcpiSubsystem:exdump.obj
 0002:0000a008       ??_C@_0M@ECBOCECD@Data?5Object?$AA@ c0044a08     AcpiSubsystem:exdump.obj
 0002:0000a014       ??_C@_05EKAMNAII@Class?$AA@ c0044a14     AcpiSubsystem:exdump.obj
 0002:0000a01c       ??_C@_0M@PAOMIGKN@Target?5Type?$AA@ c0044a1c     AcpiSubsystem:exdump.obj
 0002:0000a028       ??_C@_0M@OGFHCPDJ@Object?5Desc?$AA@ c0044a28     AcpiSubsystem:exdump.obj
 0002:0000a034       ??_C@_05LFPDHOHC@Where?$AA@ c0044a34     AcpiSubsystem:exdump.obj
 0002:0000a03c       ??_C@_0O@MOGPAPKF@Index?5Pointer?$AA@ c0044a3c     AcpiSubsystem:exdump.obj
 0002:0000a04c       ??_C@_0M@KFDFAICM@Region?5List?$AA@ c0044a4c     AcpiSubsystem:exdump.obj
 0002:0000a058       ??_C@_07GDNEHDJK@Context?$AA@ c0044a58     AcpiSubsystem:exdump.obj
 0002:0000a060       ??_C@_0N@LHIEKLBM@Handler?5Type?$AA@ c0044a60     AcpiSubsystem:exdump.obj
 0002:0000a070       ??_C@_0BD@PDHIDMLK@Next?5System?5Notify?$AA@ c0044a70     AcpiSubsystem:exdump.obj
 0002:0000a084       ??_C@_0BD@JFLNJJLE@Next?5Device?5Notify?$AA@ c0044a84     AcpiSubsystem:exdump.obj
 0002:0000a098       ??_C@_0M@BMDOGJHJ@_REG?5Method?$AA@ c0044a98     AcpiSubsystem:exdump.obj
 0002:0000a0a4       ??_C@_0L@GNIOAOLH@Scope?5Node?$AA@ c0044aa4     AcpiSubsystem:exdump.obj
 0002:0000a0b0       ??_C@_0P@LHMMEFPC@Region?5Context?$AA@ c0044ab0     AcpiSubsystem:exdump.obj
 0002:0000a0c0       ??_C@_08HGIHDNJC@Raw?5Data?$AA@ c0044ac0     AcpiSubsystem:exdump.obj
 0002:0000a0cc       ??_C@_0BA@JJBGKGMP@Reference?5Count?$AA@ c0044acc     AcpiSubsystem:exdump.obj
 0002:0000a0dc       ??_C@_0M@JJHCFPNG@Object?5List?$AA@ c0044adc     AcpiSubsystem:exdump.obj
 0002:0000a0e8       ??_C@_0M@CJLLLNKP@Field?5Flags?$AA@ c0044ae8     AcpiSubsystem:exdump.obj
 0002:0000a0f4       ??_C@_0BC@LEMFACGK@Access?5Byte?5Width?$AA@ c0044af4     AcpiSubsystem:exdump.obj
 0002:0000a108       ??_C@_0L@MGCKJHFJ@Bit?5Length?$AA@ c0044b08     AcpiSubsystem:exdump.obj
 0002:0000a114       ??_C@_0BB@NIAEHPNB@Field?5Bit?5Offset?$AA@ c0044b14     AcpiSubsystem:exdump.obj
 0002:0000a128       ??_C@_0BB@MLCMOKDE@Base?5Byte?5Offset?$AA@ c0044b28     AcpiSubsystem:exdump.obj
 0002:0000a13c       ??_C@_06EBOPLIP@Parent?$AA@ c0044b3c     AcpiSubsystem:exdump.obj
 0002:0000a144       ??_C@_05GIMBDOHM@Child?$AA@ c0044b44     AcpiSubsystem:exdump.obj
 0002:0000a14c       ??_C@_04FOCDNCKH@Peer?$AA@ c0044b4c     AcpiSubsystem:exdump.obj
 0002:0000a154       ??_C@_05LPIJGKJ@Value?$AA@ c0044b54     AcpiSubsystem:exdump.obj
 0002:0000a15c       ??_C@_06MHCOIGNA@Length?$AA@ c0044b5c     AcpiSubsystem:exdump.obj
 0002:0000a164       ??_C@_07MLEFNJG@Pointer?$AA@ c0044b64     AcpiSubsystem:exdump.obj
 0002:0000a16c       ??_C@_0M@MEHLAFMO@Parent?5Node?$AA@ c0044b6c     AcpiSubsystem:exdump.obj
 0002:0000a178       ??_C@_05BOOEKJH@Flags?$AA@ c0044b78     AcpiSubsystem:exdump.obj
 0002:0000a180       ??_C@_08LKJCPFJP@Elements?$AA@ c0044b80     AcpiSubsystem:exdump.obj
 0002:0000a18c       ??_C@_0N@HCDMOPKA@Element?5List?$AA@ c0044b8c     AcpiSubsystem:exdump.obj
 0002:0000a19c       ??_C@_0O@CDLJJPPG@System?5Notify?$AA@ c0044b9c     AcpiSubsystem:exdump.obj
 0002:0000a1ac       ??_C@_0O@EFHMDKPI@Device?5Notify?$AA@ c0044bac     AcpiSubsystem:exdump.obj
 0002:0000a1bc       ??_C@_07DBMNFLDM@Handler?$AA@ c0044bbc     AcpiSubsystem:exdump.obj
 0002:0000a1c4       ??_C@_0M@NDPNLLM@OsSemaphore?$AA@ c0044bc4     AcpiSubsystem:exdump.obj
 0002:0000a1d0       ??_C@_0L@FAIPDKNE@Info?5Flags?$AA@ c0044bd0     AcpiSubsystem:exdump.obj
 0002:0000a1dc       ??_C@_0BA@GAAJBNDK@Parameter?5Count?$AA@ c0044bdc     AcpiSubsystem:exdump.obj
 0002:0000a1ec       ??_C@_0L@JKEIHPJM@Sync?5Level?$AA@ c0044bec     AcpiSubsystem:exdump.obj
 0002:0000a1f8       ??_C@_08GAACBCCC@Owner?5Id?$AA@ c0044bf8     AcpiSubsystem:exdump.obj
 0002:0000a204       ??_C@_0N@JBDHEKHI@Thread?5Count?$AA@ c0044c04     AcpiSubsystem:exdump.obj
 0002:0000a214       ??_C@_0L@EBDLLBEL@Aml?5Length?$AA@ c0044c14     AcpiSubsystem:exdump.obj
 0002:0000a220       ??_C@_09JBCMLNHA@Aml?5Start?$AA@ c0044c20     AcpiSubsystem:exdump.obj
 0002:0000a22c       ??_C@_0BE@CBGFNBDI@Original?5Sync?5Level?$AA@ c0044c2c     AcpiSubsystem:exdump.obj
 0002:0000a240       ??_C@_0N@NMLIJFCO@Owner?5Thread?$AA@ c0044c40     AcpiSubsystem:exdump.obj
 0002:0000a250       ??_C@_0O@IFLIHHFH@Acquire?5Depth?$AA@ c0044c50     AcpiSubsystem:exdump.obj
 0002:0000a260       ??_C@_07HILDIBJC@OsMutex?$AA@ c0044c60     AcpiSubsystem:exdump.obj
 0002:0000a268       ??_C@_08NCOCHCDI@Space?5Id?$AA@ c0044c68     AcpiSubsystem:exdump.obj
 0002:0000a274       ??_C@_07EODJIPPN@Address?$AA@ c0044c74     AcpiSubsystem:exdump.obj
 0002:0000a27c       ??_C@_04MDFHGMOB@Next?$AA@ c0044c7c     AcpiSubsystem:exdump.obj
 0002:0000a284       ??_C@_0N@BHKFOAKA@System?5Level?$AA@ c0044c84     AcpiSubsystem:exdump.obj
 0002:0000a294       ??_C@_0P@IOGJFDAH@Resource?5Order?$AA@ c0044c94     AcpiSubsystem:exdump.obj
 0002:0000a2a4       ??_C@_0DK@NEGGKMB@ExDumpObject?3?5Display?5not?5implem@ c0044ca4     AcpiSubsystem:exdump.obj
 0002:0000a2e0       ??_C@_04KOACHJEN@Type?$AA@ c0044ce0     AcpiSubsystem:exdump.obj
 0002:0000a2e8       ??_C@_0BD@KGBOFDAL@?$CF20s?5?3?5?$CF2?42X?5?$FL?$CFs?$FN?6?$AA@ c0044ce8     AcpiSubsystem:exdump.obj
 0002:0000a2fc       ??_C@_0O@BGNPGHIF@?$CF20s?5?3?5?$CF2?42X?6?$AA@ c0044cfc     AcpiSubsystem:exdump.obj
 0002:0000a30c       ??_C@_0O@OFONNLEE@?$CF20s?5?3?5?$CF4?44X?6?$AA@ c0044d0c     AcpiSubsystem:exdump.obj
 0002:0000a31c       ??_C@_0O@NIPJKEIH@?$CF20s?5?3?5?$CF8?48X?6?$AA@ c0044d1c     AcpiSubsystem:exdump.obj
 0002:0000a32c       ??_C@_0BD@DAMJPPIE@?$CF20s?5?3?5?$CF8?48X?$CF8?48X?6?$AA@ c0044d2c     AcpiSubsystem:exdump.obj
 0002:0000a340       ??_C@_0BE@DFHHOHKO@?6Package?5Contents?3?6?$AA@ c0044d40     AcpiSubsystem:exdump.obj
 0002:0000a354       ??_C@_0L@JPDOKIMI@Class?5Name?$AA@ c0044d54     AcpiSubsystem:exdump.obj
 0002:0000a360       ??_C@_09LADNNJFA@?$CF20s?5?3?5?$CFp?$AA@ c0044d60     AcpiSubsystem:exdump.obj
 0002:0000a36c       ??_C@_0L@OHAGIEGC@?$CI?$CFs?5?$CF2?42X?$CJ?$AA@ c0044d6c     AcpiSubsystem:exdump.obj
 0002:0000a378       ??_C@_0P@MFMPBCNN@?9?$DO?$CFp?$CI?$CFs?5?$CF2?42X?$CJ?$AA@ c0044d78     AcpiSubsystem:exdump.obj
 0002:0000a388       ??_C@_0DH@MLOGDJDH@?6?$CK?$CK?$CK?$CK?5Error?3?5Object?5list?5appears@ c0044d88     AcpiSubsystem:exdump.obj
 0002:0000a3c0       ??_C@_0DI@BHECHNCP@?6?$CK?$CK?$CK?$CK?5Error?3?5Handler?5list?5appear@ c0044dc0     AcpiSubsystem:exdump.obj
 0002:0000a3f8       ??_C@_0DH@BJBAPBLH@?6?$CK?$CK?$CK?$CK?5Error?3?5Region?5list?5appears@ c0044df8     AcpiSubsystem:exdump.obj
 0002:0000a430       ??_C@_08MJDPNOGB@?5?$FL?$CF4?44s?$FN?$AA@ c0044e30     AcpiSubsystem:exdump.obj
 0002:0000a43c       ??_C@_0CF@HJHIAEEK@?$CK?$CK?$CK?$CK?5Invalid?5table?5opcode?5?$FL?$CFX?$FN?5?$CK@ c0044e3c     AcpiSubsystem:exdump.obj
 0002:0000a464       ??_C@_0BI@MCGIEDPF@Null?5Object?5Descriptor?6?$AA@ c0044e64     AcpiSubsystem:exdump.obj
 0002:0000a47c       ??_C@_0BE@IPAJEKME@?$CFp?5Namespace?5Node?3?5?$AA@ c0044e7c     AcpiSubsystem:exdump.obj
 0002:0000a490       ??_C@_0CK@NLOGBBEK@?$CFp?5is?5not?5a?5node?5or?5operand?5obje@ c0044e90     AcpiSubsystem:exdump.obj
 0002:0000a4bc       ??_C@_0M@KFHMBHHG@?$CF?$CKs?$FL?$CFu?$FN?5?$CFp?5?$AA@ c0044ebc     AcpiSubsystem:exdump.obj
 0002:0000a4c8       ??_C@_03IICCDDBN@?$CFp?5?$AA@ c0044ec8     AcpiSubsystem:exdump.obj
 0002:0000a4cc       ??_C@_0BB@PLPEOOOD@Reference?3?5?$FL?$CFs?$FN?5?$AA@ c0044ecc     AcpiSubsystem:exdump.obj
 0002:0000a4e0       ??_C@_03OHEJPPDF@?$CFp?6?$AA@ c0044ee0     AcpiSubsystem:exdump.obj
 0002:0000a4e4       ??_C@_0BA@GJEDMBNF@Table?5Index?5?$CFX?6?$AA@ c0044ee4     AcpiSubsystem:exdump.obj
 0002:0000a4f4       ??_C@_08DKBEIGOK@?$CFp?5?$FL?$CFs?$FN?6?$AA@ c0044ef4     AcpiSubsystem:exdump.obj
 0002:0000a500       ??_C@_0L@FJGJNNA@?9?5?$FL?$CF4?44s?$FN?6?$AA@ c0044f00     AcpiSubsystem:exdump.obj
 0002:0000a50c       ??_C@_03NBBHOIGN@?$CFX?6?$AA@ c0044f0c     AcpiSubsystem:exdump.obj
 0002:0000a510       ??_C@_06KDHKGNB@?$CF2?42X?6?$AA@ c0044f10     AcpiSubsystem:exdump.obj
 0002:0000a518       ??_C@_0BJ@HOHEPCMP@Buffer?5length?5?$CF?42X?5?$EA?5?$CFp?6?$AA@ c0044f18     AcpiSubsystem:exdump.obj
 0002:0000a534       ??_C@_0CN@BAHDFGGP@Buffer?5Contents?3?5?$CIdisplaying?5len@ c0044f34     AcpiSubsystem:exdump.obj
 0002:0000a564       ??_C@_0BE@HMGNBFEI@Integer?5?$CF8?48X?$CF8?48X?6?$AA@ c0044f64     AcpiSubsystem:exdump.obj
 0002:0000a578       ??_C@_0CC@NHANBOGG@Package?5?$FLLen?5?$CFX?$FN?5ElementArray?5?$CFp@ c0044f78     AcpiSubsystem:exdump.obj
 0002:0000a59c       ??_C@_0P@GFMLGOGG@Region?5?$CFs?5?$CI?$CFX?$CJ?$AA@ c0044f9c     AcpiSubsystem:exdump.obj
 0002:0000a5ac       ??_C@_0BM@INOINKCB@?5base?5?$CF8?48X?$CF8?48X?5Length?5?$CFX?6?$AA@ c0044fac     AcpiSubsystem:exdump.obj
 0002:0000a5c8       ??_C@_0BH@MEIBECLB@String?5length?5?$CFX?5?$EA?5?$CFp?5?$AA@ c0044fc8     AcpiSubsystem:exdump.obj
 0002:0000a5e0       ??_C@_0L@KAGKECIJ@BankField?6?$AA@ c0044fe0     AcpiSubsystem:exdump.obj
 0002:0000a5f0       ??_C@_0FA@KJAJJENH@RegionField?3?5Bits?$DN?$CFX?5AccWidth?$DN?$CFX@ c0044ff0     AcpiSubsystem:exdump.obj
 0002:0000a640       ??_C@_0M@HDMMGCK@IndexField?6?$AA@ c0045040     AcpiSubsystem:exdump.obj
 0002:0000a64c       ??_C@_0CL@JEOIJKNJ@BufferField?3?5?$CFX?5bits?5at?5byte?5?$CFX?5@ c004504c     AcpiSubsystem:exdump.obj
 0002:0000a678       ??_C@_07DJOILABJ@?$CKNULL?$CK?6?$AA@ c0045078     AcpiSubsystem:exdump.obj
 0002:0000a680       ??_C@_0BA@EEHJAOAL@?$CKnot?5a?5Buffer?$CK?6?$AA@ c0045080     AcpiSubsystem:exdump.obj
 0002:0000a690       ??_C@_06IKOHMEII@Event?6?$AA@ c0045090     AcpiSubsystem:exdump.obj
 0002:0000a698       ??_C@_0BE@IDLAFGNG@Method?$CI?$CFX?$CJ?5?$EA?5?$CFp?3?$CFX?6?$AA@ c0045098     AcpiSubsystem:exdump.obj
 0002:0000a6ac       ??_C@_06LMAHDIBG@Mutex?6?$AA@ c00450ac     AcpiSubsystem:exdump.obj
 0002:0000a6b4       ??_C@_07DKLNMNIP@Device?6?$AA@ c00450b4     AcpiSubsystem:exdump.obj
 0002:0000a6bc       ??_C@_06FCHEBLOD@Power?6?$AA@ c00450bc     AcpiSubsystem:exdump.obj
 0002:0000a6c4       ??_C@_0L@OHFBBKGM@Processor?6?$AA@ c00450c4     AcpiSubsystem:exdump.obj
 0002:0000a6d0       ??_C@_08PDDIHGPJ@Thermal?6?$AA@ c00450d0     AcpiSubsystem:exdump.obj
 0002:0000a6dc       ??_C@_0BB@JINFLGKI@Unknown?5Type?5?$CFX?6?$AA@ c00450dc     AcpiSubsystem:exdump.obj
 0002:0000a6f0       ??_C@_07NFANNNEC@UNKNOWN?$AA@ c00450f0     AcpiSubsystem:exdump.obj
 0002:0000a6f8       ??_C@_0DG@IFPLFOPN@?$CK?$CK?$CK?$CK?5Start?5operand?5dump?5for?5opco@ c00450f8     AcpiSubsystem:exdump.obj
 0002:0000a730       ??_C@_0CA@FOKHNCKL@?$CK?$CK?$CK?$CK?5End?5operand?5dump?5for?5?$FL?$CFs?$FN?6?$AA@ c0045130     AcpiSubsystem:exdump.obj
 0002:0000a750       ??_C@_0L@JDHCDKPO@?$CF20s?5?3?5?$CFs?6?$AA@ c0045150     AcpiSubsystem:exdump.obj
 0002:0000a75c       ??_C@_0L@JBDEIEKH@?$CF20s?5?3?5?$CFp?6?$AA@ c004515c     AcpiSubsystem:exdump.obj
 0002:0000a768       ??_C@_04FABLJDN@Name?$AA@  c0045168     AcpiSubsystem:exdump.obj
 0002:0000a770       ??_C@_0O@NBPFHCEF@?$CF20s?5?3?5?$CF4?44s?6?$AA@ c0045170     AcpiSubsystem:exdump.obj
 0002:0000a780       ??_C@_04KOIFDEBI@?5?$CFp?5?$AA@ c0045180     AcpiSubsystem:exdump.obj
 0002:0000a788       ??_C@_0CF@EIDKCMAG@?5Could?5not?5convert?5name?5to?5pathn@ c0045188     AcpiSubsystem:exdump.obj
 0002:0000a7b0       ??_C@_08OMGEPCIB@Target?5?3?$AA@ c00451b0     AcpiSubsystem:exdump.obj
 0002:0000a7bc       ??_C@_07FCPMJGKF@?$CF22s?5?$CFp?$AA@ c00451bc     AcpiSubsystem:exdump.obj
 0002:0000a7c4       ??_C@_0BC@GDENCHMC@?5Table?5Index?3?5?$CFX?6?$AA@ c00451c4     AcpiSubsystem:exdump.obj
 0002:0000a7d8       ??_C@_06CFEHBLEG@?5?$FL?$CFs?$FN?6?$AA@ c00451d8     AcpiSubsystem:exdump.obj
 0002:0000a7e0       ??_C@_0N@PKJCONDF@?5Target?3?5?$CFp?6?$AA@ c00451e0     AcpiSubsystem:exdump.obj
 0002:0000a7f0       ??_C@_07KMPHKPII@?$FL?$CF?42d?$FN?5?$AA@ c00451f0     AcpiSubsystem:exdump.obj
 0002:0000a7f8       ??_C@_0BC@PJMDDAAB@?$FLString?$FN?5?5Value?3?5?$AA@ c00451f8     AcpiSubsystem:exdump.obj
 0002:0000a80c       ??_C@_0CD@BKCONIAO@?$FLObject?5Reference?$FN?5Type?5?$FL?$CFs?$FN?5?$CF2?4@ c004520c     AcpiSubsystem:exdump.obj
 0002:0000a830       ??_C@_0BI@HMJKGDAL@?6Attached?5Object?5?$CI?$CFp?$CJ?3?6?$AA@ c0045230     AcpiSubsystem:exdump.obj
 0002:0000a848       ??_C@_0CI@HCKKEFCL@?$CFp?5is?5not?5an?5ACPI?5operand?5object@ c0045248     AcpiSubsystem:exdump.obj
 0002:0000a870       ??_C@_0CA@JMMLLMDE@Not?5a?5known?5object?5type?3?5?$CF2?42X?6?$AA@ c0045270     AcpiSubsystem:exdump.obj
 0002:0000a890       ??_C@_0DE@NOPHGKOH@Secondary?5object?5is?5not?5a?5known?5@ c0045290     AcpiSubsystem:exdump.obj
 0002:0000a8c4       ??_C@_0BO@BMOFKKCH@?6Extra?5attached?5Object?5?$CI?$CFp?$CJ?3?6?$AA@ c00452c4     AcpiSubsystem:exdump.obj
 0002:0000a914       ??_C@_0CI@GGMMOHLB@GPIO?5FieldRead?5?$FLFROM?$FN?3?5?5Pin?5?$CFu?5B@ c0045314     AcpiSubsystem:exfield.obj
 0002:0000a93c       ??_C@_0DH@JIEJOHLI@FieldRead?5?$FLTO?$FN?3?5?5?5Obj?5?$CFp?0?5Type?5?$CF@ c004533c     AcpiSubsystem:exfield.obj
 0002:0000a974       ??_C@_0DE@FFGPGDBN@FieldRead?5?$FLFROM?$FN?3?5BitLen?5?$CFX?0?5Bit@ c0045374     AcpiSubsystem:exfield.obj
 0002:0000a9a8       ??_C@_0EB@PCAHHNCG@SMBus?1IPMI?1GenericSerialBus?5writ@ c00453a8     AcpiSubsystem:exfield.obj
 0002:0000a9f0       ??_C@_0FA@DMGHMJLH@SMBus?1IPMI?1GenericSerialBus?5writ@ c00453f0     AcpiSubsystem:exfield.obj
 0002:0000aa40       ??_C@_0EC@ELANAONB@GPIO?5FieldWrite?5?$FLFROM?$FN?3?5?$CI?$CFs?3?$CFX?$CJ?0@ c0045440     AcpiSubsystem:exfield.obj
 0002:0000aa84       ??_C@_0DH@NHFIJIIK@FieldWrite?5?$FLFROM?$FN?3?5Obj?5?$CFp?5?$CI?$CFs?3?$CFX@ c0045484     AcpiSubsystem:exfield.obj
 0002:0000aac0       ??_C@_0EF@GDCLBELG@FieldWrite?5?$FLTO?$FN?3?5?5?5Obj?5?$CFp?5?$CI?$CFs?3?$CFX@ c00454c0     AcpiSubsystem:exfield.obj
 0002:0000ab24       ??_C@_0DD@FOKJDHBE@?$CFs?5Validating?5return?5Package?5of?5@ c0045524     AcpiSubsystem:nsprepkg.obj
 0002:0000ab58       ??_C@_0CH@IDLELAJG@Return?5Package?5has?5no?5elements?5?$CI@ c0045558     AcpiSubsystem:nsprepkg.obj
 0002:0000ab80       ??_C@_0EC@HMBNFCAJ@?$CFs?3?5Return?5Package?5is?5larger?5tha@ c0045580     AcpiSubsystem:nsprepkg.obj
 0002:0000abc4       ??_C@_0BP@JCDJKBGG@Invalid?5length?5for?5UUID?5Buffer?$AA@ c00455c4     AcpiSubsystem:nsprepkg.obj
 0002:0000abe4       ??_C@_0DA@LCFKCFKF@Invalid?5internal?5return?5type?5in?5@ c00455e4     AcpiSubsystem:nsprepkg.obj
 0002:0000ac14       ??_C@_0DN@HAIJDAIF@Return?5Package?5is?5too?5small?5?9?5fo@ c0045614     AcpiSubsystem:nsprepkg.obj
 0002:0000ac58       ??_C@_0EE@DBOKMOHJ@Return?5SubPackage?$FL?$CFu?$FN?5is?5too?5sma@ c0045658     AcpiSubsystem:nsprepkg.obj
 0002:0000ad60       ??_C@_0BO@PAJPOFNC@Missing?5expected?5return?5value?$AA@ c0045760     AcpiSubsystem:nsrepair.obj
 0002:0000ad80       ??_C@_0BO@FDMJFKAM@During?5return?5object?5analysis?$AA@ c0045780     AcpiSubsystem:nsrepair.obj
 0002:0000ada0       ??_C@_0CG@JKGPJBLA@Found?5unexpected?5NULL?5package?5el@ c00457a0     AcpiSubsystem:nsrepair.obj
 0002:0000adc8       ??_C@_0DF@HJHEPDBN@?$CFs?3?5Converted?5?$CFs?5to?5expected?5?$CFs?5@ c00457c8     AcpiSubsystem:nsrepair.obj
 0002:0000ae00       ??_C@_0CB@EJBKNEBB@?$CFs?3?5Converted?5?$CFs?5to?5expected?5?$CFs?6@ c0045800     AcpiSubsystem:nsrepair.obj
 0002:0000ae24       ??_C@_0DP@MMKANGJO@?$CFs?3?5Converted?5NULL?5package?5eleme@ c0045824     AcpiSubsystem:nsrepair.obj
 0002:0000ae64       ??_C@_0CI@KGJEJHJB@?$CFs?3?5Found?5and?5removed?5?$CFu?5NULL?5el@ c0045864     AcpiSubsystem:nsrepair.obj
 0002:0000ae8c       ??_C@_0CN@ECFFKPBM@?$CFs?3?5Wrapped?5?$CFs?5with?5expected?5Pac@ c004588c     AcpiSubsystem:nsrepair.obj
 0002:0000af74       ??_C@_0BD@GIEJCDMC@AmbientIlluminance?$AA@ c0045974     AcpiSubsystem:nsrepair2.obj
 0002:0000af88       ??_C@_0CP@ELPDLHHA@Incorrect?5return?5buffer?5length?5?$CF@ c0045988     AcpiSubsystem:nsrepair2.obj
 0002:0000afb8       ??_C@_0DC@FJPPFNMO@?$CFs?5Expanded?5Byte?5Buffer?5to?5expec@ c00459b8     AcpiSubsystem:nsrepair2.obj
 0002:0000afec       ??_C@_0DC@NCDGBGBJ@SubPackage?$FL?$CFu?$FN?5?9?5removing?5entry?5@ c00459ec     AcpiSubsystem:nsrepair2.obj
 0002:0000b020       ??_C@_0DH@EEFJBHCO@SubPackage?$FL?$CFu?$FN?5?9?5removing?5entry?5@ c0045a20     AcpiSubsystem:nsrepair2.obj
 0002:0000b058       ??_C@_0N@ECFDBNJP@C?9State?5Type?$AA@ c0045a58     AcpiSubsystem:nsrepair2.obj
 0002:0000b068       ??_C@_0CI@NDPDCLMP@Invalid?5zero?9length?5_HID?5or?5_CID@ c0045a68     AcpiSubsystem:nsrepair2.obj
 0002:0000b090       ??_C@_0CG@NDKBCEHJ@?$CFs?3?5Removed?5invalid?5leading?5aste@ c0045a90     AcpiSubsystem:nsrepair2.obj
 0002:0000b0b8       ??_C@_0DD@GFGPLIDJ@PRT?$FL?$CFX?$FN?3?5Fixed?5reversed?5SourceNa@ c0045ab8     AcpiSubsystem:nsrepair2.obj
 0002:0000b0ec       ??_C@_0N@KBLOIBBA@CpuFrequency?$AA@ c0045aec     AcpiSubsystem:nsrepair2.obj
 0002:0000b0fc       ??_C@_0DI@MLJAPCIP@SubPackage?$FL?$CFu?0?$CFu?$FN?5?9?5suspicious?5p@ c0045afc     AcpiSubsystem:nsrepair2.obj
 0002:0000b134       ??_C@_05PGJLPOBN@?$FO_PSS?$AA@ c0045b34     AcpiSubsystem:nsrepair2.obj
 0002:0000b13c       ??_C@_0BB@FKGGIDAE@PowerDissipation?$AA@ c0045b3c     AcpiSubsystem:nsrepair2.obj
 0002:0000b150       ??_C@_0CP@INBOMNLE@?$CFs?3?5Repaired?5unsorted?5list?5?9?5now@ c0045b50     AcpiSubsystem:nsrepair2.obj
 0002:0000b194       ??_C@_0BG@NJPAFDMO@Address?5?$CFp?5is?5invalid?$AA@ c0045b94     AcpiSubsystem:dbcmds.obj
 0002:0000b1ac       ??_C@_0CP@CKOFDNDG@Address?5?$CFp?5is?5not?5a?5valid?5namesp@ c0045bac     AcpiSubsystem:dbcmds.obj
 0002:0000b1dc       ??_C@_0DL@IACKOKLI@Could?5not?5find?5?$FL?$CFs?$FN?5in?5namespace@ c0045bdc     AcpiSubsystem:dbcmds.obj
 0002:0000b218       ??_C@_0CK@PEIOEMEA@Invoking?5all?5possible?5sleep?5stat@ c0045c18     AcpiSubsystem:dbcmds.obj
 0002:0000b244       ??_C@_0CG@LHHCLLKI@Sleep?5state?5?$CFd?5out?5of?5range?5?$CI?$CFd?5@ c0045c44     AcpiSubsystem:dbcmds.obj
 0002:0000b26c       ??_C@_0CG@OIPHJJPJ@?6?9?9?9?9?5Invoking?5sleep?5state?5S?$CFd?5?$CI@ c0045c6c     AcpiSubsystem:dbcmds.obj
 0002:0000b294       ??_C@_0CE@KHJDKCGP@Could?5not?5evaluate?5?$FL?$CFs?$FN?5method?0?5@ c0045c94     AcpiSubsystem:dbcmds.obj
 0002:0000b2b8       ??_C@_0ED@BGMNFNCB@Register?5values?5for?5sleep?5state?5@ c0045cb8     AcpiSubsystem:dbcmds.obj
 0002:0000b2fc       ??_C@_0CJ@JKLEJEKM@?$CK?$CK?$CK?$CK?5Sleep?3?5Prepare?5to?5sleep?5?$CIS?$CF@ c0045cfc     AcpiSubsystem:dbcmds.obj
 0002:0000b328       ??_C@_0CH@POLJGPBD@?$CK?$CK?$CK?$CK?5Sleep?3?5Going?5to?5sleep?5?$CIS?$CFd?$CJ@ c0045d28     AcpiSubsystem:dbcmds.obj
 0002:0000b350       ??_C@_0DE@ONKILJHN@?$CK?$CK?$CK?$CK?5Wake?3?5Prepare?5to?5return?5fro@ c0045d50     AcpiSubsystem:dbcmds.obj
 0002:0000b384       ??_C@_0CJ@HMBLDIAI@?$CK?$CK?$CK?$CK?5Wake?3?5Return?5from?5sleep?5?$CIS?$CF@ c0045d84     AcpiSubsystem:dbcmds.obj
 0002:0000b3b0       ??_C@_0CF@FBODLHLF@During?5invocation?5of?5sleep?5state@ c0045db0     AcpiSubsystem:dbcmds.obj
 0002:0000b3d8       ??_C@_06GFKCFIPE@Locked?$AA@ c0045dd8     AcpiSubsystem:dbcmds.obj
 0002:0000b3e0       ??_C@_08CMNOBMAI@Unlocked?$AA@ c0045de0     AcpiSubsystem:dbcmds.obj
 0002:0000b3ec       ??_C@_0L@OAGIEDHE@?$CF26s?5?3?5?$CFs?6?$AA@ c0045dec     AcpiSubsystem:dbcmds.obj
 0002:0000b3f8       ??_C@_0EH@KMIEHIHC@Idx?5ID?5?5?5?5Status?5Type?5?5?5?5?5?5?5?5?5?5?5@ c0045df8     AcpiSubsystem:dbcmds.obj
 0002:0000b440       ??_C@_09DNLMLOLB@?$CF3u?5?$CF?42u?5?$AA@ c0045e40     AcpiSubsystem:dbcmds.obj
 0002:0000b44c       ??_C@_0L@OHJBBHGN@NotLoaded?5?$AA@ c0045e4c     AcpiSubsystem:dbcmds.obj
 0002:0000b458       ??_C@_0L@KFDMOGAE@?5?5?5Loaded?5?$AA@ c0045e58     AcpiSubsystem:dbcmds.obj
 0002:0000b464       ??_C@_0BD@GMHEDP@External?1virtual?5?5?$AA@ c0045e64     AcpiSubsystem:dbcmds.obj
 0002:0000b478       ??_C@_0BD@MHOMPPOA@Internal?1physical?5?$AA@ c0045e78     AcpiSubsystem:dbcmds.obj
 0002:0000b48c       ??_C@_0BD@MAHKIEMF@Internal?1virtual?5?5?$AA@ c0045e8c     AcpiSubsystem:dbcmds.obj
 0002:0000b4a0       ??_C@_0BD@OHKPKDIC@INVALID?5TYPE?5?5?5?5?5?5?$AA@ c0045ea0     AcpiSubsystem:dbcmds.obj
 0002:0000b4b4       ??_C@_0CA@FKMONPPA@?$CF4?44s?5?9?5Table?5has?5been?5unloaded?$AA@ c0045eb4     AcpiSubsystem:dbcmds.obj
 0002:0000b4d4       ??_C@_0CO@CHHPEFBB@Parent?5of?5?$FL?$CFs?$FN?5?$CI?$CFp?$CJ?5unloaded?5and@ c0045ed4     AcpiSubsystem:dbcmds.obj
 0002:0000b504       ??_C@_0CK@MHIAHAMB@?$CFs?0?5while?5unloading?5parent?5table@ c0045f04     AcpiSubsystem:dbcmds.obj
 0002:0000b530       ??_C@_0BI@HBKMCBCP@Could?5not?5queue?5notify?6?$AA@ c0045f30     AcpiSubsystem:dbcmds.obj
 0002:0000b548       ??_C@_0EF@ECBGCHFB@Named?5object?5?$FL?$CF4?44s?$FN?5Type?5?$CFs?0?5mu@ c0045f48     AcpiSubsystem:dbcmds.obj
 0002:0000b590       ??_C@_0CB@FGALBABK@Missing?5Interface?5Name?5argument?6@ c0045f90     AcpiSubsystem:dbcmds.obj
 0002:0000b5b4       ??_C@_07PJFGKPND@INSTALL?$AA@ c0045fb4     AcpiSubsystem:dbcmds.obj
 0002:0000b5bc       ??_C@_0BL@GGEIAJIB@?$CFs?0?5while?5installing?5?$CC?$CFs?$CC?6?$AA@ c0045fbc     AcpiSubsystem:dbcmds.obj
 0002:0000b5d8       ??_C@_06PGHHOBB@REMOVE?$AA@ c0045fd8     AcpiSubsystem:dbcmds.obj
 0002:0000b5e0       ??_C@_0BJ@FELHKIAG@?$CFs?0?5while?5removing?5?$CC?$CFs?$CC?6?$AA@ c0045fe0     AcpiSubsystem:dbcmds.obj
 0002:0000b5fc       ??_C@_0BN@OKLHKHDN@Invalid?5action?5argument?3?5?$CFs?6?$AA@ c0045ffc     AcpiSubsystem:dbcmds.obj
 0002:0000b61c       ??_C@_0BG@FALELBGD@Invalid?5argument?3?5?$CFs?6?$AA@ c004601c     AcpiSubsystem:dbcmds.obj
 0002:0000b634       ??_C@_0CP@JDCGCBLL@Not?5a?5Buffer?5object?0?5cannot?5be?5a@ c0046034     AcpiSubsystem:dbcmds.obj
 0002:0000b664       ??_C@_0DF@JDGAJDHL@Could?5not?5convert?5Buffer?5to?5a?5re@ c0046064     AcpiSubsystem:dbcmds.obj
 0002:0000b69c       ??_C@_0BD@MLEHMLEC@?6Raw?5data?5buffer?3?6?$AA@ c004609c     AcpiSubsystem:dbcmds.obj
 0002:0000b6b0       ??_C@_0EI@FDLCEGFJ@?$CK?$CK?$CK?$CK?5Buffer?5length?5mismatch?5in?5c@ c00460b0     AcpiSubsystem:dbcmds.obj
 0002:0000b6f8       ??_C@_0FK@ELOKLFEE@?$CK?$CK?$CK?$CK?5Length?5mismatch?5in?5descript@ c00460f8     AcpiSubsystem:dbcmds.obj
 0002:0000b758       ??_C@_0EH@MNDINJEA@?$CK?$CK?$CK?$CK?5Data?5mismatch?5in?5descriptor@ c0046158     AcpiSubsystem:dbcmds.obj
 0002:0000b7a0       ??_C@_0DJ@LGHGAIBN@Mismatch?5at?5byte?5offset?5?$CF?42X?3?5is@ c00461a0     AcpiSubsystem:dbcmds.obj
 0002:0000b7dc       ??_C@_0CB@MCFJKHEO@Resource?5Conversion?5Comparison?3?6@ c00461dc     AcpiSubsystem:dbcmds.obj
 0002:0000b800       ??_C@_0BJ@PLDPGICH@Could?5not?5obtain?5?$CFs?3?5?$CFs?6?$AA@ c0046200     AcpiSubsystem:dbcmds.obj
 0002:0000b81c       ??_C@_0CE@PHLBCHG@AcpiGetCurrentResources?5failed?3?5@ c004621c     AcpiSubsystem:dbcmds.obj
 0002:0000b840       ??_C@_0CF@LONHCPLO@AcpiRsCreateAmlResources?5failed?3@ c0046240     AcpiSubsystem:dbcmds.obj
 0002:0000b868       ??_C@_04PJHMDNNE@_PRT?$AA@ c0046268     AcpiSubsystem:dbcmds.obj
 0002:0000b870       ??_C@_04PEJBFDGC@_CRS?$AA@ c0046270     AcpiSubsystem:dbcmds.obj
 0002:0000b878       ??_C@_04LGDNKLBD@_PRS?$AA@ c0046278     AcpiSubsystem:dbcmds.obj
 0002:0000b880       ??_C@_04PHNMNEMH@_AEI?$AA@ c0046280     AcpiSubsystem:dbcmds.obj
 0002:0000b888       ??_C@_0N@LNLAFNE@?6Device?3?5?$CFs?6?$AA@ c0046288     AcpiSubsystem:dbcmds.obj
 0002:0000b898       ??_C@_0BB@INGACKNN@Evaluating?5_PRT?6?$AA@ c0046298     AcpiSubsystem:dbcmds.obj
 0002:0000b8ac       ??_C@_0BN@GBNJKCEG@Could?5not?5evaluate?5_PRT?3?5?$CFs?6?$AA@ c00462ac     AcpiSubsystem:dbcmds.obj
 0002:0000b8cc       ??_C@_0BP@LCLHFAMD@GetIrqRoutingTable?5failed?3?5?$CFs?6?$AA@ c00462cc     AcpiSubsystem:dbcmds.obj
 0002:0000b8ec       ??_C@_0BB@KPGPNBAK@Evaluating?5_CRS?6?$AA@ c00462ec     AcpiSubsystem:dbcmds.obj
 0002:0000b900       ??_C@_0BN@DBDDOCHM@Could?5not?5evaluate?5_CRS?3?5?$CFs?6?$AA@ c0046300     AcpiSubsystem:dbcmds.obj
 0002:0000b920       ??_C@_0BO@GNFOMDGA@AcpiWalkResources?5failed?3?5?$CFs?6?$AA@ c0046320     AcpiSubsystem:dbcmds.obj
 0002:0000b940       ??_C@_0CD@PFDPICHE@AcpiWalkResourceBuffer?5failed?3?5?$CF@ c0046340     AcpiSubsystem:dbcmds.obj
 0002:0000b964       ??_C@_0BB@MPIPEGII@Evaluating?5_SRS?6?$AA@ c0046364     AcpiSubsystem:dbcmds.obj
 0002:0000b978       ??_C@_0CE@GDKIGGLF@AcpiSetCurrentResources?5failed?3?5@ c0046378     AcpiSubsystem:dbcmds.obj
 0002:0000b99c       ??_C@_0BB@IICPDMFI@Evaluating?5_PRS?6?$AA@ c004639c     AcpiSubsystem:dbcmds.obj
 0002:0000b9b0       ??_C@_0BN@KEHOJMMI@Could?5not?5evaluate?5_PRS?3?5?$CFs?6?$AA@ c00463b0     AcpiSubsystem:dbcmds.obj
 0002:0000b9d0       ??_C@_0CF@MEMNKGAJ@AcpiGetPossibleResources?5failed?3@ c00463d0     AcpiSubsystem:dbcmds.obj
 0002:0000b9f8       ??_C@_0BB@JNAMLOK@Evaluating?5_AEI?6?$AA@ c00463f8     AcpiSubsystem:dbcmds.obj
 0002:0000ba0c       ??_C@_0BN@KKBFDBEI@Could?5not?5evaluate?5_AEI?3?5?$CFs?6?$AA@ c004640c     AcpiSubsystem:dbcmds.obj
 0002:0000ba2c       ??_C@_0CC@GDGPNOPE@AcpiGetEventResources?5failed?3?5?$CFs@ c004642c     AcpiSubsystem:dbcmds.obj
 0002:0000ba50       ??_C@_01NBENCBCI@?$CK?$AA@ c0046450     AcpiSubsystem:dbcmds.obj
 0002:0000ba54       ??_C@_0CJ@LAOANPDL@?$CF4?44s?3?5Name?5is?5not?5a?5device?5obje@ c0046454     AcpiSubsystem:dbcmds.obj
 0002:0000ba80       ??_C@_0N@IDIEOCGM@Invalid?5GPE?6?$AA@ c0046480     AcpiSubsystem:dbcmds.obj
 0002:0000ba9c       ??_C@_0BF@LKCEBCBJ@System?5Notifications?$AA@ c004649c     AcpiSubsystem:dbdisply.obj
 0002:0000bab4       ??_C@_0BF@JMHCCGGN@Device?5Notifications?$AA@ c00464b4     AcpiSubsystem:dbdisply.obj
 0002:0000bacc       ??_C@_0BC@DKPPCCGB@ACPI?5Table?5Events?$AA@ c00464cc     AcpiSubsystem:dbdisply.obj
 0002:0000bae0       ??_C@_0BK@DFDNKHLD@Control?5Method?5Exceptions?$AA@ c00464e0     AcpiSubsystem:dbdisply.obj
 0002:0000bafc       ??_C@_0BA@PFGKPCDI@OSI?5Invocations?$AA@ c00464fc     AcpiSubsystem:dbdisply.obj
 0002:0000bb0c       ??_C@_0BH@FIHBLBJG@Parser?5Op?5Descriptor?3?6?$AA@ c004650c     AcpiSubsystem:dbdisply.obj
 0002:0000bb24       ??_C@_06DBHBDOAG@Opcode?$AA@ c0046524     AcpiSubsystem:dbdisply.obj
 0002:0000bb2c       ??_C@_0BB@NCJDHHPE@?$CF20?420s?5?3?5?$CF4?44X?6?$AA@ c004652c     AcpiSubsystem:dbdisply.obj
 0002:0000bb40       ??_C@_0M@DHKKMLAO@Opcode?5Name?$AA@ c0046540     AcpiSubsystem:dbdisply.obj
 0002:0000bb4c       ??_C@_0O@DAKEANEE@?$CF20?420s?5?3?5?$CFs?6?$AA@ c004654c     AcpiSubsystem:dbdisply.obj
 0002:0000bb5c       ??_C@_0O@KHLLADBP@Value?1ArgList?$AA@ c004655c     AcpiSubsystem:dbdisply.obj
 0002:0000bb6c       ??_C@_0O@DCOCLDBN@?$CF20?420s?5?3?5?$CFp?6?$AA@ c004656c     AcpiSubsystem:dbdisply.obj
 0002:0000bb7c       ??_C@_06FHJIJPIC@NextOp?$AA@ c004657c     AcpiSubsystem:dbdisply.obj
 0002:0000bb84       ??_C@_0CN@MOBILEMP@Address?5?$CFp?5is?5invalid?5in?5this?5ad@ c0046584     AcpiSubsystem:dbdisply.obj
 0002:0000bbb4       ??_C@_0CP@EKHHDOEJ@Cannot?5read?5entire?5Named?5object?5@ c00465b4     AcpiSubsystem:dbdisply.obj
 0002:0000bbe4       ??_C@_0CO@IFIMAMAF@Cannot?5read?5entire?5ACPI?5object?5a@ c00465e4     AcpiSubsystem:dbdisply.obj
 0002:0000bc14       ??_C@_0DA@IPDNEKDC@Cannot?5read?5entire?5Parser?5object@ c0046614     AcpiSubsystem:dbdisply.obj
 0002:0000bc44       ??_C@_0DJ@MBNCCPIC@Not?5a?5known?5ACPI?5internal?5object@ c0046644     AcpiSubsystem:dbdisply.obj
 0002:0000bc80       ??_C@_0CE@MCCFFIMN@Could?5not?5convert?5name?5to?5pathna@ c0046680     AcpiSubsystem:dbdisply.obj
 0002:0000bca4       ??_C@_0BL@OCKPPNKJ@Object?5?$CI?$CFp?$CJ?5Pathname?3?5?5?$CFs?6?$AA@ c00466a4     AcpiSubsystem:dbdisply.obj
 0002:0000bcc0       ??_C@_0CE@CHFIJAGK@Invalid?5Named?5object?5at?5address?5@ c00466c0     AcpiSubsystem:dbdisply.obj
 0002:0000bce4       ??_C@_0CM@GHCMAGNA@Invalid?5internal?5ACPI?5Object?5at?5@ c00466e4     AcpiSubsystem:dbdisply.obj
 0002:0000bd10       ??_C@_0CI@BONBLPJH@There?5is?5no?5method?5currently?5exe@ c0046710     AcpiSubsystem:dbdisply.obj
 0002:0000bd38       ??_C@_0CP@BIPMPHBH@Currently?5executing?5control?5meth@ c0046738     AcpiSubsystem:dbdisply.obj
 0002:0000bd68       ??_C@_0BO@LLKGNFAI@?$CFX?5Arguments?0?5SyncLevel?5?$DN?5?$CFX?6?$AA@ c0046768     AcpiSubsystem:dbdisply.obj
 0002:0000bd88       ??_C@_0ED@EPBPGHAK@Method?5contains?3?5?5?5?5?5?5?5?$CFX?5AML?5Op@ c0046788     AcpiSubsystem:dbdisply.obj
 0002:0000bdd0       ??_C@_0ED@OGGMGHLF@Remaining?5to?5execute?3?5?5?$CFX?5AML?5Op@ c00467d0     AcpiSubsystem:dbdisply.obj
 0002:0000be14       ??_C@_0CO@LNOPBHKM@Method?5?$FL?$CF4?44s?$FN?5has?5?$CFX?5stacked?5re@ c0046814     AcpiSubsystem:dbdisply.obj
 0002:0000be44       ??_C@_0L@JLOHFIFO@Result?$CFu?3?5?$AA@ c0046844     AcpiSubsystem:dbdisply.obj
 0002:0000be50       ??_C@_0CC@DAFJDMJL@Current?5Control?5Method?5Call?5Tree@ c0046850     AcpiSubsystem:dbdisply.obj
 0002:0000be74       ??_C@_0N@BLOLHLE@?5?5?5?5?$FL?$CF4?44s?$FN?6?$AA@ c0046874     AcpiSubsystem:dbdisply.obj
 0002:0000be84       ??_C@_0BP@BLPNADPI@Could?5not?5get?5object?5info?0?5?$CFs?6?$AA@ c0046884     AcpiSubsystem:dbdisply.obj
 0002:0000bea4       ??_C@_0CI@ELFOJKIE@ADR?3?5?$CF8?48X?$CF8?48X?0?5STA?3?5?$CF8?48X?0?5Fla@ c00468a4     AcpiSubsystem:dbdisply.obj
 0002:0000becc       ??_C@_0CJ@DAEALNIJ@S1D?9?$CF2?42X?5S2D?9?$CF2?42X?5S3D?9?$CF2?42X?5S4@ c00468cc     AcpiSubsystem:dbdisply.obj
 0002:0000bef8       ??_C@_0DD@JOBFLKOE@S0W?9?$CF2?42X?5S1W?9?$CF2?42X?5S2W?9?$CF2?42X?5S3@ c00468f8     AcpiSubsystem:dbdisply.obj
 0002:0000bf2c       ??_C@_08KFLOKIKC@HID?3?5?$CFs?6?$AA@ c004692c     AcpiSubsystem:dbdisply.obj
 0002:0000bf38       ??_C@_08PIDBANIE@UID?3?5?$CFs?6?$AA@ c0046938     AcpiSubsystem:dbdisply.obj
 0002:0000bf44       ??_C@_08MDOPGFFA@SUB?3?5?$CFs?6?$AA@ c0046944     AcpiSubsystem:dbdisply.obj
 0002:0000bf50       ??_C@_0M@CLCAKHHN@CID?5?$CFu?3?5?$CFs?6?$AA@ c0046950     AcpiSubsystem:dbdisply.obj
 0002:0000bf5c       ??_C@_0M@LINPPBKD@ResultObj?3?5?$AA@ c004695c     AcpiSubsystem:dbdisply.obj
 0002:0000bf68       ??_C@_0M@GPGBIIDM@ArgObj?3?5?5?5?5?$AA@ c0046968     AcpiSubsystem:dbdisply.obj
 0002:0000bf74       ??_C@_0BH@OGMHNGF@FADT?9defined?5GPE?5block?$AA@ c0046974     AcpiSubsystem:dbdisply.obj
 0002:0000bf8c       ??_C@_0BB@BDGKEPIC@GPE?5Block?5Device?$AA@ c004698c     AcpiSubsystem:dbdisply.obj
 0002:0000bfa0       ??_C@_0CO@KPLAHLMJ@?6Block?5?$CFu?5?9?5Info?5?$CFp?5?5DeviceNode?5@ c00469a0     AcpiSubsystem:dbdisply.obj
 0002:0000bfd0       ??_C@_0CA@OIHEIIEJ@?5?5?5?5Registers?3?5?5?5?5?$CFu?5?$CI?$CFu?5GPEs?$CJ?6?$AA@ c00469d0     AcpiSubsystem:dbdisply.obj
 0002:0000bff0       ??_C@_0DA@LPJPJOPF@?5?5?5?5GPE?5range?3?5?5?5?50x?$CFX?5to?50x?$CFX?5o@ c00469f0     AcpiSubsystem:dbdisply.obj
 0002:0000c020       ??_C@_0DL@JILICFKH@?5?5?5?5RegisterInfo?3?5?$CFp?5?5Status?5?$CF8?4@ c0046a20     AcpiSubsystem:dbdisply.obj
 0002:0000c05c       ??_C@_0BG@OHCFEFAP@?5?5?5?5EventInfo?3?5?5?5?5?$CFp?6?$AA@ c0046a5c     AcpiSubsystem:dbdisply.obj
 0002:0000c078       ??_C@_0GD@LMPOIFFA@?5?5?5?5Reg?5?$CFu?3?5?$CIGPE?5?$CF?42X?9?$CF?42X?$CJ?5?5Run@ c0046a78     AcpiSubsystem:dbdisply.obj
 0002:0000c0dc       ??_C@_0DC@JKMOAIAI@?5?5?5?5?5?5?5?5GPE?5?$CF?42X?3?5?$CFp?5?5RunRefs?5?$CF2@ c0046adc     AcpiSubsystem:dbdisply.obj
 0002:0000c110       ??_C@_07GEOLFBAK@Level?0?5?$AA@ c0046b10     AcpiSubsystem:dbdisply.obj
 0002:0000c118       ??_C@_07IHFHDBPC@Edge?0?5?5?$AA@ c0046b18     AcpiSubsystem:dbdisply.obj
 0002:0000c120       ??_C@_09IEJCNNMJ@CanWake?0?5?$AA@ c0046b20     AcpiSubsystem:dbdisply.obj
 0002:0000c12c       ??_C@_09LAFKHACJ@RunOnly?0?5?$AA@ c0046b2c     AcpiSubsystem:dbdisply.obj
 0002:0000c138       ??_C@_07INHDGLDD@NotUsed?$AA@ c0046b38     AcpiSubsystem:dbdisply.obj
 0002:0000c140       ??_C@_0BO@LGLJGLDE@Implicit?5Notify?5on?5?$CFu?5devices?$AA@ c0046b40     AcpiSubsystem:dbdisply.obj
 0002:0000c160       ??_C@_0L@LFFNJAAO@RawHandler?$AA@ c0046b60     AcpiSubsystem:dbdisply.obj
 0002:0000c16c       ??_C@_0M@PABMDCIN@UNKNOWN?3?5?$CFX?$AA@ c0046b6c     AcpiSubsystem:dbdisply.obj
 0002:0000c178       ??_C@_02MNMNLDAI@?$CJ?6?$AA@ c0046b78     AcpiSubsystem:dbdisply.obj
 0002:0000c17c       ??_C@_0DD@LCBJLHO@?6Operation?5Region?5Handlers?5at?5th@ c0046b7c     AcpiSubsystem:dbdisply.obj
 0002:0000c1b0       ??_C@_0P@GBGCBCBJ@?$CF25s?5?$CI?$CF?42X?$CJ?5?3?5?$AA@ c0046bb0     AcpiSubsystem:dbdisply.obj
 0002:0000c1c0       ??_C@_07MCAEODGB@Default?$AA@ c0046bc0     AcpiSubsystem:dbdisply.obj
 0002:0000c1c8       ??_C@_04ODLBFFJE@User?$AA@ c0046bc8     AcpiSubsystem:dbdisply.obj
 0002:0000c1d0       ??_C@_0L@PCHCCONG@?$CF?99s?5?$CI?$CFp?$CJ?6?$AA@ c0046bd0     AcpiSubsystem:dbdisply.obj
 0002:0000c1dc       ??_C@_05PAHLEKN@None?6?$AA@ c0046bdc     AcpiSubsystem:dbdisply.obj
 0002:0000c1e4       ??_C@_0BA@HBFNGBAM@User?9defined?5ID?$AA@ c0046be4     AcpiSubsystem:dbdisply.obj
 0002:0000c1f4       ??_C@_0BI@FLDHHBOL@?6Fixed?5Event?5Handlers?3?6?$AA@ c0046bf4     AcpiSubsystem:dbdisply.obj
 0002:0000c20c       ??_C@_04OHJIHAFH@None?$AA@ c0046c0c     AcpiSubsystem:dbdisply.obj
 0002:0000c214       ??_C@_05BHGKIME@?$CF?99s?6?$AA@ c0046c14     AcpiSubsystem:dbdisply.obj
 0002:0000c21c       ??_C@_0CB@NJGPEHKC@?6Miscellaneous?5Global?5Handlers?3?6@ c0046c1c     AcpiSubsystem:dbdisply.obj
 0002:0000c240       ??_C@_07BEICIFAD@?$CF30s?5?3?5?$AA@ c0046c40     AcpiSubsystem:dbdisply.obj
 0002:0000c248       ??_C@_0DC@LDDGHKOI@?6Operation?5Region?5Handlers?5for?5s@ c0046c48     AcpiSubsystem:dbdisply.obj
 0002:0000c27c       ??_C@_09PAPLHBEN@?$CF?99s?5?$CI?$CFp?$CJ?$AA@ c0046c7c     AcpiSubsystem:dbdisply.obj
 0002:0000c288       ??_C@_0BH@LPDCFKFL@?5Device?5Name?3?5?$CFs?5?$CI?$CFp?$CJ?6?$AA@ c0046c88     AcpiSubsystem:dbdisply.obj
 0002:0000c2a8       ??_C@_0CB@FJFBOMCH@Invalid?5or?5unsupported?5argument?6@ c0046ca8     AcpiSubsystem:dbtest.obj
 0002:0000c2cc       ??_C@_0CM@IOOGIBOP@?$CFs?0?5Could?5not?5install?5debugger?5r@ c0046ccc     AcpiSubsystem:dbtest.obj
 0002:0000c2f8       ??_C@_05PHHIDENL@?2_T98?$AA@ c0046cf8     AcpiSubsystem:dbtest.obj
 0002:0000c300       ??_C@_0CN@DMINLEOP@Could?5not?5obtain?5handle?5for?5debu@ c0046d00     AcpiSubsystem:dbtest.obj
 0002:0000c330       ??_C@_0CN@DJIHFGJI@?$CFs?0?5Could?5not?5install?5debugger?5w@ c0046d30     AcpiSubsystem:dbtest.obj
 0002:0000c360       ??_C@_05OOGDAFJK@?2_T99?$AA@ c0046d60     AcpiSubsystem:dbtest.obj
 0002:0000c368       ??_C@_0M@PKIHJPGI@?$CF14s?3?5?$CF4?44s?$AA@ c0046d68     AcpiSubsystem:dbtest.obj
 0002:0000c374       ??_C@_0BP@GPFELCOA@?5Ignoring?0?5no?5attached?5object?6?$AA@ c0046d74     AcpiSubsystem:dbtest.obj
 0002:0000c394       ??_C@_0CJ@PHKNGNHC@?5?5?5?5?5?5?$CFs?5space?5is?5not?5supported?5@ c0046d94     AcpiSubsystem:dbtest.obj
 0002:0000c3c0       ??_C@_0CI@LEKIGHJB@?5Ignoring?0?5type?5not?5implemented?5@ c0046dc0     AcpiSubsystem:dbtest.obj
 0002:0000c3e8       ??_C@_05DNDNCJEB@?5?$CI?$CFs?$CJ?$AA@ c0046de8     AcpiSubsystem:dbtest.obj
 0002:0000c3f0       ??_C@_0CD@MMDPHEFB@?5Invalid?5length?5for?5an?5Integer?3?5@ c0046df0     AcpiSubsystem:dbtest.obj
 0002:0000c414       ??_C@_0BK@KJOJEJOK@?5?$CI?$CF4?44X?1?$CF3?43X?$CJ?5?$CF8?48X?$CF8?48X?$AA@ c0046e14     AcpiSubsystem:dbtest.obj
 0002:0000c430       ??_C@_0CO@JEPJPICL@?5MISMATCH?52?3?5?$CF8?48X?$CF8?48X?0?5expecti@ c0046e30     AcpiSubsystem:dbtest.obj
 0002:0000c460       ??_C@_0CO@BIJCMLO@?5MISMATCH?53?3?5?$CF8?48X?$CF8?48X?0?5expecti@ c0046e60     AcpiSubsystem:dbtest.obj
 0002:0000c490       ??_C@_0BN@EFAIGFFP@?5Ignoring?5zero?5length?5buffer?$AA@ c0046e90     AcpiSubsystem:dbtest.obj
 0002:0000c4b0       ??_C@_0P@BOGJABAD@?5?$CI?$CF4?44X?1?$CF3?43X?$CJ?$AA@ c0046eb0     AcpiSubsystem:dbtest.obj
 0002:0000c4c0       ??_C@_06DEMOFINB@?5?$CF2?42X?$AA@ c0046ec0     AcpiSubsystem:dbtest.obj
 0002:0000c4c8       ??_C@_05OAEOBBDA@?4?4?4?5?5?$AA@ c0046ec8     AcpiSubsystem:dbtest.obj
 0002:0000c4d0       ??_C@_0BO@NACPPIJN@?5MISMATCH?52?3?5New?5buffer?5value?$AA@ c0046ed0     AcpiSubsystem:dbtest.obj
 0002:0000c4f0       ??_C@_0CN@DJDLPGKK@?5MISMATCH?53?3?5While?5restoring?5ori@ c0046ef0     AcpiSubsystem:dbtest.obj
 0002:0000c520       ??_C@_0BO@BLDIALPD@Test?5String?5from?5AML?5Debugger?$AA@ c0046f20     AcpiSubsystem:dbtest.obj
 0002:0000c540       ??_C@_0BE@LGBPGELC@?5?$CI?$CF4?44X?1?$CF3?43X?$CJ?5?$CC?$CFs?$CC?$AA@ c0046f40     AcpiSubsystem:dbtest.obj
 0002:0000c554       ??_C@_0BO@BIPGFFBB@?5MISMATCH?52?3?5?$CFs?0?5expecting?5?$CFs?$AA@ c0046f54     AcpiSubsystem:dbtest.obj
 0002:0000c574       ??_C@_0BO@HNJBGOFH@?5MISMATCH?53?3?5?$CFs?0?5expecting?5?$CFs?$AA@ c0046f74     AcpiSubsystem:dbtest.obj
 0002:0000c594       ??_C@_0BP@LPMJFEIA@Could?5not?5read?5from?5object?0?5?$CFs?$AA@ c0046f94     AcpiSubsystem:dbtest.obj
 0002:0000c5b4       ??_C@_0CK@FMMMNIKC@?5Type?5mismatch?3?5?5Expected?5?$CFs?0?5Re@ c0046fb4     AcpiSubsystem:dbtest.obj
 0002:0000c5e0       ??_C@_0CE@JDLFBENK@?5Unsupported?5return?5object?5type?0@ c0046fe0     AcpiSubsystem:dbtest.obj
 0002:0000c604       ??_C@_0BO@EPMNEKOO@Could?5not?5write?5to?5object?0?5?$CFs?$AA@ c0047004     AcpiSubsystem:dbtest.obj
 0002:0000c624       ??_C@_0DA@MCPKHBLE@Evaluated?5?$CFu?5predefined?5names?5in@ c0047024     AcpiSubsystem:dbtest.obj
 0002:0000c654       ??_C@_0CE@PGEOEGGG@This?5is?5the?5default?5argument?5str@ c0047054     AcpiSubsystem:dbtest.obj
 0002:0000c678       ??_C@_0CD@NDNCMGLH@?$CFs?3?5Unsupported?5argument?5type?3?5?$CF@ c0047078     AcpiSubsystem:dbtest.obj
 0002:0000c69c       ??_C@_0BD@MKOJGGEO@?$CF?932s?5returned?5?$CFs?6?$AA@ c004709c     AcpiSubsystem:dbtest.obj
 0002:0000c6bc       ??_C@_0CM@FIPONIPA@Breakpoint?5?$CFX?5is?5beyond?5current?5@ c00470bc     AcpiSubsystem:dbmethod.obj
 0002:0000c6e8       ??_C@_0CB@ILJIFOFO@Breakpoint?5set?5at?5AML?5offset?5?$CFX?6@ c00470e8     AcpiSubsystem:dbmethod.obj
 0002:0000c70c       ??_C@_0BJ@IIDINBFI@Invalid?5SET?5operand?3?5?$CFs?6?$AA@ c004710c     AcpiSubsystem:dbmethod.obj
 0002:0000c728       ??_C@_0BM@GBDFMIMG@Can?5only?5set?5Integer?5nodes?6?$AA@ c0047128     AcpiSubsystem:dbmethod.obj
 0002:0000c744       ??_C@_0CF@CBBAPGEJ@Could?5not?5create?5an?5internal?5obj@ c0047144     AcpiSubsystem:dbmethod.obj
 0002:0000c76c       ??_C@_0BP@PCKNFEJG@Arg?$CFu?5?9?5Invalid?5argument?5name?6?$AA@ c004716c     AcpiSubsystem:dbmethod.obj
 0002:0000c78c       ??_C@_07PIFEKIDL@Arg?$CFu?3?5?$AA@ c004718c     AcpiSubsystem:dbmethod.obj
 0002:0000c794       ??_C@_0CH@IOMDCEN@Local?$CFu?5?9?5Invalid?5local?5variable@ c0047194     AcpiSubsystem:dbmethod.obj
 0002:0000c7bc       ??_C@_09POACKFME@Local?$CFu?3?5?$AA@ c00471bc     AcpiSubsystem:dbmethod.obj
 0002:0000c7c8       ??_C@_0CJ@IIBAJCIJ@?$CFs?5?$CI?$CFs?$CJ?3?5Object?5must?5be?5a?5contro@ c00471c8     AcpiSubsystem:dbmethod.obj
 0002:0000c7f4       ??_C@_03OMGOFJGM@ANY?$AA@  c00471f4     AcpiSubsystem:dbnames.obj
 0002:0000c7f8       ??_C@_08GHGIAALG@INTEGERS?$AA@ c00471f8     AcpiSubsystem:dbnames.obj
 0002:0000c804       ??_C@_07BNMDDAAP@STRINGS?$AA@ c0047204     AcpiSubsystem:dbnames.obj
 0002:0000c80c       ??_C@_07NMFODLMI@BUFFERS?$AA@ c004720c     AcpiSubsystem:dbnames.obj
 0002:0000c814       ??_C@_08BKHIKNNO@PACKAGES?$AA@ c0047214     AcpiSubsystem:dbnames.obj
 0002:0000c820       ??_C@_06MKMLCAFB@FIELDS?$AA@ c0047220     AcpiSubsystem:dbnames.obj
 0002:0000c828       ??_C@_07MAGLNBOC@DEVICES?$AA@ c0047228     AcpiSubsystem:dbnames.obj
 0002:0000c830       ??_C@_06LPIMOBHJ@EVENTS?$AA@ c0047230     AcpiSubsystem:dbnames.obj
 0002:0000c838       ??_C@_07LHNKMKJD@MUTEXES?$AA@ c0047238     AcpiSubsystem:dbnames.obj
 0002:0000c840       ??_C@_07PELGGICJ@REGIONS?$AA@ c0047240     AcpiSubsystem:dbnames.obj
 0002:0000c848       ??_C@_0P@HNILJMAJ@POWERRESOURCES?$AA@ c0047248     AcpiSubsystem:dbnames.obj
 0002:0000c858       ??_C@_0L@CJFNOFCE@PROCESSORS?$AA@ c0047258     AcpiSubsystem:dbnames.obj
 0002:0000c864       ??_C@_0N@LHNCHFNJ@THERMALZONES?$AA@ c0047264     AcpiSubsystem:dbnames.obj
 0002:0000c874       ??_C@_0N@PIFKGOJ@BUFFERFIELDS?$AA@ c0047274     AcpiSubsystem:dbnames.obj
 0002:0000c884       ??_C@_0L@CDPMDMBM@DDBHANDLES?$AA@ c0047284     AcpiSubsystem:dbnames.obj
 0002:0000c890       ??_C@_0N@DJCFMHHI@REGIONFIELDS?$AA@ c0047290     AcpiSubsystem:dbnames.obj
 0002:0000c8a0       ??_C@_0L@KBNLIEFN@BANKFIELDS?$AA@ c00472a0     AcpiSubsystem:dbnames.obj
 0002:0000c8ac       ??_C@_0M@IABBIPCJ@INDEXFIELDS?$AA@ c00472ac     AcpiSubsystem:dbnames.obj
 0002:0000c8b8       ??_C@_05BBOIMMAK@ALIAS?$AA@ c00472b8     AcpiSubsystem:dbnames.obj
 0002:0000c8c8       ??_C@_0BD@KOHGNADN@Current?5scope?3?5?$CFs?6?$AA@ c00472c8     AcpiSubsystem:dbnames.obj
 0002:0000c8dc       ??_C@_0P@CMOMICBG@New?5scope?3?5?$CFs?6?$AA@ c00472dc     AcpiSubsystem:dbnames.obj
 0002:0000c8ec       ??_C@_0CA@PIELOPMB@Could?5not?5attach?5scope?3?5?$CFs?0?5?$CFs?6?$AA@ c00472ec     AcpiSubsystem:dbnames.obj
 0002:0000c90c       ??_C@_0CL@MGKJGFCK@ACPI?5Namespace?5?$CIfrom?5?$CF4?44s?5?$CI?$CFp?$CJ?5@ c004730c     AcpiSubsystem:dbnames.obj
 0002:0000c938       ??_C@_0BN@FMFIFKEE@ACPI?5Namespace?5?$CIfrom?5root?$CJ?3?6?$AA@ c0047338     AcpiSubsystem:dbnames.obj
 0002:0000c958       ??_C@_0BN@PCLEFFOB@ACPI?5Namespace?5by?5owner?5?$CFX?3?6?$AA@ c0047358     AcpiSubsystem:dbnames.obj
 0002:0000c978       ??_C@_0CG@KMAOFLAH@Could?5Not?5get?5pathname?5for?5objec@ c0047378     AcpiSubsystem:dbnames.obj
 0002:0000c9a0       ??_C@_04PBJPOEBC@?$CF32s?$AA@ c00473a0     AcpiSubsystem:dbnames.obj
 0002:0000c9a8       ??_C@_04EKDDGHBK@____?$AA@ c00473a8     AcpiSubsystem:dbnames.obj
 0002:0000c9b0       ??_C@_0CK@BAKEDGCM@Name?5must?5be?5no?5longer?5than?54?5ch@ c00473b0     AcpiSubsystem:dbnames.obj
 0002:0000c9dc       ??_C@_0CF@IMPOBALB@?$CF?932s?5Arguments?5?$CFX?0?5Return?5Types@ c00473dc     AcpiSubsystem:dbnames.obj
 0002:0000ca04       ??_C@_0CN@LMPDLLP@?5?$CIPkgType?5?$CF2?42X?0?5ObjType?5?$CF2?42X?0?5@ c0047404     AcpiSubsystem:dbnames.obj
 0002:0000ca34       ??_C@_0CM@BNHIAFDH@Found?5?$CFu?5predefined?5names?5in?5the@ c0047434     AcpiSubsystem:dbnames.obj
 0002:0000ca60       ??_C@_0DN@GFJHELIA@Objects?5of?5type?5?$FL?$CFs?$FN?5defined?5in?5@ c0047460     AcpiSubsystem:dbnames.obj
 0002:0000caa0       ??_C@_0DO@BFALEPCE@?6Found?5?$CFu?5objects?5of?5type?5?$FL?$CFs?$FN?5i@ c00474a0     AcpiSubsystem:dbnames.obj
 0002:0000cae0       ??_C@_0EF@MNGOEIAO@Invalid?5Descriptor?5Type?5for?5Node@ c00474e0     AcpiSubsystem:dbnames.obj
 0002:0000cb28       ??_C@_0CM@LINMEKE@Invalid?5Object?5Type?5for?5Node?5?$CFp?0@ c0047528     AcpiSubsystem:dbnames.obj
 0002:0000cb54       ??_C@_0BO@PFDPDNMA@Invalid?5AcpiName?5for?5Node?5?$CFp?6?$AA@ c0047554     AcpiSubsystem:dbnames.obj
 0002:0000cb74       ??_C@_0CM@PPGKCBIL@Invalid?5Descriptor?5Type?5for?5Obje@ c0047574     AcpiSubsystem:dbnames.obj
 0002:0000cba0       ??_C@_0CN@GKKAICOD@Verified?5?$CFu?5namespace?5nodes?5with@ c00475a0     AcpiSubsystem:dbnames.obj
 0002:0000cbd0       ??_C@_0BK@EEOFJEBB@Object?5is?5a?5Node?5?$FL?$CF4?44s?$FN?6?$AA@ c00475d0     AcpiSubsystem:dbnames.obj
 0002:0000cbec       ??_C@_0CG@EIGKHBJG@Reference?5at?5Node?9?$DOObject?5?$CFp?5?$FL?$CF4@ c00475ec     AcpiSubsystem:dbnames.obj
 0002:0000cc14       ??_C@_0O@BFFHAEG@?$CF?932s?5Type?5?$CFX?$AA@ c0047614     AcpiSubsystem:dbnames.obj
 0002:0000cc24       ??_C@_0BH@HEDLNIML@?5?5?9?5Is?5PCI?5Root?5Bridge?$AA@ c0047624     AcpiSubsystem:dbnames.obj
 0002:0000cc3c       ??_C@_09LLHDOGDM@_PRT?3?5?$CFp?6?$AA@ c004763c     AcpiSubsystem:dbnames.obj
 0002:0000cc48       ??_C@_0BC@MAJNNGCI@_ADR?3?5?$CF8?48X?$CF8?48X?6?$AA@ c0047648     AcpiSubsystem:dbnames.obj
 0002:0000cc5c       ??_C@_0BF@NDJKABJK@_ADR?3?5?$DMNot?5Present?$DO?6?$AA@ c004765c     AcpiSubsystem:dbnames.obj
 0002:0000cc74       ??_C@_09OICCAJLP@_HID?3?5?$CFs?6?$AA@ c0047674     AcpiSubsystem:dbnames.obj
 0002:0000cc80       ??_C@_0BF@DMNCJMMM@_HID?3?5?$DMNot?5Present?$DO?6?$AA@ c0047680     AcpiSubsystem:dbnames.obj
 0002:0000cc98       ??_C@_09LFKNKMJJ@_UID?3?5?$CFs?6?$AA@ c0047698     AcpiSubsystem:dbnames.obj
 0002:0000cca4       ??_C@_0BF@GKEFDBEE@_UID?3?5?$DMNot?5Present?$DO?6?$AA@ c00476a4     AcpiSubsystem:dbnames.obj
 0002:0000ccbc       ??_C@_09GKHHJHGC@_CID?3?5?$CFs?6?$AA@ c00476bc     AcpiSubsystem:dbnames.obj
 0002:0000ccc8       ??_C@_0BF@OKAAHLE@_CID?3?5?$DMNot?5Present?$DO?6?$AA@ c00476c8     AcpiSubsystem:dbnames.obj
 0002:0000cd08       ??_C@_0CH@CPBINGDJ@Warning?3?5debug?5output?5is?5not?5ena@ c0047708     AcpiSubsystem:dbexec.obj
 0002:0000cd30       ??_C@_0BP@OFIGGDEI@While?5parsing?5method?5arguments?$AA@ c0047730     AcpiSubsystem:dbexec.obj
 0002:0000cd50       ??_C@_0CB@GHMIAPJP@while?5executing?5?$CFs?5from?5debugger@ c0047750     AcpiSubsystem:dbexec.obj
 0002:0000cd78       ??_C@_0EG@GNKOGMLC@Possible?5overflow?5of?5internal?5de@ c0047778     AcpiSubsystem:dbexec.obj
 0002:0000cdc0       ??_C@_0P@NKHGBNCI@Evaluating?5?$CFs?6?$AA@ c00477c0     AcpiSubsystem:dbexec.obj
 0002:0000cdd0       ??_C@_0CC@OJLLELCN@During?5setup?5for?5method?5executio@ c00477d0     AcpiSubsystem:dbexec.obj
 0002:0000cdf4       ??_C@_0L@FLBNOIMN@Evaluating?$AA@ c00477f4     AcpiSubsystem:dbexec.obj
 0002:0000ce00       ??_C@_0CD@GPLJIOG@Evaluation?5of?5?$FL?$CF4?44s?$FN?5returned?5?$CF@ c0047800     AcpiSubsystem:dbexec.obj
 0002:0000ce24       ??_C@_0DF@OOIAPLBA@0x?$CFX?5Outstanding?5allocations?5aft@ c0047824     AcpiSubsystem:dbexec.obj
 0002:0000ce5c       ??_C@_0CI@OMCGHAAD@Evaluation?5of?5?$CFs?5failed?5with?5sta@ c004785c     AcpiSubsystem:dbexec.obj
 0002:0000ce88       ??_C@_0EA@DDDNKAIH@Evaluation?5of?5?$CFs?5returned?5object@ c0047888     AcpiSubsystem:dbexec.obj
 0002:0000cec8       ??_C@_0CO@OGOLEJAM@No?5object?5was?5returned?5from?5eval@ c00478c8     AcpiSubsystem:dbexec.obj
 0002:0000cef8       ??_C@_0CM@CLGECJEN@?$CFs?5During?5evaluation?5of?5?$CFs?5at?5it@ c00478f8     AcpiSubsystem:dbexec.obj
 0002:0000cf24       ??_C@_0DF@MPFLPOHN@Could?5not?5signal?5debugger?5thread@ c0047924     AcpiSubsystem:dbexec.obj
 0002:0000cf5c       ??_C@_0CE@OBNLJDJD@Bad?5argument?3?5Threads?5?$CFX?0?5Loops?5@ c004795c     AcpiSubsystem:dbexec.obj
 0002:0000cf80       ??_C@_0EJ@GOFDEMKP@Could?5not?5create?5semaphore?5for?5s@ c0047980     AcpiSubsystem:dbexec.obj
 0002:0000cfd0       ??_C@_0FA@MLPIIKNJ@Could?5not?5create?5semaphore?5for?5s@ c00479d0     AcpiSubsystem:dbexec.obj
 0002:0000d020       ??_C@_0EM@FEIHCEAO@Could?5not?5create?5semaphore?5for?5s@ c0047a20     AcpiSubsystem:dbexec.obj
 0002:0000d06c       ??_C@_0CA@IMGACJGK@No?5memory?5for?5thread?5IDs?5array?6?$AA@ c0047a6c     AcpiSubsystem:dbexec.obj
 0002:0000d08c       ??_C@_0CA@LBBENAOB@?$CFs?5Could?5not?5get?5handle?5for?5?$CFs?6?$AA@ c0047a8c     AcpiSubsystem:dbexec.obj
 0002:0000d0ac       ??_C@_0CO@NLIGBEJD@Creating?5?$CFX?5threads?5to?5execute?5?$CF@ c0047aac     AcpiSubsystem:dbexec.obj
 0002:0000d0dc       ??_C@_0CB@HPAFBPNC@All?5threads?5?$CI?$CFX?$CJ?5have?5completed?6@ c0047adc     AcpiSubsystem:dbexec.obj
 0002:0000d118       ??_C@_09KHNJDFLF@?$CF3ld?5?5?$CFs?6?$AA@ c0047b18     AcpiSubsystem:dbhistry.obj
 0002:0000d124       ??_C@_0BM@FCHLMEL@Invalid?5history?5number?3?5?$CFu?6?$AA@ c0047b24     AcpiSubsystem:dbhistry.obj
 0002:0000d148       ??_C@_06HPIPGHLH@MEMORY?$AA@ c0047b48     AcpiSubsystem:dbstats.obj
 0002:0000d150       ??_C@_04MKAMAPIC@MISC?$AA@ c0047b50     AcpiSubsystem:dbstats.obj
 0002:0000d158       ??_C@_05NCLDLAEH@SIZES?$AA@ c0047b58     AcpiSubsystem:dbstats.obj
 0002:0000d160       ??_C@_05ELENNHAB@STACK?$AA@ c0047b60     AcpiSubsystem:dbstats.obj
 0002:0000d168       ??_C@_04EINJHBMM@?6?$CFs?6?$AA@ c0047b68     AcpiSubsystem:dbstats.obj
 0002:0000d170       ??_C@_0EP@FCLEGKBD@?5?5?5?5Cache?3?5?$FLDepth?5?5?5?5MaxD?5Avail?5@ c0047b70     AcpiSubsystem:dbstats.obj
 0002:0000d1c0       ??_C@_0CM@MFPCOCPM@ACPI?5Table?5Information?5?$CInot?5impl@ c0047bc0     AcpiSubsystem:dbstats.obj
 0002:0000d1ec       ??_C@_0CN@KPGNFAOD@?6Objects?5defined?5in?5the?5current?5@ c0047bec     AcpiSubsystem:dbstats.obj
 0002:0000d21c       ??_C@_05FCHNHEAO@NODES?$AA@ c0047c1c     AcpiSubsystem:dbstats.obj
 0002:0000d224       ??_C@_09GJFLABEI@ACPI_TYPE?$AA@ c0047c24     AcpiSubsystem:dbstats.obj
 0002:0000d230       ??_C@_0BJ@JDHJGLCE@?$CF16?416s?5?$CF10?410s?5?$CF10?410s?6?$AA@ c0047c30     AcpiSubsystem:dbstats.obj
 0002:0000d24c       ??_C@_0BG@CECKEMHA@?$CF16?416s?5?$CF?510ld?$CF?510ld?6?$AA@ c0047c4c     AcpiSubsystem:dbstats.obj
 0002:0000d264       ??_C@_0N@PEHCPLME@Misc?1Unknown?$AA@ c0047c64     AcpiSubsystem:dbstats.obj
 0002:0000d274       ??_C@_07JBOPEKDH@TOTALS?3?$AA@ c0047c74     AcpiSubsystem:dbstats.obj
 0002:0000d27c       ??_C@_0CN@OOLDKOMM@?6?9?9?9?9Cache?5Statistics?5?$CIall?5in?5he@ c0047c7c     AcpiSubsystem:dbstats.obj
 0002:0000d2ac       ??_C@_0BN@MCEJMIHD@?6Miscellaneous?5Statistics?3?6?6?$AA@ c0047cac     AcpiSubsystem:dbstats.obj
 0002:0000d2cc       ??_C@_0CH@BPHCCPE@Calls?5to?5AcpiPsFind?3?4?4?5?5?4?4?4?4?4?4?4?4@ c0047ccc     AcpiSubsystem:dbstats.obj
 0002:0000d2f4       ??_C@_0CH@LLGOHEAE@Calls?5to?5AcpiNsLookup?3?4?4?4?4?4?4?4?4?4?4@ c0047cf4     AcpiSubsystem:dbstats.obj
 0002:0000d31c       ??_C@_0P@CIPCHAND@Mutex?5usage?3?6?6?$AA@ c0047d1c     AcpiSubsystem:dbstats.obj
 0002:0000d32c       ??_C@_0BE@LNKCICKC@?$CF?928s?3?5?5?5?5?5?5?5?$CF?57ld?6?$AA@ c0047d2c     AcpiSubsystem:dbstats.obj
 0002:0000d340       ??_C@_0BK@IKMMPMCJ@?6Internal?5object?5sizes?3?6?6?$AA@ c0047d40     AcpiSubsystem:dbstats.obj
 0002:0000d35c       ??_C@_0BG@LAFDJJKP@Common?5?5?5?5?5?5?5?5?5?5?5?$CF3d?6?$AA@ c0047d5c     AcpiSubsystem:dbstats.obj
 0002:0000d374       ??_C@_0BG@BLBIPAOF@Number?5?5?5?5?5?5?5?5?5?5?5?$CF3d?6?$AA@ c0047d74     AcpiSubsystem:dbstats.obj
 0002:0000d38c       ??_C@_0BG@PHHJKOEN@String?5?5?5?5?5?5?5?5?5?5?5?$CF3d?6?$AA@ c0047d8c     AcpiSubsystem:dbstats.obj
 0002:0000d3a4       ??_C@_0BG@CFOANDHP@Buffer?5?5?5?5?5?5?5?5?5?5?5?$CF3d?6?$AA@ c0047da4     AcpiSubsystem:dbstats.obj
 0002:0000d3bc       ??_C@_0BG@FLILIPNC@Package?5?5?5?5?5?5?5?5?5?5?$CF3d?6?$AA@ c0047dbc     AcpiSubsystem:dbstats.obj
 0002:0000d3d4       ??_C@_0BG@CCPBGGEN@BufferField?5?5?5?5?5?5?$CF3d?6?$AA@ c0047dd4     AcpiSubsystem:dbstats.obj
 0002:0000d3ec       ??_C@_0BG@IGBDPPEL@Device?5?5?5?5?5?5?5?5?5?5?5?$CF3d?6?$AA@ c0047dec     AcpiSubsystem:dbstats.obj
 0002:0000d404       ??_C@_0BG@MCPFLJCE@Event?5?5?5?5?5?5?5?5?5?5?5?5?$CF3d?6?$AA@ c0047e04     AcpiSubsystem:dbstats.obj
 0002:0000d41c       ??_C@_0BG@KOALPJBG@Method?5?5?5?5?5?5?5?5?5?5?5?$CF3d?6?$AA@ c0047e1c     AcpiSubsystem:dbstats.obj
 0002:0000d434       ??_C@_0BG@DDAHGPIC@Mutex?5?5?5?5?5?5?5?5?5?5?5?5?$CF3d?6?$AA@ c0047e34     AcpiSubsystem:dbstats.obj
 0002:0000d44c       ??_C@_0BG@HBMHBCPJ@Region?5?5?5?5?5?5?5?5?5?5?5?$CF3d?6?$AA@ c0047e4c     AcpiSubsystem:dbstats.obj
 0002:0000d464       ??_C@_0BG@MAHOCNEO@PowerResource?5?5?5?5?$CF3d?6?$AA@ c0047e64     AcpiSubsystem:dbstats.obj
 0002:0000d47c       ??_C@_0BG@DDLHLGKN@Processor?5?5?5?5?5?5?5?5?$CF3d?6?$AA@ c0047e7c     AcpiSubsystem:dbstats.obj
 0002:0000d494       ??_C@_0BG@LEDNEKC@ThermalZone?5?5?5?5?5?5?$CF3d?6?$AA@ c0047e94     AcpiSubsystem:dbstats.obj
 0002:0000d4ac       ??_C@_0BG@HGNGKHML@RegionField?5?5?5?5?5?5?$CF3d?6?$AA@ c0047eac     AcpiSubsystem:dbstats.obj
 0002:0000d4c4       ??_C@_0BG@EACKOKAP@BankField?5?5?5?5?5?5?5?5?$CF3d?6?$AA@ c0047ec4     AcpiSubsystem:dbstats.obj
 0002:0000d4dc       ??_C@_0BG@FCLIIOOL@IndexField?5?5?5?5?5?5?5?$CF3d?6?$AA@ c0047edc     AcpiSubsystem:dbstats.obj
 0002:0000d4f4       ??_C@_0BG@IMILDGPI@Reference?5?5?5?5?5?5?5?5?$CF3d?6?$AA@ c0047ef4     AcpiSubsystem:dbstats.obj
 0002:0000d50c       ??_C@_0BG@HMELPOIH@Notify?5?5?5?5?5?5?5?5?5?5?5?$CF3d?6?$AA@ c0047f0c     AcpiSubsystem:dbstats.obj
 0002:0000d524       ??_C@_0BG@COKGPLDH@AddressSpace?5?5?5?5?5?$CF3d?6?$AA@ c0047f24     AcpiSubsystem:dbstats.obj
 0002:0000d53c       ??_C@_0BG@KNEJDDGF@Extra?5?5?5?5?5?5?5?5?5?5?5?5?$CF3d?6?$AA@ c0047f3c     AcpiSubsystem:dbstats.obj
 0002:0000d554       ??_C@_0BG@KOGGLEID@Data?5?5?5?5?5?5?5?5?5?5?5?5?5?$CF3d?6?$AA@ c0047f54     AcpiSubsystem:dbstats.obj
 0002:0000d56c       ??_C@_0BG@KNPPGIMI@ParseObject?5?5?5?5?5?5?$CF3d?6?$AA@ c0047f6c     AcpiSubsystem:dbstats.obj
 0002:0000d584       ??_C@_0BG@CAMBMANL@ParseObjectNamed?5?$CF3d?6?$AA@ c0047f84     AcpiSubsystem:dbstats.obj
 0002:0000d59c       ??_C@_0BG@FGCAOMGI@ParseObjectAsl?5?5?5?$CF3d?6?$AA@ c0047f9c     AcpiSubsystem:dbstats.obj
 0002:0000d5b4       ??_C@_0BG@BKACLJHM@OperandObject?5?5?5?5?$CF3d?6?$AA@ c0047fb4     AcpiSubsystem:dbstats.obj
 0002:0000d5cc       ??_C@_0BG@MKLCKKLG@NamespaceNode?5?5?5?5?$CF3d?6?$AA@ c0047fcc     AcpiSubsystem:dbstats.obj
 0002:0000d5e4       ??_C@_0BG@JPDCLAE@AcpiObject?5?5?5?5?5?5?5?$CF3d?6?$AA@ c0047fe4     AcpiSubsystem:dbstats.obj
 0002:0000d5fc       ??_C@_0BG@DFOPKNPP@Generic?5State?5?5?5?5?$CF3d?6?$AA@ c0047ffc     AcpiSubsystem:dbstats.obj
 0002:0000d614       ??_C@_0BG@GBKMPBAM@Common?5State?5?5?5?5?5?$CF3d?6?$AA@ c0048014     AcpiSubsystem:dbstats.obj
 0002:0000d62c       ??_C@_0BG@EFAGFNJE@Control?5State?5?5?5?5?$CF3d?6?$AA@ c004802c     AcpiSubsystem:dbstats.obj
 0002:0000d644       ??_C@_0BG@MDNALKPA@Update?5State?5?5?5?5?5?$CF3d?6?$AA@ c0048044     AcpiSubsystem:dbstats.obj
 0002:0000d65c       ??_C@_0BG@IBOBFGEN@Scope?5State?5?5?5?5?5?5?$CF3d?6?$AA@ c004805c     AcpiSubsystem:dbstats.obj
 0002:0000d674       ??_C@_0BG@HNNNHOBC@Parse?5Scope?5?5?5?5?5?5?$CF3d?6?$AA@ c0048074     AcpiSubsystem:dbstats.obj
 0002:0000d68c       ??_C@_0BG@BPIENNHG@Package?5State?5?5?5?5?$CF3d?6?$AA@ c004808c     AcpiSubsystem:dbstats.obj
 0002:0000d6a4       ??_C@_0BG@HKJMAIAE@Thread?5State?5?5?5?5?5?$CF3d?6?$AA@ c00480a4     AcpiSubsystem:dbstats.obj
 0002:0000d6bc       ??_C@_0BG@GNFPHHNN@Result?5Values?5?5?5?5?$CF3d?6?$AA@ c00480bc     AcpiSubsystem:dbstats.obj
 0002:0000d6d4       ??_C@_0BG@JNLKGIIN@Notify?5Info?5?5?5?5?5?5?$CF3d?6?$AA@ c00480d4     AcpiSubsystem:dbstats.obj
 0002:0000d6ec       ??_C@_0BK@GAEPCLAO@?6Subsystem?5Stack?5Usage?3?6?6?$AA@ c00480ec     AcpiSubsystem:dbstats.obj
 0002:0000d708       ??_C@_0CB@EHDJIFFA@Entry?5Stack?5Pointer?5?5?5?5?5?5?5?5?5?5?$CFp?6@ c0048108     AcpiSubsystem:dbstats.obj
 0002:0000d72c       ??_C@_0CB@LFPCMEOP@Lowest?5Stack?5Pointer?5?5?5?5?5?5?5?5?5?$CFp?6@ c004812c     AcpiSubsystem:dbstats.obj
 0002:0000d750       ??_C@_0CG@PDFKBNPK@Stack?5Use?5?5?5?5?5?5?5?5?5?5?5?5?5?5?5?5?5?5?5?5?$CFX?5@ c0048150     AcpiSubsystem:dbstats.obj
 0002:0000d778       ??_C@_0CB@JCONAMLO@Deepest?5Procedure?5Nesting?5?5?5?5?$CFu?6@ c0048178     AcpiSubsystem:dbstats.obj
 0002:0000d7a4       ??_C@_0CN@BGDBBIFB@Executing?5subtree?5for?5Buffer?1Pac@ c00481a4     AcpiSubsystem:dmobject.obj
 0002:0000d7d4       ??_C@_0CP@FBOOBNIB@?6?$CK?$CK?$CK?$CK?5Exception?5?$CFs?5during?5execut@ c00481d4     AcpiSubsystem:dmobject.obj
 0002:0000d804       ??_C@_0BL@NEAGKGFC@?6?6Method?5Execution?5Stack?3?6?$AA@ c0048204     AcpiSubsystem:dmobject.obj
 0002:0000d820       ??_C@_0BP@JDHGFNEO@?5?5?5?5Method?5?$FL?$CF4?44s?$FN?5executing?3?5?$AA@ c0048220     AcpiSubsystem:dmobject.obj
 0002:0000d840       ??_C@_0BA@DLAPDHKH@Call?5to?5method?5?$AA@ c0048240     AcpiSubsystem:dmobject.obj
 0002:0000d850       ??_C@_0P@ICMOCGBA@?5Uninitialized?$AA@ c0048250     AcpiSubsystem:dmobject.obj
 0002:0000d860       ??_C@_08EANIIEBL@?5?$CFp?5?$FL?$CFs?$FN?$AA@ c0048260     AcpiSubsystem:dmobject.obj
 0002:0000d86c       ??_C@_03EEBNCBOD@?5?$CFs?$AA@ c004826c     AcpiSubsystem:dmobject.obj
 0002:0000d870       ??_C@_0M@MCBCGJKD@?5?$CF8?48X?$CF8?48X?$AA@ c0048270     AcpiSubsystem:dmobject.obj
 0002:0000d87c       ??_C@_0M@KGHINFHH@?$CI?$CFu?$CJ?5?$CC?$CF?424s?$AA@ c004827c     AcpiSubsystem:dmobject.obj
 0002:0000d888       ??_C@_04EJPMAGHL@?$CI?$CFu?$CJ?$AA@ c0048288     AcpiSubsystem:dmobject.obj
 0002:0000d890       ??_C@_03GPDAHCCA@?5?$CFp?$AA@ c0048290     AcpiSubsystem:dmobject.obj
 0002:0000d894       ??_C@_0BN@GOEBECEE@?$DMNode?$DO?5?5?5?5?5?5?5?5?5?5?5?5Name?5?$CF4?44s?$AA@ c0048294     AcpiSubsystem:dmobject.obj
 0002:0000d8b4       ??_C@_0O@NIDMEIN@?5?$FLMethod?5Arg?$FN?$AA@ c00482b4     AcpiSubsystem:dmobject.obj
 0002:0000d8c4       ??_C@_0BA@MNBOGNCN@?5?$FLMethod?5Local?$FN?$AA@ c00482c4     AcpiSubsystem:dmobject.obj
 0002:0000d8d4       ??_C@_07OJHBMKDO@?5Device?$AA@ c00482d4     AcpiSubsystem:dmobject.obj
 0002:0000d8dc       ??_C@_0O@GGIAHKKI@?5Thermal?5Zone?$AA@ c00482dc     AcpiSubsystem:dmobject.obj
 0002:0000d8ec       ??_C@_0P@LOIDEDHJ@?$DMNull?5Object?$DO?6?$AA@ c00482ec     AcpiSubsystem:dmobject.obj
 0002:0000d8fc       ??_C@_0L@BBOHBIKK@?$DMParser?$DO?5?5?$AA@ c00482fc     AcpiSubsystem:dmobject.obj
 0002:0000d908       ??_C@_0BI@BDFEIGBD@?5Type?5?$CFX?5?$FLInvalid?5Type?$FN?$AA@ c0048308     AcpiSubsystem:dmobject.obj
 0002:0000d920       ??_C@_05KJDPJACP@?$FL?$CFs?$FN?5?$AA@ c0048320     AcpiSubsystem:dmobject.obj
 0002:0000d928       ??_C@_03LOHMCEEF@?$CFX?5?$AA@ c0048328     AcpiSubsystem:dmobject.obj
 0002:0000d92c       ??_C@_02BBAHNLBA@?$CFp?$AA@ c004832c     AcpiSubsystem:dmobject.obj
 0002:0000d930       ??_C@_0BN@NDNDMHAF@?5Uninitialized?5WHERE?5pointer?$AA@ c0048330     AcpiSubsystem:dmobject.obj
 0002:0000d950       ??_C@_0BK@LOCDKCPL@Unknown?5index?5target?5type?$AA@ c0048350     AcpiSubsystem:dmobject.obj
 0002:0000d96c       ??_C@_0CK@JEKKMBFL@Uninitialized?5reference?5subobjec@ c004836c     AcpiSubsystem:dmobject.obj
 0002:0000d998       ??_C@_0BC@IKIDFILJ@?$DMObj?$DO?5?5?5?5?5?5?5?5?5?5?5?5?$AA@ c0048398     AcpiSubsystem:dmobject.obj
 0002:0000d9ac       ??_C@_0CK@DDLLOOAN@?$DMNot?5a?5valid?5ACPI?5Object?5Descrip@ c00483ac     AcpiSubsystem:dmobject.obj
 0002:0000d9d8       ??_C@_0DL@PHNEIDEK@No?5method?5node?5?$CIExecuting?5subtre@ c00483d8     AcpiSubsystem:dmobject.obj
 0002:0000da14       ??_C@_0CF@FADMBONH@Local?5Variables?5for?5method?5?$FL?$CF4?44@ c0048414     AcpiSubsystem:dmobject.obj
 0002:0000da3c       ??_C@_0O@HONMKEJE@?5?5?5?5Local?$CFX?3?5?$AA@ c004843c     AcpiSubsystem:dmobject.obj
 0002:0000da50       ??_C@_0EN@EJPICJNA@Arguments?5for?5Method?5?$FL?$CF4?44s?$FN?3?5?5?$CI@ c0048450     AcpiSubsystem:dmobject.obj
 0002:0000daa0       ??_C@_0O@JLPACIEH@?5?5?5?5Arg?$CFu?3?5?5?5?$AA@ c00484a0     AcpiSubsystem:dmobject.obj
 0002:0000dad8       _AcpiGbl_ShortOpIndex      c00484d8     AcpiSubsystem:psopinfo.obj
 0002:0000dbd8       _AcpiGbl_LongOpIndex       c00485d8     AcpiSubsystem:psopinfo.obj
 0002:0000dc64       ??_C@_0BD@DAEAODGF@Unknown?5AML?5opcode?$AA@ c0048664     AcpiSubsystem:psopinfo.obj
 0002:0000dc78       ??_C@_0M@MIKNJIKG@?$CFs?5?$FL?$CF4?44X?$FN?6?$AA@ c0048678     AcpiSubsystem:psopinfo.obj
 0002:0000dc8c       ??_C@_0BM@JBONOGAJ@Invalid?5AML?5Opcode?3?50x?$CF2?42X?$AA@ c004868c     AcpiSubsystem:pstree.obj
 0002:0000dcb4       ??_C@_0BK@KBPLOICF@?5?1?$CK?5External?5reference?5?$CK?1?$AA@ c00486b4     AcpiSubsystem:dmopcode.obj
 0002:0000dcd0       ??_C@_09MHIMMENG@?5?1?$CK?5?$CFs?5?$CK?1?$AA@ c00486d0     AcpiSubsystem:dmopcode.obj
 0002:0000dcdc       ??_C@_06ICODBHCL@?5?1?1?5?$CFs?$AA@ c00486dc     AcpiSubsystem:dmopcode.obj
 0002:0000dce4       ??_C@_06JMDBBNKD@?0?5?$CFu?0?5?$AA@ c00486e4     AcpiSubsystem:dmopcode.obj
 0002:0000dcec       ??_C@_03KNKIDPAC@Not?$AA@  c00486ec     AcpiSubsystem:dmopcode.obj
 0002:0000dcf0       ??_C@_0L@NOMBBABN@Serialized?$AA@ c00486f0     AcpiSubsystem:dmopcode.obj
 0002:0000dcfc       ??_C@_04PBBAGMGB@?0?5?$CFu?$AA@ c00486fc     AcpiSubsystem:dmopcode.obj
 0002:0000dd04       ??_C@_04ONKFDMMC@?$CFs?0?5?$AA@ c0048704     AcpiSubsystem:dmopcode.obj
 0002:0000dd0c       ??_C@_03FLKGDGAN@?$CFs?$CJ?$AA@ c004870c     AcpiSubsystem:dmopcode.obj
 0002:0000dd10       ??_C@_0L@GGDFMGDJ@FFixedHW?0?5?$AA@ c0048710     AcpiSubsystem:dmopcode.obj
 0002:0000dd1c       ??_C@_08JJNKIEFG@0x?$CF?42X?0?5?$AA@ c004871c     AcpiSubsystem:dmopcode.obj
 0002:0000dd28       ??_C@_0CF@DCIFPLF@?1?$CK?5Unknown?5Match?5Keyword?5encodin@ c0048728     AcpiSubsystem:dmopcode.obj
 0002:0000dd50       ??_C@_0O@BALEIHFO@?$DMNULL?5OP?5PTR?$DO?$AA@ c0048750     AcpiSubsystem:dmopcode.obj
 0002:0000dd60       ??_C@_09NINEGJKP@LNotEqual?$AA@ c0048760     AcpiSubsystem:dmopcode.obj
 0002:0000dd6c       ??_C@_0L@GCJMDNIJ@LLessEqual?$AA@ c004876c     AcpiSubsystem:dmopcode.obj
 0002:0000dd78       ??_C@_0O@FLAJEHPO@LGreaterEqual?$AA@ c0048778     AcpiSubsystem:dmopcode.obj
 0002:0000dd88       ??_C@_07FJHHKMGL@0x?$CF2?42X?$AA@ c0048788     AcpiSubsystem:dmopcode.obj
 0002:0000dd90       ??_C@_07NCLKCFHJ@0x?$CF4?44X?$AA@ c0048790     AcpiSubsystem:dmopcode.obj
 0002:0000dd98       ??_C@_07BOFADBBM@0x?$CF8?48X?$AA@ c0048798     AcpiSubsystem:dmopcode.obj
 0002:0000dda0       ??_C@_0N@ILLNCIJD@0x?$CF8?48X?$CF8?48X?$AA@ c00487a0     AcpiSubsystem:dmopcode.obj
 0002:0000ddb0       ??_C@_0BB@HFMFJNGD@ResourceTemplate?$AA@ c00487b0     AcpiSubsystem:dmopcode.obj
 0002:0000ddc4       ??_C@_0DP@HPECCPEK@?1?$CK?$CK?$CK?$CK?5Is?5ResourceTemplate?0?5but?5E@ c00487c4     AcpiSubsystem:dmopcode.obj
 0002:0000de04       ??_C@_08DGKIALHA@ToUUID?5?$CI?$AA@ c0048804     AcpiSubsystem:dmopcode.obj
 0002:0000de10       ??_C@_09FOOLOOCC@Unicode?5?$CI?$AA@ c0048810     AcpiSubsystem:dmopcode.obj
 0002:0000de1c       ??_C@_07NGKEHLDJ@ToPLD?5?$CI?$AA@ c004881c     AcpiSubsystem:dmopcode.obj
 0002:0000de24       ??_C@_09PGMNHJIJ@?0?$CF?$CK?4s?5?5?$CFu?$AA@ c0048824     AcpiSubsystem:dmopcode.obj
 0002:0000de30       ??_C@_0BA@CHFKGBLE@Offset?5?$CI0x?$CF?42X?$CJ?$AA@ c0048830     AcpiSubsystem:dmopcode.obj
 0002:0000de40       ??_C@_0L@CELCPNLN@?5?5?5?5?0?5?5?5?$CFu?$AA@ c0048840     AcpiSubsystem:dmopcode.obj
 0002:0000de4c       ??_C@_0P@MJOKFKEO@AccessAs?5?$CI?$CFs?0?5?$AA@ c004884c     AcpiSubsystem:dmopcode.obj
 0002:0000de5c       ??_C@_0L@MJOHDJCG@?5?$CI0x?$CF2?42X?$CJ?$AA@ c004885c     AcpiSubsystem:dmopcode.obj
 0002:0000de68       ??_C@_0N@LNEBHPGD@Connection?5?$CI?$AA@ c0048868     AcpiSubsystem:dmopcode.obj
 0002:0000de80       ??_C@_0BD@OAIFNBKL@?5?5?$FLPath?5not?5found?$FN?$AA@ c0048880     AcpiSubsystem:dmnames.obj
 0002:0000de94       ??_C@_0CA@CFBIFJHO@?$CK?$CK?$CK?$CKCould?5not?5get?5pathname?$CK?$CK?$CK?$CK?$CJ?$AA@ c0048894     AcpiSubsystem:dmnames.obj
 0002:0000deb4       ??_C@_0M@JAECIPCN@?5?5?$CIPath?5?$CFs?$CJ?$AA@ c00488b4     AcpiSubsystem:dmnames.obj
 0002:0000dec0       ??_C@_03CCCOMICM@?$CF1c?$AA@ c00488c0     AcpiSubsystem:dmnames.obj
 0002:0000ded0       ??_C@_03FLKJCPLP@TOP?$AA@  c00488d0     AcpiSubsystem:dmbuffer.obj
 0002:0000ded4       ??_C@_06PIOEPGCD@BOTTOM?$AA@ c00488d4     AcpiSubsystem:dmbuffer.obj
 0002:0000dedc       ??_C@_04KCNEHMIH@LEFT?$AA@ c00488dc     AcpiSubsystem:dmbuffer.obj
 0002:0000dee4       ??_C@_05PMAFOJDE@RIGHT?$AA@ c00488e4     AcpiSubsystem:dmbuffer.obj
 0002:0000deec       ??_C@_05LCELFLHH@FRONT?$AA@ c00488ec     AcpiSubsystem:dmbuffer.obj
 0002:0000def4       ??_C@_04FJBHJJME@BACK?$AA@ c00488f4     AcpiSubsystem:dmbuffer.obj
 0002:0000defc       ??_C@_05BPLMHHIM@UPPER?$AA@ c00488fc     AcpiSubsystem:dmbuffer.obj
 0002:0000df04       ??_C@_06BFJFNKJK@CENTER?$AA@ c0048904     AcpiSubsystem:dmbuffer.obj
 0002:0000df0c       ??_C@_05EEACBMDF@LOWER?$AA@ c004890c     AcpiSubsystem:dmbuffer.obj
 0002:0000df14       ??_C@_05MHBKONGD@ROUND?$AA@ c0048914     AcpiSubsystem:dmbuffer.obj
 0002:0000df1c       ??_C@_04CAIMHAPK@OVAL?$AA@ c004891c     AcpiSubsystem:dmbuffer.obj
 0002:0000df24       ??_C@_06IGBBDGIE@SQUARE?$AA@ c0048924     AcpiSubsystem:dmbuffer.obj
 0002:0000df2c       ??_C@_0BC@PAJIEIBE@VERTICALRECTANGLE?$AA@ c004892c     AcpiSubsystem:dmbuffer.obj
 0002:0000df40       ??_C@_0BE@OFGOADHN@HORIZONTALRECTANGLE?$AA@ c0048940     AcpiSubsystem:dmbuffer.obj
 0002:0000df54       ??_C@_0BC@FHNIJMJE@VERTICALTRAPEZOID?$AA@ c0048954     AcpiSubsystem:dmbuffer.obj
 0002:0000df68       ??_C@_0BE@ECCONHPN@HORIZONTALTRAPEZOID?$AA@ c0048968     AcpiSubsystem:dmbuffer.obj
 0002:0000df7c       ??_C@_09GALGALE@CHAMFERED?$AA@ c004897c     AcpiSubsystem:dmbuffer.obj
 0002:0000df88       ??_C@_0M@JMGAHDPB@?1?$CK?5?$CF04X?5?$CK?1?5?$AA@ c0048988     AcpiSubsystem:dmbuffer.obj
 0002:0000df94       ??_C@_06GGLIPOFD@?5?5?5?5?5?5?$AA@ c0048994     AcpiSubsystem:dmbuffer.obj
 0002:0000df9c       ??_C@_08FIKNOFAP@?50x?$CF2?42X?$AA@ c004899c     AcpiSubsystem:dmbuffer.obj
 0002:0000dfa8       ??_C@_01IHBHIGKO@?0?$AA@   c00489a8     AcpiSubsystem:dmbuffer.obj
 0002:0000dfac       ??_C@_05NAFPCMJC@?5?5?1?$CK?5?$AA@ c00489ac     AcpiSubsystem:dmbuffer.obj
 0002:0000dfb4       ??_C@_04POGNIBOL@?5?$CK?1?6?$AA@ c00489b4     AcpiSubsystem:dmbuffer.obj
 0002:0000dfc0       ??_C@_0FI@KHNFEBNB@?$CC?$CF2?42x?$CF2?42x?$CF2?42x?$CF2?42x?9?$CF2?42x?$CF2?42x@ c00489c0     AcpiSubsystem:dmbuffer.obj
 0002:0000e018       ??_C@_0N@MGKDFHNL@PLD_Revision?$AA@ c0048a18     AcpiSubsystem:dmbuffer.obj
 0002:0000e028       ??_C@_0BD@GPKCAJPI@?$CF?$CK?4s?$CF?918s?5?$DN?50x?$CFX?0?6?$AA@ c0048a28     AcpiSubsystem:dmbuffer.obj
 0002:0000e03c       ??_C@_0BA@DAAKPCLG@PLD_IgnoreColor?$AA@ c0048a3c     AcpiSubsystem:dmbuffer.obj
 0002:0000e04c       ??_C@_07EMFDLMHM@PLD_Red?$AA@ c0048a4c     AcpiSubsystem:dmbuffer.obj
 0002:0000e054       ??_C@_09MNFIHFDD@PLD_Green?$AA@ c0048a54     AcpiSubsystem:dmbuffer.obj
 0002:0000e060       ??_C@_08EBHJOAAG@PLD_Blue?$AA@ c0048a60     AcpiSubsystem:dmbuffer.obj
 0002:0000e06c       ??_C@_09CKLMNIJP@PLD_Width?$AA@ c0048a6c     AcpiSubsystem:dmbuffer.obj
 0002:0000e078       ??_C@_0L@HHKBJOGD@PLD_Height?$AA@ c0048a78     AcpiSubsystem:dmbuffer.obj
 0002:0000e084       ??_C@_0BA@FEOEACHK@PLD_UserVisible?$AA@ c0048a84     AcpiSubsystem:dmbuffer.obj
 0002:0000e094       ??_C@_08FKKEEIAE@PLD_Dock?$AA@ c0048a94     AcpiSubsystem:dmbuffer.obj
 0002:0000e0a0       ??_C@_07PFIPGFLE@PLD_Lid?$AA@ c0048aa0     AcpiSubsystem:dmbuffer.obj
 0002:0000e0a8       ??_C@_09BBPMEPMB@PLD_Panel?$AA@ c0048aa8     AcpiSubsystem:dmbuffer.obj
 0002:0000e0b4       ??_C@_0BD@JMCCOFKF@?$CF?$CK?4s?$CF?918s?5?$DN?5?$CC?$CFs?$CC?0?6?$AA@ c0048ab4     AcpiSubsystem:dmbuffer.obj
 0002:0000e0c8       ??_C@_0BF@CFGDENIC@PLD_VerticalPosition?$AA@ c0048ac8     AcpiSubsystem:dmbuffer.obj
 0002:0000e0e0       ??_C@_0BH@KBPEKONB@PLD_HorizontalPosition?$AA@ c0048ae0     AcpiSubsystem:dmbuffer.obj
 0002:0000e0f8       ??_C@_09JDEJFJK@PLD_Shape?$AA@ c0048af8     AcpiSubsystem:dmbuffer.obj
 0002:0000e104       ??_C@_0BF@PFEFLPEH@PLD_GroupOrientation?$AA@ c0048b04     AcpiSubsystem:dmbuffer.obj
 0002:0000e11c       ??_C@_0P@KNNHINEI@PLD_GroupToken?$AA@ c0048b1c     AcpiSubsystem:dmbuffer.obj
 0002:0000e12c       ??_C@_0BC@ECIHMDOE@PLD_GroupPosition?$AA@ c0048b2c     AcpiSubsystem:dmbuffer.obj
 0002:0000e140       ??_C@_07OECPCPCD@PLD_Bay?$AA@ c0048b40     AcpiSubsystem:dmbuffer.obj
 0002:0000e148       ??_C@_0O@JJFJHMOF@PLD_Ejectable?$AA@ c0048b48     AcpiSubsystem:dmbuffer.obj
 0002:0000e158       ??_C@_0BC@FMNPDNBL@PLD_EjectRequired?$AA@ c0048b58     AcpiSubsystem:dmbuffer.obj
 0002:0000e16c       ??_C@_0BC@PIAEGELJ@PLD_CabinetNumber?$AA@ c0048b6c     AcpiSubsystem:dmbuffer.obj
 0002:0000e180       ??_C@_0BD@LDFJLKNB@PLD_CardCageNumber?$AA@ c0048b80     AcpiSubsystem:dmbuffer.obj
 0002:0000e194       ??_C@_0O@MJOKGCE@PLD_Reference?$AA@ c0048b94     AcpiSubsystem:dmbuffer.obj
 0002:0000e1a4       ??_C@_0N@JOIPAEEH@PLD_Rotation?$AA@ c0048ba4     AcpiSubsystem:dmbuffer.obj
 0002:0000e1b4       ??_C@_09HPMAMNGG@PLD_Order?$AA@ c0048bb4     AcpiSubsystem:dmbuffer.obj
 0002:0000e1c0       ??_C@_0BD@GJGJMLBD@?$CF?$CK?4s?$CF?918s?5?$DN?50x?$CFX?$CJ?6?$AA@ c0048bc0     AcpiSubsystem:dmbuffer.obj
 0002:0000e1d4       ??_C@_0BD@DHIBEBNB@PLD_VerticalOffset?$AA@ c0048bd4     AcpiSubsystem:dmbuffer.obj
 0002:0000e1e8       ??_C@_0BF@EMMFMKKI@PLD_HorizontalOffset?$AA@ c0048be8     AcpiSubsystem:dmbuffer.obj
 0002:0000e200       ??_C@_02HPDBCLII@?$CC?$CJ?$AA@ c0048c00     AcpiSubsystem:dmbuffer.obj
 0002:0000e204       ??_C@_0O@IDPCDKNP@EisaId?5?$CI?$CC?$CFs?$CC?$CJ?$AA@ c0048c04     AcpiSubsystem:dmbuffer.obj
 0002:0000e21c       ??_C@_03FEPNBJLJ@MTR?$AA@  c0048c1c     AcpiSubsystem:dmutils.obj
 0002:0000e220       ??_C@_03GCDEIDDN@MEQ?$AA@  c0048c20     AcpiSubsystem:dmutils.obj
 0002:0000e224       ??_C@_03EDELGPOH@MLE?$AA@  c0048c24     AcpiSubsystem:dmutils.obj
 0002:0000e228       ??_C@_03BAJCEMPH@MLT?$AA@  c0048c28     AcpiSubsystem:dmutils.obj
 0002:0000e22c       ??_C@_03EPBOIAAG@MGE?$AA@  c0048c2c     AcpiSubsystem:dmutils.obj
 0002:0000e230       ??_C@_03BMMHKDBG@MGT?$AA@  c0048c30     AcpiSubsystem:dmutils.obj
 0002:0000e234       ??_C@_06GBDKMAJN@AnyAcc?$AA@ c0048c34     AcpiSubsystem:dmutils.obj
 0002:0000e23c       ??_C@_07GOBNLFFB@ByteAcc?$AA@ c0048c3c     AcpiSubsystem:dmutils.obj
 0002:0000e244       ??_C@_07LFHBOJEH@WordAcc?$AA@ c0048c44     AcpiSubsystem:dmutils.obj
 0002:0000e24c       ??_C@_08LFCEHAIL@DWordAcc?$AA@ c0048c4c     AcpiSubsystem:dmutils.obj
 0002:0000e258       ??_C@_08FDHDHHLF@QWordAcc?$AA@ c0048c58     AcpiSubsystem:dmutils.obj
 0002:0000e264       ??_C@_09DOCOEJGO@BufferAcc?$AA@ c0048c64     AcpiSubsystem:dmutils.obj
 0002:0000e270       ??_C@_0P@EKGAKKCA@InvalidAccType?$AA@ c0048c70     AcpiSubsystem:dmutils.obj
 0002:0000e280       ??_C@_06LNNLAGCC@NoLock?$AA@ c0048c80     AcpiSubsystem:dmutils.obj
 0002:0000e288       ??_C@_04LADJNOK@Lock?$AA@  c0048c88     AcpiSubsystem:dmutils.obj
 0002:0000e290       ??_C@_08JPLDLMN@Preserve?$AA@ c0048c90     AcpiSubsystem:dmutils.obj
 0002:0000e29c       ??_C@_0M@FGKPBPGJ@WriteAsOnes?$AA@ c0048c9c     AcpiSubsystem:dmutils.obj
 0002:0000e2a8       ??_C@_0N@MMBDMLNN@WriteAsZeros?$AA@ c0048ca8     AcpiSubsystem:dmutils.obj
 0002:0000e2b8       ??_C@_0BC@HOIGKFJF@InvalidUpdateRule?$AA@ c0048cb8     AcpiSubsystem:dmutils.obj
 0002:0000e2cc       ??_C@_06LEBJIAPJ@Memory?$AA@ c0048ccc     AcpiSubsystem:dmutils.obj
 0002:0000e2d4       ??_C@_02IBEMDGI@IO?$AA@    c0048cd4     AcpiSubsystem:dmutils.obj
 0002:0000e2d8       ??_C@_09PCJCFMGA@BusNumber?$AA@ c0048cd8     AcpiSubsystem:dmutils.obj
 0002:0000e2e4       ??_C@_0BE@LPAJJJE@UnknownResourceType?$AA@ c0048ce4     AcpiSubsystem:dmutils.obj
 0002:0000e2f8       ??_C@_0L@OPIPJCCB@IRQNoFlags?$AA@ c0048cf8     AcpiSubsystem:dmutils.obj
 0002:0000e304       ??_C@_03PEDPKBJP@IRQ?$AA@  c0048d04     AcpiSubsystem:dmutils.obj
 0002:0000e308       ??_C@_0M@OPDLAAOC@AttribQuick?$AA@ c0048d08     AcpiSubsystem:dmutils.obj
 0002:0000e314       ??_C@_0BC@IIAOODAE@AttribSendReceive?$AA@ c0048d14     AcpiSubsystem:dmutils.obj
 0002:0000e328       ??_C@_0L@BLECLFNM@AttribByte?$AA@ c0048d28     AcpiSubsystem:dmutils.obj
 0002:0000e334       ??_C@_0L@NLKGOIJO@AttribWord?$AA@ c0048d34     AcpiSubsystem:dmutils.obj
 0002:0000e340       ??_C@_0M@CCOCNKPI@AttribBlock?$AA@ c0048d40     AcpiSubsystem:dmutils.obj
 0002:0000e34c       ??_C@_0M@ILGMPGHP@AttribBytes?$AA@ c0048d4c     AcpiSubsystem:dmutils.obj
 0002:0000e358       ??_C@_0BC@DAGIHIOE@AttribProcessCall?$AA@ c0048d58     AcpiSubsystem:dmutils.obj
 0002:0000e36c       ??_C@_0BH@NHOGLJFL@AttribBlockProcessCall?$AA@ c0048d6c     AcpiSubsystem:dmutils.obj
 0002:0000e384       ??_C@_0P@JFHDAPMG@AttribRawBytes?$AA@ c0048d84     AcpiSubsystem:dmutils.obj
 0002:0000e394       ??_C@_0BG@HHPDENGI@AttribRawProcessBytes?$AA@ c0048d94     AcpiSubsystem:dmutils.obj
 0002:0000e3ac       ??_C@_04MJLCKGBD@?$CF?$CK?4s?$AA@ c0048dac     AcpiSubsystem:dmutils.obj
 0002:0000e3c0       ??_C@_03NPBFACHO@?5?$CL?5?$AA@ c0048dc0     AcpiSubsystem:dmcstyle.obj
 0002:0000e3c4       ??_C@_03NLJIHOMM@?5?9?5?$AA@ c0048dc4     AcpiSubsystem:dmcstyle.obj
 0002:0000e3c8       ??_C@_03NONHGIEJ@?5?$CK?5?$AA@ c0048dc8     AcpiSubsystem:dmcstyle.obj
 0002:0000e3cc       ??_C@_03NIBMKKKC@?5?1?5?$AA@ c0048dcc     AcpiSubsystem:dmcstyle.obj
 0002:0000e3d0       ??_C@_03NFILCPHE@?5?$CF?5?$AA@ c0048dd0     AcpiSubsystem:dmcstyle.obj
 0002:0000e3d4       ??_C@_04PKBEFIKJ@?5?$DM?$DM?5?$AA@ c0048dd4     AcpiSubsystem:dmcstyle.obj
 0002:0000e3dc       ??_C@_04FDJJEEEM@?5?$DO?$DO?5?$AA@ c0048ddc     AcpiSubsystem:dmcstyle.obj
 0002:0000e3e4       ??_C@_03NHMNJBCN@?5?$CG?5?$AA@ c0048de4     AcpiSubsystem:dmcstyle.obj
 0002:0000e3e8       ??_C@_03LGOGDKEL@?5?$HM?5?$AA@ c0048de8     AcpiSubsystem:dmcstyle.obj
 0002:0000e3ec       ??_C@_03INCPKIMF@?5?$FO?5?$AA@ c0048dec     AcpiSubsystem:dmcstyle.obj
 0002:0000e3f0       ??_C@_04NEABMJPE@?5?$CG?$CG?5?$AA@ c0048df0     AcpiSubsystem:dmcstyle.obj
 0002:0000e3f8       ??_C@_04EDGKFFPL@?5?$DN?$DN?5?$AA@ c0048df8     AcpiSubsystem:dmcstyle.obj
 0002:0000e400       ??_C@_03MFPIGDOF@?5?$DO?5?$AA@ c0048e00     AcpiSubsystem:dmcstyle.obj
 0002:0000e404       ??_C@_03MGHMLHIL@?5?$DM?5?$AA@ c0048e04     AcpiSubsystem:dmcstyle.obj
 0002:0000e408       ??_C@_04BBJKINFE@?5?$HM?$HM?5?$AA@ c0048e08     AcpiSubsystem:dmcstyle.obj
 0002:0000e410       ??_C@_04FJKFLNNM@?5?$CB?$DN?5?$AA@ c0048e10     AcpiSubsystem:dmcstyle.obj
 0002:0000e418       ??_C@_04PLNGDCJO@?5?$DM?$DN?5?$AA@ c0048e18     AcpiSubsystem:dmcstyle.obj
 0002:0000e420       ??_C@_04FBNPPKBF@?5?$DO?$DN?5?$AA@ c0048e20     AcpiSubsystem:dmcstyle.obj
 0002:0000e428       ??_C@_02BAABKJLB@?9?9?$AA@ c0048e28     AcpiSubsystem:dmcstyle.obj
 0002:0000e42c       ??_C@_02ECNGHCIF@?$CL?$CL?$AA@ c0048e2c     AcpiSubsystem:dmcstyle.obj
 0002:0000e430       ??_C@_01ODHLEDKK@?$CI?$AA@ c0048e30     AcpiSubsystem:dmcstyle.obj
 0002:0000e434       ??_C@_04JPENOPNA@?5?$DN?5?$CI?$AA@ c0048e34     AcpiSubsystem:dmcstyle.obj
 0002:0000e43c       ??_C@_03MHLONNLM@?5?$DN?5?$AA@ c0048e3c     AcpiSubsystem:dmcstyle.obj
 0002:0000e440       ??_C@_04HDKMBFAC@?5?$DN?5?$HO?$AA@ c0048e40     AcpiSubsystem:dmcstyle.obj
 0002:0000e448       ??_C@_01PJKLJHI@?$HO?$AA@  c0048e48     AcpiSubsystem:dmcstyle.obj
 0002:0000e44c       ??_C@_04DGBIFNLI@?5?$CL?$DN?5?$AA@ c0048e4c     AcpiSubsystem:dmcstyle.obj
 0002:0000e454       ??_C@_04BDHDACGE@?5?9?$DN?5?$AA@ c0048e54     AcpiSubsystem:dmcstyle.obj
 0002:0000e45c       ??_C@_04IOKEDKNN@?5?$CK?$DN?5?$AA@ c0048e5c     AcpiSubsystem:dmcstyle.obj
 0002:0000e464       ??_C@_04LJHKMKOP@?5?1?$DN?5?$AA@ c0048e64     AcpiSubsystem:dmcstyle.obj
 0002:0000e46c       ??_C@_04NGMHCKIL@?5?$CF?$DN?5?$AA@ c0048e6c     AcpiSubsystem:dmcstyle.obj
 0002:0000e474       ??_C@_05COIKBLJF@?5?$DM?$DM?$DN?5?$AA@ c0048e74     AcpiSubsystem:dmcstyle.obj
 0002:0000e47c       ??_C@_05POEDIAHO@?5?$DO?$DO?$DN?5?$AA@ c0048e7c     AcpiSubsystem:dmcstyle.obj
 0002:0000e484       ??_C@_04MEHCIFGF@?5?$CG?$DN?5?$AA@ c0048e84     AcpiSubsystem:dmcstyle.obj
 0002:0000e48c       ??_C@_04GAMCGKKD@?5?$HM?$DN?5?$AA@ c0048e8c     AcpiSubsystem:dmcstyle.obj
 0002:0000e494       ??_C@_04GKPJANBG@?5?$FO?$DN?5?$AA@ c0048e94     AcpiSubsystem:dmcstyle.obj
 0002:0000e4c8       ??_C@_0CH@NCNNBEJP@Pass1?3?5Skipping?5an?5If?1Else?1While@ c0048ec8     AcpiSubsystem:psloop.obj
 0002:0000e4f0       ??_C@_0EJ@PGOJAEJP@Unsupported?5module?9level?5executa@ c0048ef0     AcpiSubsystem:psloop.obj
 0002:0000e53c       ??_C@_0CG@DFNBKEJO@Invoked?5method?5did?5not?5return?5a?5@ c0048f3c     AcpiSubsystem:psloop.obj
 0002:0000e564       ??_C@_0BE@FMLFGFCM@GetPredicate?5Failed?$AA@ c0048f64     AcpiSubsystem:psloop.obj
 0002:0000e578       ??_C@_0BF@PDLBGCNG@Popped?5scope?0?5Op?$DN?$CFp?6?$AA@ c0048f78     AcpiSubsystem:psloop.obj
 0002:0000e590       ??_C@_0DA@FMGCCMHP@Opcode?5?$CF4?44X?5?$FL?$CFs?$FN?5Op?5?$CFp?5Aml?5?$CFp?5A@ c0048f90     AcpiSubsystem:psloop.obj
 0002:0000e678       ??_C@_0DE@GFKLNIAO@Removing?5reference?5on?5stale?5impl@ c0049078     AcpiSubsystem:dsutils.obj
 0002:0000e6ac       ??_C@_0DA@IFLENON@Result?5?$CFp?5will?5be?5implicitly?5ret@ c00490ac     AcpiSubsystem:dsutils.obj
 0002:0000e6dc       ??_C@_07MPKFEGJN@Null?5Op?$AA@ c00490dc     AcpiSubsystem:dsutils.obj
 0002:0000e6e4       ??_C@_0CK@HEMHAGD@At?5Method?5level?0?5result?5of?5?$FL?$CFs?$FN?5@ c00490e4     AcpiSubsystem:dsutils.obj
 0002:0000e710       ??_C@_0BM@FNHMOKIG@Unknown?5parent?5opcode?5Op?$DN?$CFp?$AA@ c0049110     AcpiSubsystem:dsutils.obj
 0002:0000e72c       ??_C@_0CK@NCPOAHJL@Result?5of?5?$FL?$CFs?$FN?5used?5by?5Parent?5?$FL?$CF@ c004912c     AcpiSubsystem:dsutils.obj
 0002:0000e758       ??_C@_0CO@BFOBDDNN@Result?5of?5?$FL?$CFs?$FN?5not?5used?5by?5Paren@ c0049158     AcpiSubsystem:dsutils.obj
 0002:0000e788       ??_C@_0BI@FAKFHCAC@Getting?5a?5name?3?5Arg?$DN?$CFp?6?$AA@ c0049188     AcpiSubsystem:dsutils.obj
 0002:0000e7a0       ??_C@_0BH@OCMJCBDO@Null?5namepath?3?5Arg?$DN?$CFp?6?$AA@ c00491a0     AcpiSubsystem:dsutils.obj
 0002:0000e7b8       ??_C@_0CO@IOGEBANP@Argument?5previously?5created?0?5alr@ c00491b8     AcpiSubsystem:dsutils.obj
 0002:0000e7e8       ??_C@_0BI@CMGMFHDN@Missing?5or?5null?5operand?$AA@ c00491e8     AcpiSubsystem:dsutils.obj
 0002:0000e800       ??_C@_0CH@FJHOLKKO@NumOperands?5?$CFd?0?5ArgCount?5?$CFd?0?5Ind@ c0049200     AcpiSubsystem:dsutils.obj
 0002:0000e828       ??_C@_0CE@OHKGMOBA@Created?5Arg?5?$CD?$CFu?5?$CI?$CFp?$CJ?5?$CFu?5args?5tot@ c0049228     AcpiSubsystem:dsutils.obj
 0002:0000e84c       ??_C@_0BG@ECLNLDLM@While?5creating?5Arg?5?$CFu?$AA@ c004924c     AcpiSubsystem:dsutils.obj
 0002:0000e88c       ??_C@_0BA@GGFHPLGL@Op?$DN?$CFp?5State?$DN?$CFp?6?$AA@ c004928c     AcpiSubsystem:dswload.obj
 0002:0000e89c       ??_C@_0BF@BKBBNEBN@State?$DN?$CFp?5Op?$DN?$CFp?5?$FL?$CFs?$FN?6?$AA@ c004929c     AcpiSubsystem:dswload.obj
 0002:0000e8b8       ??_C@_0FH@JMOLKDFE@Type?5override?5?9?5?$FL?$CF4?44s?$FN?5had?5inva@ c00492b8     AcpiSubsystem:dswload.obj
 0002:0000e910       ??_C@_0EJ@NCMLLIAA@Invalid?5type?5?$CI?$CFs?$CJ?5for?5target?5of?5@ c0049310     AcpiSubsystem:dswload.obj
 0002:0000e95c       ??_C@_0BH@EBLIMLK@?$FL?$CFs?$FN?5Override?5allowed?6?$AA@ c004935c     AcpiSubsystem:dswload.obj
 0002:0000e974       ??_C@_0BL@FLLGAGDO@?$FL?$CFs?$FN?5Cannot?5already?5exist?6?$AA@ c0049374     AcpiSubsystem:dswload.obj
 0002:0000e990       ??_C@_0CC@DMGMBPEG@?$FL?$CFs?$FN?5Both?5Find?5or?5Create?5allowed@ c0049390     AcpiSubsystem:dswload.obj
 0002:0000e9b4       ??_C@_0CM@DCILFJDB@LOADING?9Method?3?5State?$DN?$CFp?5Op?$DN?$CFp?5N@ c00493b4     AcpiSubsystem:dswload.obj
 0002:0000e9e0       ??_C@_0BP@IJKALDKM@?$CI?$CFs?$CJ?3?5Popping?5scope?5for?5Op?5?$CFp?6?$AA@ c00493e0     AcpiSubsystem:dswload.obj
 0002:0000eac4       ??_C@_0BF@HEFMAHPI@Deleting?5Local?$CFu?$DN?$CFp?6?$AA@ c00494c4     AcpiSubsystem:dsmthdat.obj
 0002:0000eadc       ??_C@_0BD@HEIBAFPM@Deleting?5Arg?$CFu?$DN?$CFp?6?$AA@ c00494dc     AcpiSubsystem:dsmthdat.obj
 0002:0000eaf0       ??_C@_0CA@MJJFENCL@No?5param?5list?5passed?5to?5method?6?$AA@ c00494f0     AcpiSubsystem:dsmthdat.obj
 0002:0000eb10       ??_C@_0BK@GHBCFEOP@?$CFu?5args?5passed?5to?5method?6?$AA@ c0049510     AcpiSubsystem:dsmthdat.obj
 0002:0000eb2c       ??_C@_0CD@IFDBHFJF@Local?5index?5?$CFu?5is?5invalid?5?$CImax?5?$CF@ c004952c     AcpiSubsystem:dsmthdat.obj
 0002:0000eb50       ??_C@_0CB@DIPJKJDC@Arg?5index?5?$CFu?5is?5invalid?5?$CImax?5?$CFu?$CJ@ c0049550     AcpiSubsystem:dsmthdat.obj
 0002:0000eb74       ??_C@_0BD@BEIPPMGI@Type?5?$CFu?5is?5invalid?$AA@ c0049574     AcpiSubsystem:dsmthdat.obj
 0002:0000eb88       ??_C@_0CE@CHOLEDCD@NewObj?5?$CFp?5Type?5?$CF2?42X?0?5Refs?$DN?$CFu?5?$FL?$CF@ c0049588     AcpiSubsystem:dsmthdat.obj
 0002:0000ebac       ??_C@_0BP@BLBNKGHD@Null?5object?5descriptor?5pointer?$AA@ c00495ac     AcpiSubsystem:dsmthdat.obj
 0002:0000ebcc       ??_C@_0CB@GEEGJJCL@Uninitialized?5Arg?$FL?$CFu?$FN?5at?5node?5?$CFp@ c00495cc     AcpiSubsystem:dsmthdat.obj
 0002:0000ebf0       ??_C@_0BN@NCLNAAML@Not?5a?5Arg?1Local?5opcode?3?50x?$CFX?$AA@ c00495f0     AcpiSubsystem:dsmthdat.obj
 0002:0000ec10       ??_C@_0BM@MLIDBKJA@Type?$DN?$CF2?42X?5Index?$DN?$CFu?5Obj?$DN?$CFp?6?$AA@ c0049610     AcpiSubsystem:dsmthdat.obj
 0002:0000ec2c       ??_C@_0BL@MMOPNJMP@Obj?$DN?$CFp?5already?5installed?$CB?6?$AA@ c004962c     AcpiSubsystem:dsmthdat.obj
 0002:0000ec48       ??_C@_0DB@DDAMKJIG@Arg?5?$CI?$CFp?$CJ?5is?5an?5ObjRef?$CINode?$CJ?0?5sto@ c0049648     AcpiSubsystem:dsmthdat.obj
 0002:0000ecf4       ??_C@_0CE@GNPICANO@Needed?5Region?0?5found?5type?50x?$CFX?5?$CI@ c00496f4     AcpiSubsystem:exfldio.obj
 0002:0000ed18       ??_C@_0CK@OIHABLNB@Invalid?1unknown?5Address?5Space?5ID@ c0049718     AcpiSubsystem:exfldio.obj
 0002:0000ed48       ??_C@_0EP@CEMLICCB@Field?5?$FL?$CF4?44s?$FN?5access?5width?5?$CI?$CFu?5b@ c0049748     AcpiSubsystem:exfldio.obj
 0002:0000ed98       ??_C@_0FF@NBAKCIMA@Field?5?$FL?$CF4?44s?$FN?5Base?$CLOffset?$CLWidth?5@ c0049798     AcpiSubsystem:exfldio.obj
 0002:0000edf0       ??_C@_06MJDKNKFE@?$FLREAD?$FN?$AA@ c00497f0     AcpiSubsystem:exfldio.obj
 0002:0000edf8       ??_C@_07FNGNHPDM@?$FLWRITE?$FN?$AA@ c00497f8     AcpiSubsystem:exfldio.obj
 0002:0000ee00       ??_C@_0EB@CHGNCMOM@?5Region?5?$FL?$CFs?3?$CFX?$FN?0?5Width?5?$CFX?0?5ByteB@ c0049800     AcpiSubsystem:exfldio.obj
 0002:0000ee44       ??_C@_0CC@HNBEDFDO@Region?5?$CFs?5?$CIID?$DN?$CFu?$CJ?5not?5implemente@ c0049844     AcpiSubsystem:exfldio.obj
 0002:0000ee68       ??_C@_0CB@OLGFNNIB@Region?5?$CFs?5?$CIID?$DN?$CFu?$CJ?5has?5no?5handler@ c0049868     AcpiSubsystem:exfldio.obj
 0002:0000ee8c       ??_C@_0DE@KMKKEMOJ@Index?5value?50x?$CF8?48X?$CF8?48X?5overflo@ c004988c     AcpiSubsystem:exfldio.obj
 0002:0000eec0       ??_C@_0CG@KBODNGDB@Write?5to?5Index?5Register?3?5Value?5?$CF@ c00498c0     AcpiSubsystem:exfldio.obj
 0002:0000eee8       ??_C@_0BJ@NBMMNEPH@Read?5from?5Data?5Register?6?$AA@ c00498e8     AcpiSubsystem:exfldio.obj
 0002:0000ef04       ??_C@_0CK@BLCCKDML@Write?5to?5Data?5Register?3?5Value?5?$CF8@ c0049904     AcpiSubsystem:exfldio.obj
 0002:0000ef30       ??_C@_0CC@PIGBDEK@Wrong?5object?5type?5in?5field?5I?1O?5?$CF@ c0049930     AcpiSubsystem:exfldio.obj
 0002:0000ef54       ??_C@_0CB@ILDNLJPN@Value?5Read?5?$CF8?48X?$CF8?48X?0?5Width?5?$CFu?6@ c0049954     AcpiSubsystem:exfldio.obj
 0002:0000ef78       ??_C@_0CE@LENJGEOC@Value?5Written?5?$CF8?48X?$CF8?48X?0?5Width?5@ c0049978     AcpiSubsystem:exfldio.obj
 0002:0000ef9c       ??_C@_0BP@NGGHEDKN@Unknown?5UpdateRule?5value?3?50x?$CFX?$AA@ c004999c     AcpiSubsystem:exfldio.obj
 0002:0000efc0       ??_C@_0FF@HJPFJGLG@Mask?5?$CF8?48X?$CF8?48X?0?5DatumOffset?5?$CFX?0@ c00499c0     AcpiSubsystem:exfldio.obj
 0002:0000f018       ??_C@_0DC@DNPKCMMC@Field?5size?5?$CFu?5?$CIbits?$CJ?5is?5too?5larg@ c0049a18     AcpiSubsystem:exfldio.obj
 0002:0000f0c0       ??_C@_0CJ@HPHFAGFH@While?5loading?5namespace?5from?5ACP@ c0049ac0     AcpiSubsystem:tbxfload.obj
 0002:0000f0ec       ??_C@_0CG@HCAJLAML@All?5ACPI?5Tables?5successfully?5acq@ c0049aec     AcpiSubsystem:tbxfload.obj
 0002:0000f114       ??_C@_0CH@EGEELCLO@Host?9directed?5Dynamic?5ACPI?5Table@ c0049b14     AcpiSubsystem:tbxfload.obj
 0002:0000f2c0       ??_C@_05LOBMEJJD@?2_PTS?$AA@ c0049cc0     AcpiSubsystem:hwxfsleep.obj
 0002:0000f2c8       ??_C@_09PGPMCPMO@?2_SI?4_SST?$AA@ c0049cc8     AcpiSubsystem:hwxfsleep.obj
 0002:0000f2d4       ??_C@_0CJ@JOECEDAC@Sleep?5values?5out?5of?5range?3?5A?$DN0x?$CF@ c0049cd4     AcpiSubsystem:hwxfsleep.obj
 0002:0000f300       ??_C@_0L@LNLGAJHO@Width32bit?$AA@ c0049d00     AcpiSubsystem:utresrc.obj
 0002:0000f30c       ??_C@_0L@GCDLGNGN@Width64bit?$AA@ c0049d0c     AcpiSubsystem:utresrc.obj
 0002:0000f318       ??_C@_0M@NKJACHKB@Width128bit?$AA@ c0049d18     AcpiSubsystem:utresrc.obj
 0002:0000f324       ??_C@_0M@EJENLDOF@Width256bit?$AA@ c0049d24     AcpiSubsystem:utresrc.obj
 0002:0000f330       ??_C@_09JNFEIGJE@Interrupt?$AA@ c0049d30     AcpiSubsystem:utresrc.obj
 0002:0000f33c       ??_C@_03HMFHGFED@I?1O?$AA@ c0049d3c     AcpiSubsystem:utresrc.obj
 0002:0000f340       ??_C@_0BO@NCGGAMEE@?1?$CK?5UNKNOWN?5serial?5bus?5type?5?$CK?1?$AA@ c0049d40     AcpiSubsystem:utresrc.obj
 0002:0000f360       ??_C@_03MEBMBKGM@I2C?$AA@  c0049d60     AcpiSubsystem:utresrc.obj
 0002:0000f364       ??_C@_03EKAEFKFD@SPI?$AA@  c0049d64     AcpiSubsystem:utresrc.obj
 0002:0000f368       ??_C@_04FLGJBFIP@UART?$AA@ c0049d68     AcpiSubsystem:utresrc.obj
 0002:0000f370       ??_C@_0BD@EACBDCDK@AddressingMode7Bit?$AA@ c0049d70     AcpiSubsystem:utresrc.obj
 0002:0000f384       ??_C@_0BE@LLJJAMNM@AddressingMode10Bit?$AA@ c0049d84     AcpiSubsystem:utresrc.obj
 0002:0000f398       ??_C@_0BE@MAGIICIO@ControllerInitiated?$AA@ c0049d98     AcpiSubsystem:utresrc.obj
 0002:0000f3ac       ??_C@_0BA@HMMCPAEA@DeviceInitiated?$AA@ c0049dac     AcpiSubsystem:utresrc.obj
 0002:0000f3bc       ??_C@_0N@KEMHOABB@FourWireMode?$AA@ c0049dbc     AcpiSubsystem:utresrc.obj
 0002:0000f3cc       ??_C@_0O@PEAEGONP@ThreeWireMode?$AA@ c0049dcc     AcpiSubsystem:utresrc.obj
 0002:0000f3dc       ??_C@_0BA@LILPFIDL@ClockPhaseFirst?$AA@ c0049ddc     AcpiSubsystem:utresrc.obj
 0002:0000f3ec       ??_C@_0BB@KEPIPLHO@ClockPhaseSecond?$AA@ c0049dec     AcpiSubsystem:utresrc.obj
 0002:0000f400       ??_C@_0BB@LABGLIPM@ClockPolarityLow?$AA@ c0049e00     AcpiSubsystem:utresrc.obj
 0002:0000f414       ??_C@_0BC@NFFCBDEM@ClockPolarityHigh?$AA@ c0049e14     AcpiSubsystem:utresrc.obj
 0002:0000f428       ??_C@_0M@JNKDKGGA@PolarityLow?$AA@ c0049e28     AcpiSubsystem:utresrc.obj
 0002:0000f434       ??_C@_0N@CMMGHJDN@PolarityHigh?$AA@ c0049e34     AcpiSubsystem:utresrc.obj
 0002:0000f444       ??_C@_0N@ENHIKFIG@LittleEndian?$AA@ c0049e44     AcpiSubsystem:utresrc.obj
 0002:0000f454       ??_C@_09BAOOGEIH@BigEndian?$AA@ c0049e54     AcpiSubsystem:utresrc.obj
 0002:0000f460       ??_C@_0N@DNKMKJDO@DataBitsFive?$AA@ c0049e60     AcpiSubsystem:utresrc.obj
 0002:0000f470       ??_C@_0M@LAKAPGJB@DataBitsSix?$AA@ c0049e70     AcpiSubsystem:utresrc.obj
 0002:0000f47c       ??_C@_0O@KMMJIJAC@DataBitsSeven?$AA@ c0049e7c     AcpiSubsystem:utresrc.obj
 0002:0000f48c       ??_C@_0O@OMOGNMPH@DataBitsEight?$AA@ c0049e8c     AcpiSubsystem:utresrc.obj
 0002:0000f49c       ??_C@_0N@BPOJBADH@DataBitsNine?$AA@ c0049e9c     AcpiSubsystem:utresrc.obj
 0002:0000f4ac       ??_C@_0BM@PDDIHMEN@?1?$CK?5UNKNOWN?5Bits?5per?5byte?5?$CK?1?$AA@ c0049eac     AcpiSubsystem:utresrc.obj
 0002:0000f4c8       ??_C@_0N@DHPILPGE@StopBitsZero?$AA@ c0049ec8     AcpiSubsystem:utresrc.obj
 0002:0000f4d8       ??_C@_0M@JDJICEPI@StopBitsOne?$AA@ c0049ed8     AcpiSubsystem:utresrc.obj
 0002:0000f4e4       ??_C@_0BE@CPGMNCHE@StopBitsOnePlusHalf?$AA@ c0049ee4     AcpiSubsystem:utresrc.obj
 0002:0000f4f8       ??_C@_0M@PNJIIEBD@StopBitsTwo?$AA@ c0049ef8     AcpiSubsystem:utresrc.obj
 0002:0000f504       ??_C@_0BA@KAOGDKCB@FlowControlNone?$AA@ c0049f04     AcpiSubsystem:utresrc.obj
 0002:0000f514       ??_C@_0BE@GFKFJOFN@FlowControlHardware?$AA@ c0049f14     AcpiSubsystem:utresrc.obj
 0002:0000f528       ??_C@_0P@JLLKGDG@FlowControlXON?$AA@ c0049f28     AcpiSubsystem:utresrc.obj
 0002:0000f538       ??_C@_0CD@CGEFFKCJ@?1?$CK?5UNKNOWN?5flow?5control?5keyword?5@ c0049f38     AcpiSubsystem:utresrc.obj
 0002:0000f55c       ??_C@_0P@GKCGMKLG@ParityTypeNone?$AA@ c0049f5c     AcpiSubsystem:utresrc.obj
 0002:0000f56c       ??_C@_0P@NPEGNFJI@ParityTypeEven?$AA@ c0049f6c     AcpiSubsystem:utresrc.obj
 0002:0000f57c       ??_C@_0O@OFDELBMI@ParityTypeOdd?$AA@ c0049f7c     AcpiSubsystem:utresrc.obj
 0002:0000f58c       ??_C@_0P@EGOGLAMP@ParityTypeMark?$AA@ c0049f8c     AcpiSubsystem:utresrc.obj
 0002:0000f59c       ??_C@_0BA@DLPENCGD@ParityTypeSpace?$AA@ c0049f9c     AcpiSubsystem:utresrc.obj
 0002:0000f5ac       ??_C@_0BN@MCJFCGBP@?1?$CK?5UNKNOWN?5parity?5keyword?5?$CK?1?$AA@ c0049fac     AcpiSubsystem:utresrc.obj
 0002:0000f614       _AcpiGbl_ResourceAmlSizes  c004a014     AcpiSubsystem:utresrc.obj
 0002:0000f634       _AcpiGbl_ResourceAmlSerialBusSizes c004a034     AcpiSubsystem:utresrc.obj
 0002:0000f640       ??_C@_0N@EODHEGDH@NotBusMaster?$AA@ c004a040     AcpiSubsystem:utresrc.obj
 0002:0000f650       ??_C@_09PBJPCHNA@BusMaster?$AA@ c004a050     AcpiSubsystem:utresrc.obj
 0002:0000f65c       ??_C@_0BH@DDCNODHC@0?5?9?5Good?5Configuration?$AA@ c004a05c     AcpiSubsystem:utresrc.obj
 0002:0000f674       ??_C@_0BN@OFBEDEME@1?5?9?5Acceptable?5Configuration?$AA@ c004a074     AcpiSubsystem:utresrc.obj
 0002:0000f694       ??_C@_0BN@HLEAGCID@2?5?9?5Suboptimal?5Configuration?$AA@ c004a094     AcpiSubsystem:utresrc.obj
 0002:0000f6b4       ??_C@_0CA@OKNNMAG@3?5?9?5?$CK?$CK?$CKInvalid?5Configuration?$CK?$CK?$CK?$AA@ c004a0b4     AcpiSubsystem:utresrc.obj
 0002:0000f6d4       ??_C@_0BB@IOBBNFFA@ResourceProducer?$AA@ c004a0d4     AcpiSubsystem:utresrc.obj
 0002:0000f6e8       ??_C@_0BB@KEJJMBLK@ResourceConsumer?$AA@ c004a0e8     AcpiSubsystem:utresrc.obj
 0002:0000f6fc       ??_C@_09GJKBAJC@PosDecode?$AA@ c004a0fc     AcpiSubsystem:utresrc.obj
 0002:0000f708       ??_C@_09GEFCFCML@SubDecode?$AA@ c004a108     AcpiSubsystem:utresrc.obj
 0002:0000f714       ??_C@_05KOHFLOFG@Level?$AA@ c004a114     AcpiSubsystem:utresrc.obj
 0002:0000f71c       ??_C@_04EIJIPNMI@Edge?$AA@ c004a11c     AcpiSubsystem:utresrc.obj
 0002:0000f724       ??_C@_08NLNKJDJK@Decode10?$AA@ c004a124     AcpiSubsystem:utresrc.obj
 0002:0000f730       ??_C@_08INIADEBM@Decode16?$AA@ c004a130     AcpiSubsystem:utresrc.obj
 0002:0000f73c       ??_C@_0L@MCBFPCPF@ActiveHigh?$AA@ c004a13c     AcpiSubsystem:utresrc.obj
 0002:0000f748       ??_C@_09EAEJECGC@ActiveLow?$AA@ c004a148     AcpiSubsystem:utresrc.obj
 0002:0000f754       ??_C@_0L@LDKOKIKB@ActiveBoth?$AA@ c004a154     AcpiSubsystem:utresrc.obj
 0002:0000f760       ??_C@_0M@PFLLEOPG@MaxNotFixed?$AA@ c004a160     AcpiSubsystem:utresrc.obj
 0002:0000f76c       ??_C@_08FJMIOCDO@MaxFixed?$AA@ c004a16c     AcpiSubsystem:utresrc.obj
 0002:0000f778       ??_C@_0N@DCPLEIF@NonCacheable?$AA@ c004a178     AcpiSubsystem:utresrc.obj
 0002:0000f788       ??_C@_09PANOEJCN@Cacheable?$AA@ c004a188     AcpiSubsystem:utresrc.obj
 0002:0000f794       ??_C@_0P@DPKOBOJC@WriteCombining?$AA@ c004a194     AcpiSubsystem:utresrc.obj
 0002:0000f7a4       ??_C@_0N@MACHJDDH@Prefetchable?$AA@ c004a1a4     AcpiSubsystem:utresrc.obj
 0002:0000f7b4       ??_C@_0M@GFMIFOBM@MinNotFixed?$AA@ c004a1b4     AcpiSubsystem:utresrc.obj
 0002:0000f7c0       ??_C@_08IOCDFAHP@MinFixed?$AA@ c004a1c0     AcpiSubsystem:utresrc.obj
 0002:0000f7cc       ??_C@_0BD@BDGLIFND@AddressRangeMemory?$AA@ c004a1cc     AcpiSubsystem:utresrc.obj
 0002:0000f7e0       ??_C@_0BF@MFCKAMHD@AddressRangeReserved?$AA@ c004a1e0     AcpiSubsystem:utresrc.obj
 0002:0000f7f8       ??_C@_0BB@GBIOPJGJ@AddressRangeACPI?$AA@ c004a1f8     AcpiSubsystem:utresrc.obj
 0002:0000f80c       ??_C@_0BA@IDKFGBOE@AddressRangeNVS?$AA@ c004a20c     AcpiSubsystem:utresrc.obj
 0002:0000f81c       ??_C@_0O@LNDGEJMC@InvalidRanges?$AA@ c004a21c     AcpiSubsystem:utresrc.obj
 0002:0000f82c       ??_C@_0BB@PMDEKMHC@NonISAOnlyRanges?$AA@ c004a22c     AcpiSubsystem:utresrc.obj
 0002:0000f840       ??_C@_0O@OAOEAOEB@ISAOnlyRanges?$AA@ c004a240     AcpiSubsystem:utresrc.obj
 0002:0000f850       ??_C@_0M@HNCOJGIK@EntireRange?$AA@ c004a250     AcpiSubsystem:utresrc.obj
 0002:0000f85c       ??_C@_08NNJHJJDA@ReadOnly?$AA@ c004a25c     AcpiSubsystem:utresrc.obj
 0002:0000f868       ??_C@_09ELBNKBMD@ReadWrite?$AA@ c004a268     AcpiSubsystem:utresrc.obj
 0002:0000f874       ??_C@_09NGKKIOIN@Exclusive?$AA@ c004a274     AcpiSubsystem:utresrc.obj
 0002:0000f880       ??_C@_06LOOAMPBO@Shared?$AA@ c004a280     AcpiSubsystem:utresrc.obj
 0002:0000f888       ??_C@_0BB@MKJBPPB@ExclusiveAndWake?$AA@ c004a288     AcpiSubsystem:utresrc.obj
 0002:0000f89c       ??_C@_0O@PKFMDFJN@SharedAndWake?$AA@ c004a29c     AcpiSubsystem:utresrc.obj
 0002:0000f8ac       ??_C@_09GCMBDHAD@Transfer8?$AA@ c004a2ac     AcpiSubsystem:utresrc.obj
 0002:0000f8b8       ??_C@_0N@EBPJONAP@Transfer8_16?$AA@ c004a2b8     AcpiSubsystem:utresrc.obj
 0002:0000f8c8       ??_C@_0L@BPKGDKHH@Transfer16?$AA@ c004a2c8     AcpiSubsystem:utresrc.obj
 0002:0000f8d4       ??_C@_0M@OJHDOHIP@InvalidSize?$AA@ c004a2d4     AcpiSubsystem:utresrc.obj
 0002:0000f8e0       ??_C@_0BB@BNIGFJDL@DenseTranslation?$AA@ c004a2e0     AcpiSubsystem:utresrc.obj
 0002:0000f8f4       ??_C@_0BC@FCIGGALF@SparseTranslation?$AA@ c004a2f4     AcpiSubsystem:utresrc.obj
 0002:0000f908       ??_C@_0L@PFLMDOON@TypeStatic?$AA@ c004a308     AcpiSubsystem:utresrc.obj
 0002:0000f914       ??_C@_0BA@OKOOMABE@TypeTranslation?$AA@ c004a314     AcpiSubsystem:utresrc.obj
 0002:0000f924       ??_C@_0O@KKDFABMD@Compatibility?$AA@ c004a324     AcpiSubsystem:utresrc.obj
 0002:0000f934       ??_C@_05OBKBEBBA@TypeA?$AA@ c004a334     AcpiSubsystem:utresrc.obj
 0002:0000f93c       ??_C@_05MKIMBCND@TypeB?$AA@ c004a33c     AcpiSubsystem:utresrc.obj
 0002:0000f944       ??_C@_05KOOANHNH@TypeF?$AA@ c004a344     AcpiSubsystem:utresrc.obj
 0002:0000f94c       ??_C@_0M@BOHBMIJE@PullDefault?$AA@ c004a34c     AcpiSubsystem:utresrc.obj
 0002:0000f958       ??_C@_06HCNDBCBO@PullUp?$AA@ c004a358     AcpiSubsystem:utresrc.obj
 0002:0000f960       ??_C@_08NIMCPNED@PullDown?$AA@ c004a360     AcpiSubsystem:utresrc.obj
 0002:0000f96c       ??_C@_08GCHBKENG@PullNone?$AA@ c004a36c     AcpiSubsystem:utresrc.obj
 0002:0000f978       ??_C@_0BC@JHJIKBHI@IoRestrictionNone?$AA@ c004a378     AcpiSubsystem:utresrc.obj
 0002:0000f98c       ??_C@_0BH@CEOEGAJC@IoRestrictionInputOnly?$AA@ c004a38c     AcpiSubsystem:utresrc.obj
 0002:0000f9a4       ??_C@_0BI@EGKAGIPN@IoRestrictionOutputOnly?$AA@ c004a3a4     AcpiSubsystem:utresrc.obj
 0002:0000f9bc       ??_C@_0BN@DHBGLNKA@IoRestrictionNoneAndPreserve?$AA@ c004a3bc     AcpiSubsystem:utresrc.obj
 0002:0000f9dc       ??_C@_09BDHHGKJL@Width8bit?$AA@ c004a3dc     AcpiSubsystem:utresrc.obj
 0002:0000f9e8       ??_C@_0L@FPOAOLF@Width16bit?$AA@ c004a3e8     AcpiSubsystem:utresrc.obj
 0002:0000f9f8       ??_C@_0ED@JNDBAKCD@Invalid?1unsupported?5SerialBus?5re@ c004a3f8     AcpiSubsystem:utresrc.obj
 0002:0000fa3c       ??_C@_0DG@JOJJFHIF@Invalid?1unsupported?5resource?5des@ c004a43c     AcpiSubsystem:utresrc.obj
 0002:0000fa78       ??_C@_0FE@DFBDBKNE@Invalid?5resource?5descriptor?5leng@ c004a478     AcpiSubsystem:utresrc.obj
 0002:0000fb38       ??_C@_0BA@PJABIPFJ@AmlBuffer?5?$DN?5?$CFp?6?$AA@ c004a538     AcpiSubsystem:rscreate.obj
 0002:0000fb48       ??_C@_0BN@JLMKHAJI@Status?$DN?$CFX?5ListSizeNeeded?$DN?$CFX?6?$AA@ c004a548     AcpiSubsystem:rscreate.obj
 0002:0000fb68       ??_C@_0BL@JOKGPAKB@OutputBuffer?5?$CFp?5Length?5?$CFX?6?$AA@ c004a568     AcpiSubsystem:rscreate.obj
 0002:0000fb84       ??_C@_0BH@DMLCPJL@BufferSizeNeeded?5?$DN?5?$CFX?6?$AA@ c004a584     AcpiSubsystem:rscreate.obj
 0002:0000fb9c       ??_C@_0DE@MDMAJIDA@?$CIPRT?$FL?$CFu?$FN?$CJ?5Need?5package?5of?5length@ c004a59c     AcpiSubsystem:rscreate.obj
 0002:0000fbd0       ??_C@_0CJ@FOEPDJID@?$CIPRT?$FL?$CFu?$FN?4Address?$CJ?5Need?5Integer?0?5@ c004a5d0     AcpiSubsystem:rscreate.obj
 0002:0000fbfc       ??_C@_0CF@DANBMKAN@?$CIPRT?$FL?$CFu?$FN?4Pin?$CJ?5Need?5Integer?0?5foun@ c004a5fc     AcpiSubsystem:rscreate.obj
 0002:0000fc24       ??_C@_0DH@NDONNMN@?$CIPRT?$FL?$CFu?$FN?4Source?$CJ?5Need?5name?0?5foun@ c004a624     AcpiSubsystem:rscreate.obj
 0002:0000fc5c       ??_C@_0DD@PFDOFEEG@?$CIPRT?$FL?$CFu?$FN?4Source?$CJ?5Need?5Ref?1String@ c004a65c     AcpiSubsystem:rscreate.obj
 0002:0000fc90       ??_C@_0CN@HEPNOPFL@?$CIPRT?$FL?$CFu?$FN?4SourceIndex?$CJ?5Need?5Integ@ c004a690     AcpiSubsystem:rscreate.obj
 0002:0000fcc0       ??_C@_0BK@DIDPJHIJ@ResourceList?5Buffer?5?$DN?5?$CFp?6?$AA@ c004a6c0     AcpiSubsystem:rscreate.obj
 0002:0000fcdc       ??_C@_0BG@FABGKHLO@AmlSizeNeeded?$DN?$CFX?0?5?$CFs?6?$AA@ c004a6dc     AcpiSubsystem:rscreate.obj
 0002:0000fcfc       ??_C@_08DJNDMKCD@?6?$FL?$CF02X?$FN?5?$AA@ c004a6fc     AcpiSubsystem:rsdump.obj
 0002:0000fd08       ??_C@_0CP@LPOBAJEM@Invalid?5descriptor?5type?5?$CI?$CFX?$CJ?5in?5@ c004a708     AcpiSubsystem:rsdump.obj
 0002:0000fd38       ??_C@_0DB@HAAEANAN@Invalid?5zero?5length?5descriptor?5i@ c004a738     AcpiSubsystem:rsdump.obj
 0002:0000fd6c       ??_C@_0CH@CPMEOHCL@?6?$FL?$CF02X?$FN?5PCI?5IRQ?5Routing?5Table?5Pa@ c004a76c     AcpiSubsystem:rsdump.obj
 0002:0000fd94       ??_C@_0N@DKDLDDNI@?$CFs?5Resource?6?$AA@ c004a794     AcpiSubsystem:rsdump.obj
 0002:0000fda4       ??_C@_0BG@DPPPCLNC@Resource?5Source?5Index?$AA@ c004a7a4     AcpiSubsystem:rsdump.obj
 0002:0000fdbc       ??_C@_0BA@FJGMCINJ@?$FLNot?5Specified?$FN?$AA@ c004a7bc     AcpiSubsystem:rsdump.obj
 0002:0000fdcc       ??_C@_0BA@BEPMJMLO@Resource?5Source?$AA@ c004a7cc     AcpiSubsystem:rsdump.obj
 0002:0000fddc       ??_C@_0BB@CJADGHBC@Bus?5Number?5Range?$AA@ c004a7dc     AcpiSubsystem:rsdump.obj
 0002:0000fdf0       ??_C@_0O@LCKJMELD@Resource?5Type?$AA@ c004a7f0     AcpiSubsystem:rsdump.obj
 0002:0000fe00       ??_C@_09JBNFIDIK@?$CF27s?5?3?5?$CFs?$AA@ c004a800     AcpiSubsystem:rsdump.obj
 0002:0000fe0c       ??_C@_0BC@CAALENIK@?$FLNULL?5NAMESTRING?$FN?$AA@ c004a80c     AcpiSubsystem:rsdump.obj
 0002:0000fe20       ??_C@_0O@GCEHIOAK@?$CF27s?5?3?5?$CF2?42X?6?$AA@ c004a820     AcpiSubsystem:rsdump.obj
 0002:0000fe30       ??_C@_0O@JBHFDCML@?$CF27s?5?3?5?$CF4?44X?6?$AA@ c004a830     AcpiSubsystem:rsdump.obj
 0002:0000fe40       ??_C@_0O@KMGBENAI@?$CF27s?5?3?5?$CF8?48X?6?$AA@ c004a840     AcpiSubsystem:rsdump.obj
 0002:0000fe50       ??_C@_0BD@BAFLIDMP@?$CF27s?5?3?5?$CF8?48X?$CF8?48X?6?$AA@ c004a850     AcpiSubsystem:rsdump.obj
 0002:0000fe64       ??_C@_07KPPALOAP@?$CF27s?5?3?5?$AA@ c004a864     AcpiSubsystem:rsdump.obj
 0002:0000fe6c       ??_C@_04EGKLLDLD@Byte?$AA@ c004a86c     AcpiSubsystem:rsdump.obj
 0002:0000fe74       ??_C@_0BD@JHKHHMFM@?$CF25s?$CF2?42X?5?3?5?$CF2?42X?6?$AA@ c004a874     AcpiSubsystem:rsdump.obj
 0002:0000fe88       ??_C@_05KEKHNPDB@Dword?$AA@ c004a888     AcpiSubsystem:rsdump.obj
 0002:0000fe90       ??_C@_0BD@FJIBLPFO@?$CF25s?$CF2?42X?5?3?5?$CF8?48X?6?$AA@ c004a890     AcpiSubsystem:rsdump.obj
 0002:0000fea4       ??_C@_04IGEPOOPB@Word?$AA@ c004a8a4     AcpiSubsystem:rsdump.obj
 0002:0000feac       ??_C@_0BD@GEJFMAJN@?$CF25s?$CF2?42X?5?3?5?$CF4?44X?6?$AA@ c004a8ac     AcpiSubsystem:rsdump.obj
 0002:0000fedc       ??_C@_0CH@OGPENEBG@Unhandled?5deferred?5AML?5opcode?5?$FL0@ c004a8dc     AcpiSubsystem:dmdeferred.obj
 0002:0000ff04       ??_C@_0CE@EDBPGJMF@Parsing?5deferred?5opcode?5?$CFs?5?$FL?$CF4?44@ c004a904     AcpiSubsystem:dmdeferred.obj
 0002:0000ff34       ??_C@_0CO@OPPEOFOM@Converted?5_PLD?5buffer?5does?5not?5c@ c004a934     AcpiSubsystem:dbconvert.obj
 0002:0000ff64       ??_C@_0N@OJKNCHMC@?$CF20s?5?3?5?$CF?96X?6?$AA@ c004a964     AcpiSubsystem:dbconvert.obj
 0002:0000ff78       _AcpiGbl_AmlOpInfo         c004a978     AcpiSubsystem:psopcode.obj
 0002:00010828       ??_C@_04PCJGBDOP@Zero?$AA@ c004b228     AcpiSubsystem:psopcode.obj
 0002:00010830       ??_C@_03EHAPBBEA@One?$AA@  c004b230     AcpiSubsystem:psopcode.obj
 0002:00010834       ??_C@_09HPBNLLCH@ByteConst?$AA@ c004b234     AcpiSubsystem:psopcode.obj
 0002:00010840       ??_C@_09BFIMIED@WordConst?$AA@ c004b240     AcpiSubsystem:psopcode.obj
 0002:0001084c       ??_C@_0L@KAJJHIGE@DwordConst?$AA@ c004b24c     AcpiSubsystem:psopcode.obj
 0002:00010858       ??_C@_06NLBJBLEP@Local0?$AA@ c004b258     AcpiSubsystem:psopcode.obj
 0002:00010860       ??_C@_06MCACCKAO@Local1?$AA@ c004b260     AcpiSubsystem:psopcode.obj
 0002:00010868       ??_C@_06OJCPHJMN@Local2?$AA@ c004b268     AcpiSubsystem:psopcode.obj
 0002:00010870       ??_C@_06PADEEIIM@Local3?$AA@ c004b270     AcpiSubsystem:psopcode.obj
 0002:00010878       ??_C@_06LPHFNOEL@Local4?$AA@ c004b278     AcpiSubsystem:psopcode.obj
 0002:00010880       ??_C@_06KGGOOPAK@Local5?$AA@ c004b280     AcpiSubsystem:psopcode.obj
 0002:00010888       ??_C@_06INEDLMMJ@Local6?$AA@ c004b288     AcpiSubsystem:psopcode.obj
 0002:00010890       ??_C@_06JEFIINII@Local7?$AA@ c004b290     AcpiSubsystem:psopcode.obj
 0002:00010898       ??_C@_04PKGPKFK@Arg0?$AA@  c004b298     AcpiSubsystem:psopcode.obj
 0002:000108a0       ??_C@_04BGLNMLBL@Arg1?$AA@ c004b2a0     AcpiSubsystem:psopcode.obj
 0002:000108a8       ??_C@_04DNJAJINI@Arg2?$AA@ c004b2a8     AcpiSubsystem:psopcode.obj
 0002:000108b0       ??_C@_04CEILKJJJ@Arg3?$AA@ c004b2b0     AcpiSubsystem:psopcode.obj
 0002:000108b8       ??_C@_04GLMKDPFO@Arg4?$AA@ c004b2b8     AcpiSubsystem:psopcode.obj
 0002:000108c0       ??_C@_04HCNBAOBP@Arg5?$AA@ c004b2c0     AcpiSubsystem:psopcode.obj
 0002:000108c8       ??_C@_04FJPMFNNM@Arg6?$AA@ c004b2c8     AcpiSubsystem:psopcode.obj
 0002:000108d0       ??_C@_05OEMPKGID@Store?$AA@ c004b2d0     AcpiSubsystem:psopcode.obj
 0002:000108d8       ??_C@_03LDFMNCOE@Add?$AA@  c004b2d8     AcpiSubsystem:psopcode.obj
 0002:000108dc       ??_C@_0M@BIIOHLBM@Concatenate?$AA@ c004b2dc     AcpiSubsystem:psopcode.obj
 0002:000108e8       ??_C@_08DLEJPBEP@Subtract?$AA@ c004b2e8     AcpiSubsystem:psopcode.obj
 0002:000108f4       ??_C@_09PDJBPHHD@Increment?$AA@ c004b2f4     AcpiSubsystem:psopcode.obj
 0002:00010900       ??_C@_09IEDKOCBO@Decrement?$AA@ c004b300     AcpiSubsystem:psopcode.obj
 0002:0001090c       ??_C@_08EOBDLMOI@Multiply?$AA@ c004b30c     AcpiSubsystem:psopcode.obj
 0002:00010918       ??_C@_06JKMEHOIB@Divide?$AA@ c004b318     AcpiSubsystem:psopcode.obj
 0002:00010920       ??_C@_09IIGOLNPP@ShiftLeft?$AA@ c004b320     AcpiSubsystem:psopcode.obj
 0002:0001092c       ??_C@_0L@DHHFIOFJ@ShiftRight?$AA@ c004b32c     AcpiSubsystem:psopcode.obj
 0002:00010938       ??_C@_03LOMLFHDC@And?$AA@  c004b338     AcpiSubsystem:psopcode.obj
 0002:0001093c       ??_C@_04LOGOJJBL@NAnd?$AA@ c004b33c     AcpiSubsystem:psopcode.obj
 0002:00010944       ??_C@_02GGHBPHGE@Or?$AA@   c004b344     AcpiSubsystem:psopcode.obj
 0002:00010948       ??_C@_03MDLPNOGE@NOr?$AA@  c004b348     AcpiSubsystem:psopcode.obj
 0002:0001094c       ??_C@_03LGMNNGCH@XOr?$AA@  c004b34c     AcpiSubsystem:psopcode.obj
 0002:00010950       ??_C@_0P@ODBIGOM@FindSetLeftBit?$AA@ c004b350     AcpiSubsystem:psopcode.obj
 0002:00010960       ??_C@_0BA@EOIDDDOF@FindSetRightBit?$AA@ c004b360     AcpiSubsystem:psopcode.obj
 0002:00010970       ??_C@_07KPJAHFDH@DerefOf?$AA@ c004b370     AcpiSubsystem:psopcode.obj
 0002:00010978       ??_C@_06KIKOHELK@SizeOf?$AA@ c004b378     AcpiSubsystem:psopcode.obj
 0002:00010980       ??_C@_05FKEBLKAO@Match?$AA@ c004b380     AcpiSubsystem:psopcode.obj
 0002:00010988       ??_C@_0BB@OEFFBONM@CreateDWordField?$AA@ c004b388     AcpiSubsystem:psopcode.obj
 0002:0001099c       ??_C@_0BA@CPOFLFDF@CreateWordField?$AA@ c004b39c     AcpiSubsystem:psopcode.obj
 0002:000109ac       ??_C@_0BA@FBKAMGFB@CreateByteField?$AA@ c004b3ac     AcpiSubsystem:psopcode.obj
 0002:000109bc       ??_C@_0P@HNFDOCJ@CreateBitField?$AA@ c004b3bc     AcpiSubsystem:psopcode.obj
 0002:000109cc       ??_C@_0L@OIKOLKJC@ObjectType?$AA@ c004b3cc     AcpiSubsystem:psopcode.obj
 0002:000109d8       ??_C@_04MEKOMKHL@LAnd?$AA@ c004b3d8     AcpiSubsystem:psopcode.obj
 0002:000109e0       ??_C@_03GJLGBGOP@LOr?$AA@  c004b3e0     AcpiSubsystem:psopcode.obj
 0002:000109e4       ??_C@_04NHMNKCEL@LNot?$AA@ c004b3e4     AcpiSubsystem:psopcode.obj
 0002:000109ec       ??_C@_06KGKDLIDO@LEqual?$AA@ c004b3ec     AcpiSubsystem:psopcode.obj
 0002:000109f4       ??_C@_08DCNMPENE@LGreater?$AA@ c004b3f4     AcpiSubsystem:psopcode.obj
 0002:00010a00       ??_C@_05PFPJNKAO@LLess?$AA@ c004b400     AcpiSubsystem:psopcode.obj
 0002:00010a08       ??_C@_02EMFCFMID@If?$AA@   c004b408     AcpiSubsystem:psopcode.obj
 0002:00010a0c       ??_C@_04JGADNOIL@Else?$AA@ c004b40c     AcpiSubsystem:psopcode.obj
 0002:00010a14       ??_C@_05OJJNEPLA@While?$AA@ c004b414     AcpiSubsystem:psopcode.obj
 0002:00010a1c       ??_C@_04NBOPPMHE@Noop?$AA@ c004b41c     AcpiSubsystem:psopcode.obj
 0002:00010a24       ??_C@_06HCFIKKEA@Return?$AA@ c004b424     AcpiSubsystem:psopcode.obj
 0002:00010a2c       ??_C@_05EMFLFCNO@Break?$AA@ c004b42c     AcpiSubsystem:psopcode.obj
 0002:00010a34       ??_C@_0L@DDDMMNHD@BreakPoint?$AA@ c004b434     AcpiSubsystem:psopcode.obj
 0002:00010a40       ??_C@_04HCIJGELE@Ones?$AA@ c004b440     AcpiSubsystem:psopcode.obj
 0002:00010a48       ??_C@_09BGACEAOC@CondRefOf?$AA@ c004b448     AcpiSubsystem:psopcode.obj
 0002:00010a54       ??_C@_0M@OJFMHGMC@CreateField?$AA@ c004b454     AcpiSubsystem:psopcode.obj
 0002:00010a60       ??_C@_04IPBPFFEL@Load?$AA@ c004b460     AcpiSubsystem:psopcode.obj
 0002:00010a68       ??_C@_05MDGKOEID@Stall?$AA@ c004b468     AcpiSubsystem:psopcode.obj
 0002:00010a70       ??_C@_05PFDOMJEF@Sleep?$AA@ c004b470     AcpiSubsystem:psopcode.obj
 0002:00010a78       ??_C@_07DNCJJOBD@Acquire?$AA@ c004b478     AcpiSubsystem:psopcode.obj
 0002:00010a80       ??_C@_06CPODCDOI@Signal?$AA@ c004b480     AcpiSubsystem:psopcode.obj
 0002:00010a88       ??_C@_04DMCBMHAC@Wait?$AA@ c004b488     AcpiSubsystem:psopcode.obj
 0002:00010a90       ??_C@_05CCGMLFNG@Reset?$AA@ c004b490     AcpiSubsystem:psopcode.obj
 0002:00010a98       ??_C@_07LHBDFJPO@Release?$AA@ c004b498     AcpiSubsystem:psopcode.obj
 0002:00010aa0       ??_C@_07EBAMANKD@FromBCD?$AA@ c004b4a0     AcpiSubsystem:psopcode.obj
 0002:00010aa8       ??_C@_05BFJENNAP@ToBCD?$AA@ c004b4a8     AcpiSubsystem:psopcode.obj
 0002:00010ab0       ??_C@_06FGIDPKBG@Unload?$AA@ c004b4b0     AcpiSubsystem:psopcode.obj
 0002:00010ab8       ??_C@_08DNLDHPFP@Revision?$AA@ c004b4b8     AcpiSubsystem:psopcode.obj
 0002:00010ac4       ??_C@_05FHGOFLKH@Fatal?$AA@ c004b4c4     AcpiSubsystem:psopcode.obj
 0002:00010acc       ??_C@_0BA@MIKFLKIK@OperationRegion?$AA@ c004b4cc     AcpiSubsystem:psopcode.obj
 0002:00010adc       ??_C@_05EPLKDJMH@Field?$AA@ c004b4dc     AcpiSubsystem:psopcode.obj
 0002:00010ae4       ??_C@_0O@OBLDBIEP@PowerResource?$AA@ c004b4e4     AcpiSubsystem:psopcode.obj
 0002:00010af4       ??_C@_0M@OKOHHPBE@ThermalZone?$AA@ c004b4f4     AcpiSubsystem:psopcode.obj
 0002:00010b00       ??_C@_0L@KKBEFJKJ@?9NamePath?9?$AA@ c004b500     AcpiSubsystem:psopcode.obj
 0002:00010b0c       ??_C@_0N@NIDEMEAC@?9MethodCall?9?$AA@ c004b50c     AcpiSubsystem:psopcode.obj
 0002:00010b1c       ??_C@_0L@IELJIMC@?9ByteList?9?$AA@ c004b51c     AcpiSubsystem:psopcode.obj
 0002:00010b28       ??_C@_0BA@MMCFNBDI@?9ReservedField?9?$AA@ c004b528     AcpiSubsystem:psopcode.obj
 0002:00010b38       ??_C@_0N@GNGLMNMO@?9NamedField?9?$AA@ c004b538     AcpiSubsystem:psopcode.obj
 0002:00010b48       ??_C@_0O@DJPCLJEH@?9AccessField?9?$AA@ c004b548     AcpiSubsystem:psopcode.obj
 0002:00010b58       ??_C@_0O@CIMNDPKD@?9StaticString?$AA@ c004b558     AcpiSubsystem:psopcode.obj
 0002:00010b68       ??_C@_0P@FDLEGGLM@?9Return?5Value?9?$AA@ c004b568     AcpiSubsystem:psopcode.obj
 0002:00010b78       ??_C@_0N@ECAKKBIL@?9UNKNOWN_OP?9?$AA@ c004b578     AcpiSubsystem:psopcode.obj
 0002:00010b88       ??_C@_0N@CBPIGNOP@?9ASCII_ONLY?9?$AA@ c004b588     AcpiSubsystem:psopcode.obj
 0002:00010b98       ??_C@_0O@BDIMINKG@?9PREFIX_ONLY?9?$AA@ c004b598     AcpiSubsystem:psopcode.obj
 0002:00010ba8       ??_C@_0L@HPDIBAON@QwordConst?$AA@ c004b5a8     AcpiSubsystem:psopcode.obj
 0002:00010bb4       ??_C@_0BH@IFONNCFH@ConcatenateResTemplate?$AA@ c004b5b4     AcpiSubsystem:psopcode.obj
 0002:00010bcc       ??_C@_03PFNPICLN@Mod?$AA@  c004b5cc     AcpiSubsystem:psopcode.obj
 0002:00010bd0       ??_C@_0BB@DLPEHGFF@CreateQWordField?$AA@ c004b5d0     AcpiSubsystem:psopcode.obj
 0002:00010be4       ??_C@_08OMNCIJJD@ToBuffer?$AA@ c004b5e4     AcpiSubsystem:psopcode.obj
 0002:00010bf0       ??_C@_0BA@OBAELCJH@ToDecimalString?$AA@ c004b5f0     AcpiSubsystem:psopcode.obj
 0002:00010c00       ??_C@_0M@LDBAJPBG@ToHexString?$AA@ c004b600     AcpiSubsystem:psopcode.obj
 0002:00010c0c       ??_C@_09PGIOHLFP@ToInteger?$AA@ c004b60c     AcpiSubsystem:psopcode.obj
 0002:00010c18       ??_C@_08BAMEOFKN@ToString?$AA@ c004b618     AcpiSubsystem:psopcode.obj
 0002:00010c24       ??_C@_0L@JBEFCNPJ@CopyObject?$AA@ c004b624     AcpiSubsystem:psopcode.obj
 0002:00010c30       ??_C@_03PBFCPOAP@Mid?$AA@  c004b630     AcpiSubsystem:psopcode.obj
 0002:00010c34       ??_C@_08LJHDLOLO@Continue?$AA@ c004b634     AcpiSubsystem:psopcode.obj
 0002:00010c40       ??_C@_09IDLEHADD@LoadTable?$AA@ c004b640     AcpiSubsystem:psopcode.obj
 0002:00010c4c       ??_C@_0BA@FCLLDAGH@DataTableRegion?$AA@ c004b64c     AcpiSubsystem:psopcode.obj
 0002:00010c5c       ??_C@_0O@JNJJLGME@?$FLEvalSubTree?$FN?$AA@ c004b65c     AcpiSubsystem:psopcode.obj
 0002:00010c6c       ??_C@_05NHFJDMOA@Timer?$AA@ c004b66c     AcpiSubsystem:psopcode.obj
 0002:00010c74       ??_C@_0P@LGLBBFJI@?9ConnectField?9?$AA@ c004b674     AcpiSubsystem:psopcode.obj
 0002:00010c84       ??_C@_0BB@JBEKJMP@?9ExtAccessField?9?$AA@ c004b684     AcpiSubsystem:psopcode.obj
 0002:00010c98       ??_C@_08GKOOPLMO@External?$AA@ c004b698     AcpiSubsystem:psopcode.obj
 0002:00010cb0       _AslDeviceIds              c004b6b0     AcpiSubsystem:ahids.obj
 0002:00011170       ??_C@_08HKCLKFJF@10EC5640?$AA@ c004bb70     AcpiSubsystem:ahids.obj
 0002:0001117c       ??_C@_0BI@DCOACFJG@Realtek?5I2S?5Audio?5Codec?$AA@ c004bb7c     AcpiSubsystem:ahids.obj
 0002:00011194       ??_C@_08HFMMACCO@80860F09?$AA@ c004bb94     AcpiSubsystem:ahids.obj
 0002:000111a0       ??_C@_0BF@KENLPBJO@Intel?5PWM?5Controller?$AA@ c004bba0     AcpiSubsystem:ahids.obj
 0002:000111b8       ??_C@_08JCCKPBNA@80860F0A?$AA@ c004bbb8     AcpiSubsystem:ahids.obj
 0002:000111c4       ??_C@_0BL@NMCJOMCL@Intel?5Atom?5UART?5Controller?$AA@ c004bbc4     AcpiSubsystem:ahids.obj
 0002:000111e0       ??_C@_08PGEGDENE@80860F0E?$AA@ c004bbe0     AcpiSubsystem:ahids.obj
 0002:000111ec       ??_C@_0BF@BANCFLLB@Intel?5SPI?5Controller?$AA@ c004bbec     AcpiSubsystem:ahids.obj
 0002:00011204       ??_C@_08MBKABGFE@80860F14?$AA@ c004bc04     AcpiSubsystem:ahids.obj
 0002:00011210       ??_C@_0CI@EMKCNGGA@Intel?5Baytrail?5SDIO?1MMC?5Host?5Con@ c004bc10     AcpiSubsystem:ahids.obj
 0002:00011238       ??_C@_08GPFDOHAB@80860F28?$AA@ c004bc38     AcpiSubsystem:ahids.obj
 0002:00011244       ??_C@_0BE@LOOOLLFF@Intel?5SST?5Audio?5DSP?$AA@ c004bc44     AcpiSubsystem:ahids.obj
 0002:00011258       ??_C@_08LKBMCAPK@80860F41?$AA@ c004bc58     AcpiSubsystem:ahids.obj
 0002:00011264       ??_C@_0CD@KGBEPOKE@Intel?5Baytrail?5I2C?5Host?5Controll@ c004bc64     AcpiSubsystem:ahids.obj
 0002:00011288       ??_C@_08MPLDCJAN@ACPI0001?$AA@ c004bc88     AcpiSubsystem:ahids.obj
 0002:00011294       ??_C@_0BK@MCBLEEBM@SMBus?51?40?5Host?5Controller?$AA@ c004bc94     AcpiSubsystem:ahids.obj
 0002:000112b0       ??_C@_08OEJOHKMO@ACPI0002?$AA@ c004bcb0     AcpiSubsystem:ahids.obj
 0002:000112bc       ??_C@_0BI@JBKFIMCE@Smart?5Battery?5Subsystem?$AA@ c004bcbc     AcpiSubsystem:ahids.obj
 0002:000112d4       ??_C@_08PNIFELIP@ACPI0003?$AA@ c004bcd4     AcpiSubsystem:ahids.obj
 0002:000112e0       ??_C@_0BE@EFMPIDDC@Power?5Source?5Device?$AA@ c004bce0     AcpiSubsystem:ahids.obj
 0002:000112f4       ??_C@_08LCMENNEI@ACPI0004?$AA@ c004bcf4     AcpiSubsystem:ahids.obj
 0002:00011300       ??_C@_08KLNPOMAJ@ACPI0005?$AA@ c004bd00     AcpiSubsystem:ahids.obj
 0002:0001130c       ??_C@_0BK@GNLCAJNG@SMBus?52?40?5Host?5Controller?$AA@ c004bd0c     AcpiSubsystem:ahids.obj
 0002:00011328       ??_C@_08IAPCLPMK@ACPI0006?$AA@ c004bd28     AcpiSubsystem:ahids.obj
 0002:00011334       ??_C@_08JJOJIOIL@ACPI0007?$AA@ c004bd34     AcpiSubsystem:ahids.obj
 0002:00011340       ??_C@_08BOHBJCEE@ACPI0008?$AA@ c004bd40     AcpiSubsystem:ahids.obj
 0002:0001134c       ??_C@_0BM@MGDPGGJE@Ambient?5Light?5Sensor?5Device?$AA@ c004bd4c     AcpiSubsystem:ahids.obj
 0002:00011368       ??_C@_08HGKKDAF@ACPI0009?$AA@ c004bd68     AcpiSubsystem:ahids.obj
 0002:00011374       ??_C@_0BB@FLBEDEG@I?1O?5xAPIC?5Device?$AA@ c004bd74     AcpiSubsystem:ahids.obj
 0002:00011388       ??_C@_08OAIMFAPL@ACPI000A?$AA@ c004bd88     AcpiSubsystem:ahids.obj
 0002:00011394       ??_C@_0BA@LNDLGGME@I?1O?5APIC?5Device?$AA@ c004bd94     AcpiSubsystem:ahids.obj
 0002:000113a4       ??_C@_08MLKBADDI@ACPI000B?$AA@ c004bda4     AcpiSubsystem:ahids.obj
 0002:000113b0       ??_C@_0BB@FBAGLHBA@I?1O?5SAPIC?5Device?$AA@ c004bdb0     AcpiSubsystem:ahids.obj
 0002:000113c4       ??_C@_08NCLKDCHJ@ACPI000C?$AA@ c004bdc4     AcpiSubsystem:ahids.obj
 0002:000113d0       ??_C@_08JNPLKELO@ACPI000D?$AA@ c004bdd0     AcpiSubsystem:ahids.obj
 0002:000113dc       ??_C@_0BD@JABFHJLF@Power?5Meter?5Device?$AA@ c004bddc     AcpiSubsystem:ahids.obj
 0002:000113f0       ??_C@_08IEOAJFPP@ACPI000E?$AA@ c004bdf0     AcpiSubsystem:ahids.obj
 0002:000113fc       ??_C@_0BG@DIFJEJMG@Time?5and?5Alarm?5Device?$AA@ c004bdfc     AcpiSubsystem:ahids.obj
 0002:00011414       ??_C@_08KPMNMGDM@ACPI000F?$AA@ c004be14     AcpiSubsystem:ahids.obj
 0002:00011420       ??_C@_0BP@KJKELAGN@User?5Presence?5Detection?5Device?$AA@ c004be20     AcpiSubsystem:ahids.obj
 0002:00011440       ??_C@_08LDDOMPBA@ADMA0F28?$AA@ c004be40     AcpiSubsystem:ahids.obj
 0002:0001144c       ??_C@_0BA@DICBJKBA@Intel?5Audio?5DMA?$AA@ c004be4c     AcpiSubsystem:ahids.obj
 0002:0001145c       ??_C@_08HJAMNPFD@AMCR0F28?$AA@ c004be5c     AcpiSubsystem:ahids.obj
 0002:00011468       ??_C@_0BL@KDLKCHLB@Intel?5Audio?5Machine?5Driver?$AA@ c004be68     AcpiSubsystem:ahids.obj
 0002:00011484       ??_C@_07ILFDNBCL@ATK4001?$AA@ c004be84     AcpiSubsystem:ahids.obj
 0002:0001148c       ??_C@_0BK@EDAKBAEK@Asus?5Radio?5Control?5Button?$AA@ c004be8c     AcpiSubsystem:ahids.obj
 0002:000114a8       ??_C@_08MLHCGFHD@ATML1000?$AA@ c004bea8     AcpiSubsystem:ahids.obj
 0002:000114b4       ??_C@_0BN@OMEPJPNI@Atmel?5Touchscreen?5Controller?$AA@ c004beb4     AcpiSubsystem:ahids.obj
 0002:000114d4       ??_C@_08LCLDHOGE@AUTH2750?$AA@ c004bed4     AcpiSubsystem:ahids.obj
 0002:000114e0       ??_C@_0BC@LDJACLMH@AuthenTec?5AES2750?$AA@ c004bee0     AcpiSubsystem:ahids.obj
 0002:000114f4       ??_C@_07GIMCAGMK@BCM2E39?$AA@ c004bef4     AcpiSubsystem:ahids.obj
 0002:000114fc       ??_C@_0DH@KKCAJFMD@Broadcom?5BT?5Serial?5Bus?5Driver?5ov@ c004befc     AcpiSubsystem:ahids.obj
 0002:00011534       ??_C@_08IKKCLCGH@BCM4752E?$AA@ c004bf34     AcpiSubsystem:ahids.obj
 0002:00011540       ??_C@_0BI@BBEGIDCE@Broadcom?5GPS?5Controller?$AA@ c004bf40     AcpiSubsystem:ahids.obj
 0002:00011558       ??_C@_07NAPCEDPI@BMG0160?$AA@ c004bf58     AcpiSubsystem:ahids.obj
 0002:00011560       ??_C@_0BC@DJEHMKGK@Bosch?5Gyro?5Sensor?$AA@ c004bf60     AcpiSubsystem:ahids.obj
 0002:00011574       ??_C@_08BFDHOAMK@CPLM3218?$AA@ c004bf74     AcpiSubsystem:ahids.obj
 0002:00011580       ??_C@_0CL@DIELNO@Capella?5Micro?5CM3218x?5Ambient?5Li@ c004bf80     AcpiSubsystem:ahids.obj
 0002:000115ac       ??_C@_08KLJIMJFP@DELLABCE?$AA@ c004bfac     AcpiSubsystem:ahids.obj
 0002:000115b8       ??_C@_0CB@IFOHLOBF@Dell?5Airplane?5Mode?5Switch?5Driver@ c004bfb8     AcpiSubsystem:ahids.obj
 0002:000115dc       ??_C@_08FALLODOB@DLAC3002?$AA@ c004bfdc     AcpiSubsystem:ahids.obj
 0002:000115e8       ??_C@_0CK@BBCAIAND@Qualcomm?5Atheros?5Bluetooth?5UART?5@ c004bfe8     AcpiSubsystem:ahids.obj
 0002:00011614       ??_C@_08FCMAGCMF@FTTH5506?$AA@ c004c014     AcpiSubsystem:ahids.obj
 0002:00011620       ??_C@_0CA@JCJMGDCK@FocalTech?55506?5Touch?5Controller?$AA@ c004c020     AcpiSubsystem:ahids.obj
 0002:00011640       ??_C@_07DJDOPNBL@HAD0F28?$AA@ c004c040     AcpiSubsystem:ahids.obj
 0002:00011648       ??_C@_0BI@IBIKOPBI@Intel?5HDMI?5Audio?5Driver?$AA@ c004c048     AcpiSubsystem:ahids.obj
 0002:00011660       ??_C@_08KHKPABAE@INBC0000?$AA@ c004c060     AcpiSubsystem:ahids.obj
 0002:0001166c       ??_C@_0O@KBLOPEJO@GPIO?5Expander?$AA@ c004c06c     AcpiSubsystem:ahids.obj
 0002:0001167c       ??_C@_07LHDFEMFD@INT0002?$AA@ c004c07c     AcpiSubsystem:ahids.obj
 0002:00011684       ??_C@_0BI@EEBGCEOF@Virtual?5GPIO?5Controller?$AA@ c004c084     AcpiSubsystem:ahids.obj
 0002:0001169c       ??_C@_07EALHAGDO@INT0800?$AA@ c004c09c     AcpiSubsystem:ahids.obj
 0002:000116a4       ??_C@_0CA@BFALGHEL@Intel?582802?5Firmware?5Hub?5Device?$AA@ c004c0a4     AcpiSubsystem:ahids.obj
 0002:000116c4       ??_C@_07LLKLAFGE@INT3394?$AA@ c004c0c4     AcpiSubsystem:ahids.obj
 0002:000116cc       ??_C@_0BA@OHPDIMPD@ACPI?5System?5Fan?$AA@ c004c0cc     AcpiSubsystem:ahids.obj
 0002:000116dc       ??_C@_07IJJNGHOG@INT3396?$AA@ c004c0dc     AcpiSubsystem:ahids.obj
 0002:000116e4       ??_C@_0CF@BLAKBIPK@Standard?5Power?5Management?5Contro@ c004c0e4     AcpiSubsystem:ahids.obj
 0002:0001170c       ??_C@_07IFCFPJII@INT33A0?$AA@ c004c10c     AcpiSubsystem:ahids.obj
 0002:00011714       ??_C@_0CG@BKGDGCKH@Intel?5Smart?5Connect?5Technology?5D@ c004c114     AcpiSubsystem:ahids.obj
 0002:0001173c       ??_C@_07JMDOMIMJ@INT33A1?$AA@ c004c13c     AcpiSubsystem:ahids.obj
 0002:00011744       ??_C@_0BD@FBNLCLOP@Intel?5Power?5Engine?$AA@ c004c144     AcpiSubsystem:ahids.obj
 0002:00011758       ??_C@_07JKGKFMKF@INT33BB?$AA@ c004c158     AcpiSubsystem:ahids.obj
 0002:00011760       ??_C@_0CC@DPHMPFNL@Intel?5Baytrail?5SD?5Host?5Controlle@ c004c160     AcpiSubsystem:ahids.obj
 0002:00011784       ??_C@_07MMDAPLCD@INT33BD?$AA@ c004c184     AcpiSubsystem:ahids.obj
 0002:0001178c       ??_C@_0BO@HHKDFDHM@Intel?5Baytrail?5Mailbox?5Device?$AA@ c004c18c     AcpiSubsystem:ahids.obj
 0002:000117ac       ??_C@_07NFCLMKGC@INT33BE?$AA@ c004c1ac     AcpiSubsystem:ahids.obj
 0002:000117b4       ??_C@_0BF@GJILPOHM@Camera?5Sensor?5OV5693?$AA@ c004c1b4     AcpiSubsystem:ahids.obj
 0002:000117cc       ??_C@_07IGKBCNOG@INT33C0?$AA@ c004c1cc     AcpiSubsystem:ahids.obj
 0002:000117d4       ??_C@_0CF@HJHCJCCA@Intel?5Serial?5I?1O?5SPI?5Host?5Contro@ c004c1d4     AcpiSubsystem:ahids.obj
 0002:000117fc       ??_C@_07JPLKBMKH@INT33C1?$AA@ c004c1fc     AcpiSubsystem:ahids.obj
 0002:00011804       ??_C@_07LEJHEPGE@INT33C2?$AA@ c004c204     AcpiSubsystem:ahids.obj
 0002:0001180c       ??_C@_0CF@MDBMMAHJ@Intel?5Serial?5I?1O?5I2C?5Host?5Contro@ c004c20c     AcpiSubsystem:ahids.obj
 0002:00011834       ??_C@_07KNIMHOCF@INT33C3?$AA@ c004c234     AcpiSubsystem:ahids.obj
 0002:0001183c       ??_C@_07OCMNOIOC@INT33C4?$AA@ c004c23c     AcpiSubsystem:ahids.obj
 0002:00011844       ??_C@_0CG@NLFIBJJG@Intel?5Serial?5I?1O?5UART?5Host?5Contr@ c004c244     AcpiSubsystem:ahids.obj
 0002:0001186c       ??_C@_07PLNGNJKD@INT33C5?$AA@ c004c26c     AcpiSubsystem:ahids.obj
 0002:00011874       ??_C@_07NAPLIKGA@INT33C6?$AA@ c004c274     AcpiSubsystem:ahids.obj
 0002:0001187c       ??_C@_0BJ@CNJMGLGP@Intel?5SD?5Host?5Controller?$AA@ c004c27c     AcpiSubsystem:ahids.obj
 0002:00011898       ??_C@_07MJOALLCB@INT33C7?$AA@ c004c298     AcpiSubsystem:ahids.obj
 0002:000118a0       ??_C@_0CG@JLBIBFDE@Intel?5Serial?5I?1O?5GPIO?5Host?5Contr@ c004c2a0     AcpiSubsystem:ahids.obj
 0002:000118c8       ??_C@_07EOHIKHOO@INT33C8?$AA@ c004c2c8     AcpiSubsystem:ahids.obj
 0002:000118d0       ??_C@_0CN@KAHFBPHJ@Intel?5Smart?5Sound?5Technology?5Hos@ c004c2d0     AcpiSubsystem:ahids.obj
 0002:00011900       ??_C@_07FHGDJGKP@INT33C9?$AA@ c004c300     AcpiSubsystem:ahids.obj
 0002:00011908       ??_C@_0CG@EDIGABHN@Wolfson?5Microelectronics?5Audio?5W@ c004c308     AcpiSubsystem:ahids.obj
 0002:00011930       ??_C@_07LAIFGFFB@INT33CA?$AA@ c004c330     AcpiSubsystem:ahids.obj
 0002:00011938       ??_C@_0BF@JOGDLHMB@Intel?5SPB?5Peripheral?$AA@ c004c338     AcpiSubsystem:ahids.obj
 0002:00011950       ??_C@_07JLKIDGJC@INT33CB?$AA@ c004c350     AcpiSubsystem:ahids.obj
 0002:00011958       ??_C@_0CJ@NGAJNIDJ@Intel?5Smart?5Sound?5Technology?5Aud@ c004c358     AcpiSubsystem:ahids.obj
 0002:00011984       ??_C@_07JKPFAKCC@INT33D1?$AA@ c004c384     AcpiSubsystem:ahids.obj
 0002:0001198c       ??_C@_0BD@GIGJMNL@Intel?5GPIO?5Buttons?$AA@ c004c38c     AcpiSubsystem:ahids.obj
 0002:000119a0       ??_C@_07LBNIFJOB@INT33D2?$AA@ c004c3a0     AcpiSubsystem:ahids.obj
 0002:000119a8       ??_C@_07KIMDGIKA@INT33D3?$AA@ c004c3a8     AcpiSubsystem:ahids.obj
 0002:000119b0       ??_C@_07OHICPOGH@INT33D4?$AA@ c004c3b0     AcpiSubsystem:ahids.obj
 0002:000119b8       ??_C@_07NFLEJMOF@INT33D6?$AA@ c004c3b8     AcpiSubsystem:ahids.obj
 0002:000119c0       ??_C@_0BN@IJEJAJHF@Intel?5Virtual?5Buttons?5Device?$AA@ c004c3c0     AcpiSubsystem:ahids.obj
 0002:000119e0       ??_C@_07IAGKOPAN@INT33F0?$AA@ c004c3e0     AcpiSubsystem:ahids.obj
 0002:000119e8       ??_C@_0BG@ILKLOGO@Camera?5Sensor?5MT9M114?$AA@ c004c3e8     AcpiSubsystem:ahids.obj
 0002:00011a00       ??_C@_07OEAGCKAJ@INT33F4?$AA@ c004c400     AcpiSubsystem:ahids.obj
 0002:00011a08       ??_C@_0BH@IMAIKDDI@XPOWER?5PMIC?5Controller?$AA@ c004c408     AcpiSubsystem:ahids.obj
 0002:00011a20       ??_C@_07PNBNBLEI@INT33F5?$AA@ c004c420     AcpiSubsystem:ahids.obj
 0002:00011a28       ??_C@_0BD@NIECAAJE@TI?5PMIC?5Controller?$AA@ c004c428     AcpiSubsystem:ahids.obj
 0002:00011a3c       ??_C@_07JNGDPEHJ@INT33FB?$AA@ c004c43c     AcpiSubsystem:ahids.obj
 0002:00011a44       ??_C@_0BO@JHGJLLKH@MIPI?9CSI?5Camera?5Sensor?5OV2722?$AA@ c004c444     AcpiSubsystem:ahids.obj
 0002:00011a64       ??_C@_07IEHIMFDI@INT33FC?$AA@ c004c464     AcpiSubsystem:ahids.obj
 0002:00011a6c       ??_C@_0BP@BGOAFBPF@Intel?5Baytrail?5GPIO?5Controller?$AA@ c004c46c     AcpiSubsystem:ahids.obj
 0002:00011a8c       ??_C@_07MLDJFDPP@INT33FD?$AA@ c004c48c     AcpiSubsystem:ahids.obj
 0002:00011a94       ??_C@_0CD@LOLOFCCI@Intel?5Baytrail?5Power?5Management?5@ c004c494     AcpiSubsystem:ahids.obj
 0002:00011ab8       ??_C@_07NCCCGCLO@INT33FE?$AA@ c004c4b8     AcpiSubsystem:ahids.obj
 0002:00011ac0       ??_C@_0BG@GKGECMLN@XPOWER?5Battery?5Device?$AA@ c004c4c0     AcpiSubsystem:ahids.obj
 0002:00011ad8       ??_C@_07ENMBMDFG@INT3400?$AA@ c004c4d8     AcpiSubsystem:ahids.obj
 0002:00011ae0       ??_C@_0CL@DFEKGEMJ@Intel?5Dynamic?5Power?5Performance?5@ c004c4e0     AcpiSubsystem:ahids.obj
 0002:00011b0c       ??_C@_07FENKPCBH@INT3401?$AA@ c004c50c     AcpiSubsystem:ahids.obj
 0002:00011b14       ??_C@_0CB@OMHEPCLK@Intel?5Extended?5Thermal?5Model?5CPU@ c004c514     AcpiSubsystem:ahids.obj
 0002:00011b38       ??_C@_07GGOMJAJF@INT3403?$AA@ c004c538     AcpiSubsystem:ahids.obj
 0002:00011b40       ??_C@_0BI@GNJOBMAM@DPTF?5Temperature?5Sensor?$AA@ c004c540     AcpiSubsystem:ahids.obj
 0002:00011b58       ??_C@_07BLJLGENA@INT3406?$AA@ c004c558     AcpiSubsystem:ahids.obj
 0002:00011b60       ??_C@_0DP@FLAAFFOE@Intel?5Dynamic?5Platform?5?$CG?5Thermal@ c004c560     AcpiSubsystem:ahids.obj
 0002:00011ba0       ??_C@_07CIAFFJB@INT3407?$AA@ c004c5a0     AcpiSubsystem:ahids.obj
 0002:00011ba8       ??_C@_0BK@PMILPJEL@DPTF?5Platform?5Power?5Meter?$AA@ c004c5a8     AcpiSubsystem:ahids.obj
 0002:00011bc4       ??_C@_07BPIJEOOF@INT340E?$AA@ c004c5c4     AcpiSubsystem:ahids.obj
 0002:00011bcc       ??_C@_0BG@JBGEKGEB@Motherboard?5Resources?$AA@ c004c5cc     AcpiSubsystem:ahids.obj
 0002:00011be4       ??_C@_07EOEFBHDI@INT3420?$AA@ c004c5e4     AcpiSubsystem:ahids.obj
 0002:00011bec       ??_C@_0BI@JFMPGOJN@Intel?5Bluetooth?5RF?5Kill?$AA@ c004c5ec     AcpiSubsystem:ahids.obj
 0002:00011c04       ??_C@_07MHKEBHLD@INT3F0D?$AA@ c004c604     AcpiSubsystem:ahids.obj
 0002:00011c0c       ??_C@_0BL@ENLOGMLO@ACPI?5Motherboard?5Resources?$AA@ c004c60c     AcpiSubsystem:ahids.obj
 0002:00011c28       ??_C@_07ECMDGJAO@INTCF1A?$AA@ c004c628     AcpiSubsystem:ahids.obj
 0002:00011c30       ??_C@_0BK@OEGBHIEG@Sony?5IMX175?5Camera?5Sensor?$AA@ c004c630     AcpiSubsystem:ahids.obj
 0002:00011c4c       ??_C@_07PHBPDAEL@INTCFD9?$AA@ c004c64c     AcpiSubsystem:ahids.obj
 0002:00011c54       ??_C@_0CD@NBLGANGD@Intel?5Baytrail?5SOC?5GPIO?5Controll@ c004c654     AcpiSubsystem:ahids.obj
 0002:00011c78       ??_C@_08CCOAALJE@INTL9C60?$AA@ c004c678     AcpiSubsystem:ahids.obj
 0002:00011c84       ??_C@_0CC@IEKMEPJP@Intel?5Baytrail?5SOC?5DMA?5Controlle@ c004c684     AcpiSubsystem:ahids.obj
 0002:00011ca8       ??_C@_08DADOKPJF@INVN6500?$AA@ c004c6a8     AcpiSubsystem:ahids.obj
 0002:00011cb4       ??_C@_0DJ@BCNGPNIK@InvenSense?5MPU?96500?5Six?5Axis?5Gyr@ c004c6b4     AcpiSubsystem:ahids.obj
 0002:00011cf0       ??_C@_06PONIKAOI@LNXCPU?$AA@ c004c6f0     AcpiSubsystem:ahids.obj
 0002:00011cf8       ??_C@_0BC@LAKONDKB@Linux?5Logical?5CPU?$AA@ c004c6f8     AcpiSubsystem:ahids.obj
 0002:00011d0c       ??_C@_08HDFGOMME@LNXPOWER?$AA@ c004c70c     AcpiSubsystem:ahids.obj
 0002:00011d18       ??_C@_0CD@PLJDKOCA@ACPI?5Power?5Resource?5?$CIpower?5gatin@ c004c718     AcpiSubsystem:ahids.obj
 0002:00011d3c       ??_C@_08PHCAILGN@LNXPWRBN?$AA@ c004c73c     AcpiSubsystem:ahids.obj
 0002:00011d48       ??_C@_0BE@GEBHCHML@System?5Power?5Button?$AA@ c004c748     AcpiSubsystem:ahids.obj
 0002:00011d5c       ??_C@_08HIJIMJNE@LNXSYBUS?$AA@ c004c75c     AcpiSubsystem:ahids.obj
 0002:00011d68       ??_C@_0L@FFFMHLOE@System?5Bus?$AA@ c004c768     AcpiSubsystem:ahids.obj
 0002:00011d74       ??_C@_08EFLOKMMG@LNXSYSTM?$AA@ c004c774     AcpiSubsystem:ahids.obj
 0002:00011d80       ??_C@_0P@LPIBBNBK@ACPI?5Root?5Node?$AA@ c004c780     AcpiSubsystem:ahids.obj
 0002:00011d90       ??_C@_08HEMEFGLN@LNXTHERM?$AA@ c004c790     AcpiSubsystem:ahids.obj
 0002:00011d9c       ??_C@_0BC@PPPDJAKF@ACPI?5Thermal?5Zone?$AA@ c004c79c     AcpiSubsystem:ahids.obj
 0002:00011db0       ??_C@_08JHIPGOBE@LNXVIDEO?$AA@ c004c7b0     AcpiSubsystem:ahids.obj
 0002:00011dbc       ??_C@_0BG@MJGEIAPJ@ACPI?5Video?5Controller?$AA@ c004c7bc     AcpiSubsystem:ahids.obj
 0002:00011dd4       ??_C@_08FMEPMPOF@MAX17047?$AA@ c004c7d4     AcpiSubsystem:ahids.obj
 0002:00011de0       ??_C@_0BG@IKFOHHIJ@Fuel?5Gauge?5Controller?$AA@ c004c7e0     AcpiSubsystem:ahids.obj
 0002:00011df8       ??_C@_08FGMGDEOG@MSFT0101?$AA@ c004c7f8     AcpiSubsystem:ahids.obj
 0002:00011e04       ??_C@_0BI@OMJJLCNA@TPM?52?40?5Security?5Device?$AA@ c004c804     AcpiSubsystem:ahids.obj
 0002:00011e1c       ??_C@_07GCOEBOFD@NXP5442?$AA@ c004c81c     AcpiSubsystem:ahids.obj
 0002:00011e24       ??_C@_0CO@IABHPJHP@NXP?55442?5Near?5Field?5Communicatio@ c004c824     AcpiSubsystem:ahids.obj
 0002:00011e54       ??_C@_07GAKCKAAK@NXP5472?$AA@ c004c854     AcpiSubsystem:ahids.obj
 0002:00011e5c       ??_C@_07KPDHLCNA@NXP?5NFC?$AA@ c004c85c     AcpiSubsystem:ahids.obj
 0002:00011e64       ??_C@_07HNGGEGMH@PNP0000?$AA@ c004c864     AcpiSubsystem:ahids.obj
 0002:00011e6c       ??_C@_0DC@BNNPDEOD@8259?9compatible?5Programmable?5Int@ c004c86c     AcpiSubsystem:ahids.obj
 0002:00011ea0       ??_C@_07GEHNHHIG@PNP0001?$AA@ c004c8a0     AcpiSubsystem:ahids.obj
 0002:00011ea8       ??_C@_0BK@OMMJDBKM@EISA?5Interrupt?5Controller?$AA@ c004c8a8     AcpiSubsystem:ahids.obj
 0002:00011ec4       ??_C@_07EPFACEEF@PNP0002?$AA@ c004c8c4     AcpiSubsystem:ahids.obj
 0002:00011ecc       ??_C@_0BJ@CHGPODLN@MCA?5Interrupt?5Controller?$AA@ c004c8cc     AcpiSubsystem:ahids.obj
 0002:00011ee8       ??_C@_07FGELBFAE@PNP0003?$AA@ c004c8e8     AcpiSubsystem:ahids.obj
 0002:00011ef0       ??_C@_0BN@IEKMCKFK@IO?9APIC?5Interrupt?5Controller?$AA@ c004c8f0     AcpiSubsystem:ahids.obj
 0002:00011f10       ??_C@_07MFNKCBKC@PNP0100?$AA@ c004c910     AcpiSubsystem:ahids.obj
 0002:00011f18       ??_C@_0BG@GCHPJLCC@PC?9class?5System?5Timer?$AA@ c004c918     AcpiSubsystem:ahids.obj
 0002:00011f30       ??_C@_07OOPHHCGB@PNP0103?$AA@ c004c930     AcpiSubsystem:ahids.obj
 0002:00011f38       ??_C@_0BC@HMILBLFJ@HPET?5System?5Timer?$AA@ c004c938     AcpiSubsystem:ahids.obj
 0002:00011f4c       ??_C@_07NHGPIOEM@PNP0200?$AA@ c004c94c     AcpiSubsystem:ahids.obj
 0002:00011f54       ??_C@_0BI@LGAGBKEJ@PC?9class?5DMA?5Controller?$AA@ c004c954     AcpiSubsystem:ahids.obj
 0002:00011f6c       ??_C@_07GPNDOJCJ@PNP0300?$AA@ c004c96c     AcpiSubsystem:ahids.obj
 0002:00011f74       ??_C@_0CH@LCCGEFBD@IBM?5PC?1XT?5Keyboard?5Controller?5?$CI8@ c004c974     AcpiSubsystem:ahids.obj
 0002:00011f9c       ??_C@_07HGMINIGI@PNP0301?$AA@ c004c99c     AcpiSubsystem:ahids.obj
 0002:00011fa4       ??_C@_0CH@OABOGKLE@IBM?5PC?1XT?5Keyboard?5Controller?5?$CI8@ c004c9a4     AcpiSubsystem:ahids.obj
 0002:00011fcc       ??_C@_07FNOFILKL@PNP0302?$AA@ c004c9cc     AcpiSubsystem:ahids.obj
 0002:00011fd4       ??_C@_0CH@HHIBHLJN@IBM?5PC?1XT?5Keyboard?5Controller?5?$CI8@ c004c9d4     AcpiSubsystem:ahids.obj
 0002:00011ffc       ??_C@_07EEPOLKOK@PNP0303?$AA@ c004c9fc     AcpiSubsystem:ahids.obj
 0002:00012004       ??_C@_0DA@KCMPNCAI@IBM?5Enhanced?5Keyboard?5?$CI101?1102?9k@ c004ca04     AcpiSubsystem:ahids.obj
 0002:00012034       ??_C@_07PCAENBJA@PNP0400?$AA@ c004ca34     AcpiSubsystem:ahids.obj
 0002:0001203c       ??_C@_0BL@JMJFCAMJ@Standard?5LPT?5Parallel?5Port?$AA@ c004ca3c     AcpiSubsystem:ahids.obj
 0002:00012058       ??_C@_07OLBPOANB@PNP0401?$AA@ c004ca58     AcpiSubsystem:ahids.obj
 0002:00012060       ??_C@_0BC@MANLEEAO@ECP?5Parallel?5Port?$AA@ c004ca60     AcpiSubsystem:ahids.obj
 0002:00012074       ??_C@_07EKLILGPF@PNP0500?$AA@ c004ca74     AcpiSubsystem:ahids.obj
 0002:0001207c       ??_C@_0BM@MNEOBBOO@Standard?5PC?5COM?5Serial?5Port?$AA@ c004ca7c     AcpiSubsystem:ahids.obj
 0002:00012098       ??_C@_07FDKDIHLE@PNP0501?$AA@ c004ca98     AcpiSubsystem:ahids.obj
 0002:000120a0       ??_C@_0CC@JANOAGBF@16550A?9compatible?5COM?5Serial?5Por@ c004caa0     AcpiSubsystem:ahids.obj
 0002:000120c4       ??_C@_07ELHKNMMC@PNP0510?$AA@ c004cac4     AcpiSubsystem:ahids.obj
 0002:000120cc       ??_C@_0BP@GACLOANC@Generic?5IRDA?9compatible?5Device?$AA@ c004cacc     AcpiSubsystem:ahids.obj
 0002:000120ec       ??_C@_07LINCGOCI@PNP0800?$AA@ c004caec     AcpiSubsystem:ahids.obj
 0002:000120f4       ??_C@_0CJ@LJCKCDAA@Microsoft?5Sound?5System?5Compatibl@ c004caf4     AcpiSubsystem:ahids.obj
 0002:00012120       ??_C@_07DELLNICM@PCI?5Bus?$AA@ c004cb20     AcpiSubsystem:ahids.obj
 0002:00012128       ??_C@_07NDJCHFHL@PNP0A05?$AA@ c004cb28     AcpiSubsystem:ahids.obj
 0002:00012130       ??_C@_0BJ@CFLPFKOE@Generic?5Container?5Device?$AA@ c004cb30     AcpiSubsystem:ahids.obj
 0002:0001214c       ??_C@_07PILPCGLI@PNP0A06?$AA@ c004cb4c     AcpiSubsystem:ahids.obj
 0002:00012154       ??_C@_0BA@PGPOBHCJ@PCI?5Express?5Bus?$AA@ c004cb54     AcpiSubsystem:ahids.obj
 0002:00012164       ??_C@_07LMFACONA@PNP0B00?$AA@ c004cb64     AcpiSubsystem:ahids.obj
 0002:0001216c       ??_C@_0BD@FGKBOAIF@AT?5Real?9Time?5Clock?$AA@ c004cb6c     AcpiSubsystem:ahids.obj
 0002:00012180       ??_C@_07KFELBPJB@PNP0B01?$AA@ c004cb80     AcpiSubsystem:ahids.obj
 0002:00012188       ??_C@_0CH@DGIPJCPO@Intel?5PIIX4?9compatible?5RTC?1CMOS?5@ c004cb88     AcpiSubsystem:ahids.obj
 0002:000121b0       ??_C@_07IOGGEMFC@PNP0B02?$AA@ c004cbb0     AcpiSubsystem:ahids.obj
 0002:000121b8       ??_C@_0DA@GHGMNOJI@Dallas?5Semiconductor?9compatible?5@ c004cbb8     AcpiSubsystem:ahids.obj
 0002:000121e8       ??_C@_07BNPHHIPE@PNP0C01?$AA@ c004cbe8     AcpiSubsystem:ahids.obj
 0002:000121f0       ??_C@_0N@HLGBMJKK@System?5Board?$AA@ c004cbf0     AcpiSubsystem:ahids.obj
 0002:00012200       ??_C@_07DGNKCLDH@PNP0C02?$AA@ c004cc00     AcpiSubsystem:ahids.obj
 0002:00012208       ??_C@_0BK@FPIGHIDA@PNP?5Motherboard?5Resources?$AA@ c004cc08     AcpiSubsystem:ahids.obj
 0002:00012224       ??_C@_07GAIAIMLB@PNP0C04?$AA@ c004cc24     AcpiSubsystem:ahids.obj
 0002:0001222c       ??_C@_0CO@GPGFBND@x87?9compatible?5Floating?5Point?5Pr@ c004cc2c     AcpiSubsystem:ahids.obj
 0002:0001225c       ??_C@_07MMDFMDLN@PNP0C08?$AA@ c004cc5c     AcpiSubsystem:ahids.obj
 0002:00012264       ??_C@_0BD@HKDLDEEA@ACPI?5Core?5Hardware?$AA@ c004cc64     AcpiSubsystem:ahids.obj
 0002:00012278       ??_C@_07NFCOPCPM@PNP0C09?$AA@ c004cc78     AcpiSubsystem:ahids.obj
 0002:00012280       ??_C@_0BL@DPMADKJG@Embedded?5Controller?5Device?$AA@ c004cc80     AcpiSubsystem:ahids.obj
 0002:0001229c       ??_C@_07DCMIABAC@PNP0C0A?$AA@ c004cc9c     AcpiSubsystem:ahids.obj
 0002:000122a4       ??_C@_0BH@DBFPFLPI@Control?5Method?5Battery?$AA@ c004cca4     AcpiSubsystem:ahids.obj
 0002:000122bc       ??_C@_07BJOFFCMB@PNP0C0B?$AA@ c004ccbc     AcpiSubsystem:ahids.obj
 0002:000122c4       ??_C@_0BH@JIJIENLK@Fan?5?$CIThermal?5Solution?$CJ?$AA@ c004ccc4     AcpiSubsystem:ahids.obj
 0002:000122dc       ??_C@_07POGDIA@PNP0C0C?$AA@ c004ccdc     AcpiSubsystem:ahids.obj
 0002:000122e4       ??_C@_0BE@NLFDGGKL@Power?5Button?5Device?$AA@ c004cce4     AcpiSubsystem:ahids.obj
 0002:000122f8       ??_C@_07EPLPPFEH@PNP0C0D?$AA@ c004ccf8     AcpiSubsystem:ahids.obj
 0002:00012300       ??_C@_0L@BHPLNAIB@Lid?5Device?$AA@ c004cd00     AcpiSubsystem:ahids.obj
 0002:0001230c       ??_C@_07FGKEMEAG@PNP0C0E?$AA@ c004cd0c     AcpiSubsystem:ahids.obj
 0002:00012314       ??_C@_0BE@HLHLLPDA@Sleep?5Button?5Device?$AA@ c004cd14     AcpiSubsystem:ahids.obj
 0002:00012328       ??_C@_07HNIJJHMF@PNP0C0F?$AA@ c004cd28     AcpiSubsystem:ahids.obj
 0002:00012330       ??_C@_0BK@CEAOKMFI@PCI?5Interrupt?5Link?5Device?$AA@ c004cd30     AcpiSubsystem:ahids.obj
 0002:0001234c       ??_C@_07FCOCDIC@PNP0C10?$AA@ c004cd4c     AcpiSubsystem:ahids.obj
 0002:00012354       ??_C@_0BI@CBNPLKEP@System?5Indicator?5Device?$AA@ c004cd54     AcpiSubsystem:ahids.obj
 0002:0001236c       ??_C@_07BMDFBCMD@PNP0C11?$AA@ c004cd6c     AcpiSubsystem:ahids.obj
 0002:00012374       ??_C@_0N@HFCLDNDF@Thermal?5Zone?$AA@ c004cd74     AcpiSubsystem:ahids.obj
 0002:00012384       ??_C@_07DHBIEBAA@PNP0C12?$AA@ c004cd84     AcpiSubsystem:ahids.obj
 0002:0001238c       ??_C@_0BG@DFFEFFLI@Device?5Bay?5Controller?$AA@ c004cd8c     AcpiSubsystem:ahids.obj
 0002:000123a4       ??_C@_07GBECOGIG@PNP0C14?$AA@ c004cda4     AcpiSubsystem:ahids.obj
 0002:000123ac       ??_C@_0CK@OABDNIEK@Windows?5Management?5Instrumentati@ c004cdac     AcpiSubsystem:ahids.obj
 0002:000123d8       ??_C@_07HIFJNHMH@PNP0C15?$AA@ c004cdd8     AcpiSubsystem:ahids.obj
 0002:000123e0       ??_C@_0BA@BCAHNJPL@Docking?5Station?$AA@ c004cde0     AcpiSubsystem:ahids.obj
 0002:000123f0       ??_C@_07DOFOBGJ@PNP0C40?$AA@ c004cdf0     AcpiSubsystem:ahids.obj
 0002:000123f8       ??_C@_0BL@BNIFNEOI@Standard?5Button?5Controller?$AA@ c004cdf8     AcpiSubsystem:ahids.obj
 0002:00012414       ??_C@_07CCHILFO@PNP0C50?$AA@ c004ce14     AcpiSubsystem:ahids.obj
 0002:0001241c       ??_C@_0BO@PILGHBCB@HID?5Protocol?5Device?5?$CII2C?5bus?$CJ?$AA@ c004ce1c     AcpiSubsystem:ahids.obj
 0002:0001243c       ??_C@_07GBDFAH@PNP0C60?$AA@ c004ce3c     AcpiSubsystem:ahids.obj
 0002:00012444       ??_C@_0BG@OGDEFHHK@Display?5Sensor?5Device?$AA@ c004ce44     AcpiSubsystem:ahids.obj
 0002:0001245c       ??_C@_07BKDFPDA@PNP0C70?$AA@ c004ce5c     AcpiSubsystem:ahids.obj
 0002:00012464       ??_C@_0BD@DIADHNKF@Dock?5Sensor?5Device?$AA@ c004ce64     AcpiSubsystem:ahids.obj
 0002:00012478       ??_C@_07KPPBIAN@PNP0C80?$AA@ c004ce78     AcpiSubsystem:ahids.obj
 0002:00012480       ??_C@_0O@GDBKKNEE@Memory?5Device?$AA@ c004ce80     AcpiSubsystem:ahids.obj
 0002:00012490       ??_C@_07JIPJBLDL@PNP0D10?$AA@ c004ce90     AcpiSubsystem:ahids.obj
 0002:00012498       ??_C@_0BP@EHDECEKL@XHCI?5USB?5Controller?5with?5debug?$AA@ c004ce98     AcpiSubsystem:ahids.obj
 0002:000124b8       ??_C@_07OFIOOPHO@PNP0D15?$AA@ c004ceb8     AcpiSubsystem:ahids.obj
 0002:000124c0       ??_C@_0CC@OJBNBCCC@XHCI?5USB?5Controller?5without?5debu@ c004cec0     AcpiSubsystem:ahids.obj
 0002:000124e4       ??_C@_07JKLPKFGC@PNP0D20?$AA@ c004cee4     AcpiSubsystem:ahids.obj
 0002:000124ec       ??_C@_0CC@IFEDJBJO@EHCI?5USB?5Controller?5without?5debu@ c004ceec     AcpiSubsystem:ahids.obj
 0002:00012510       ??_C@_07OHMIFBCH@PNP0D25?$AA@ c004cf10     AcpiSubsystem:ahids.obj
 0002:00012518       ??_C@_0BP@OLANKEKG@EHCI?5USB?5Controller?5with?5debug?$AA@ c004cf18     AcpiSubsystem:ahids.obj
 0002:00012538       ??_C@_07JODCNJNA@PNP0D40?$AA@ c004cf38     AcpiSubsystem:ahids.obj
 0002:00012540       ??_C@_0CK@DGLALCHI@SDA?5Standard?5Compliant?5SD?5Host?5C@ c004cf40     AcpiSubsystem:ahids.obj
 0002:0001256c       ??_C@_07JHCICALE@PNP0D80?$AA@ c004cf6c     AcpiSubsystem:ahids.obj
 0002:00012574       ??_C@_0DG@JKPPCMNB@Windows?9compatible?5System?5Power?5@ c004cf74     AcpiSubsystem:ahids.obj
 0002:000125ac       ??_C@_07BIBPOKEE@PNP0F03?$AA@ c004cfac     AcpiSubsystem:ahids.obj
 0002:000125b4       ??_C@_0BL@FBKHCBNK@Microsoft?5PS?12?9style?5Mouse?$AA@ c004cfb4     AcpiSubsystem:ahids.obj
 0002:000125d0       ??_C@_07BJNNIAHD@PNP0F13?$AA@ c004cfd0     AcpiSubsystem:ahids.obj
 0002:000125d8       ??_C@_0L@FBIAGOPJ@PS?12?5Mouse?$AA@ c004cfd8     AcpiSubsystem:ahids.obj
 0002:000125e4       ??_C@_07NPHLEAP@RTL8723?$AA@ c004cfe4     AcpiSubsystem:ahids.obj
 0002:000125ec       ??_C@_0BM@OPLHPPDM@Realtek?5Wireless?5Controller?$AA@ c004cfec     AcpiSubsystem:ahids.obj
 0002:00012608       ??_C@_07EIGBEEFC@SMB0349?$AA@ c004d008     AcpiSubsystem:ahids.obj
 0002:00012610       ??_C@_07DAMIFFEP@Charger?$AA@ c004d010     AcpiSubsystem:ahids.obj
 0002:00012618       ??_C@_07NGNFCOGP@SMO91D0?$AA@ c004d018     AcpiSubsystem:ahids.obj
 0002:00012620       ??_C@_0L@FFBAJKMJ@Sensor?5Hub?$AA@ c004d020     AcpiSubsystem:ahids.obj
 0002:0001262c       ??_C@_08NNLNJPA@SMSC3750?$AA@ c004d02c     AcpiSubsystem:ahids.obj
 0002:00012638       ??_C@_0BC@MKDLJKKH@SMSC?53750?5USB?5MUX?$AA@ c004d038     AcpiSubsystem:ahids.obj
 0002:0001264c       ??_C@_08OAKPJCKO@SSPX0000?$AA@ c004d04c     AcpiSubsystem:ahids.obj
 0002:00012658       ??_C@_0BB@KJIEFPCB@Intel?5SSP?5Device?$AA@ c004d058     AcpiSubsystem:ahids.obj
 0002:0001266c       ??_C@_08DNMFBLBI@TBQ24296?$AA@ c004d06c     AcpiSubsystem:ahids.obj
 0002:00012680       ??_C@_0BO@NCDCLMJM@0x?$CF2?42X?0?5?5?5?5?5?5?5?5?5?5?5?5?5?5?5?1?1?5?$CFs?6?$AA@ c004d080     AcpiSubsystem:dmresrc.obj
 0002:000126a0       ??_C@_0BM@FFGPNIPL@0x?$CF4?44X?0?5?5?5?5?5?5?5?5?5?5?5?5?5?1?1?5?$CFs?6?$AA@ c004d0a0     AcpiSubsystem:dmresrc.obj
 0002:000126bc       ??_C@_0BI@JIOFNNOK@0x?$CF8?48X?0?5?5?5?5?5?5?5?5?5?1?1?5?$CFs?6?$AA@ c004d0bc     AcpiSubsystem:dmresrc.obj
 0002:000126d4       ??_C@_0BF@JFPGOGDN@0x?$CF8?48X?$CF8?48X?0?5?1?1?5?$CFs?6?$AA@ c004d0d4     AcpiSubsystem:dmresrc.obj
 0002:000126ec       ??_C@_01HCONENDN@?$HL?$AA@ c004d0ec     AcpiSubsystem:dmresrc.obj
 0002:000126f0       ??_C@_02GMHACPFF@?$CFu?$AA@ c004d0f0     AcpiSubsystem:dmresrc.obj
 0002:000126f4       ??_C@_02KGHIDFGE@?$HN?6?$AA@ c004d0f4     AcpiSubsystem:dmresrc.obj
 0002:000126f8       ??_C@_0DE@GBICGDPO@?1?$CK?$CK?$CK?5Could?5not?5validate?5Resource@ c004d0f8     AcpiSubsystem:dmresrc.obj
 0002:0001272c       ??_C@_0DM@NMFIFHKL@?1?$CK?$CK?$CK?5Disassembler?3?5inserted?5miss@ c004d12c     AcpiSubsystem:dmresrc.obj
 0002:00012768       ??_C@_0BK@CCMKEFJN@NULL?5byte?5list?5in?5buffer?6?$AA@ c004d168     AcpiSubsystem:dmresrc.obj
 0002:00012790       _AcpiUuids                 c004d190     AcpiSubsystem:ahuuids.obj
 0002:00012868       ??_C@_0O@MMAODFEG@?$FLControllers?$FN?$AA@ c004d268     AcpiSubsystem:ahuuids.obj
 0002:00012878       ??_C@_0BA@MPGJAEK@GPIO?5Controller?$AA@ c004d278     AcpiSubsystem:ahuuids.obj
 0002:00012888       ??_C@_0CF@IMGMMEOL@4f248f40?9d5e2?9499f?9834c?927758ea1@ c004d288     AcpiSubsystem:ahuuids.obj
 0002:000128b0       ??_C@_0P@CEDHOOHF@USB?5Controller?$AA@ c004d2b0     AcpiSubsystem:ahuuids.obj
 0002:000128c0       ??_C@_0CF@IICIHDN@ce2ee385?900e6?948cb?99f05?92edb927c@ c004d2c0     AcpiSubsystem:ahuuids.obj
 0002:000128e8       ??_C@_0BA@OINHOGHD@SATA?5Controller?$AA@ c004d2e8     AcpiSubsystem:ahuuids.obj
 0002:000128f8       ??_C@_0CF@MFKDBIPC@e4db149b?9fcfe?9425b?9a6d8?992357d78@ c004d2f8     AcpiSubsystem:ahuuids.obj
 0002:00012920       ??_C@_09GNHPFCNN@?$FLDevices?$FN?$AA@ c004d320     AcpiSubsystem:ahuuids.obj
 0002:0001292c       ??_C@_0BH@LGKPOMMK@PCI?5Host?5Bridge?5Device?$AA@ c004d32c     AcpiSubsystem:ahuuids.obj
 0002:00012944       ??_C@_0CF@PCHFAOAH@33db4d5b?91ff7?9401c?99657?97441c03d@ c004d344     AcpiSubsystem:ahuuids.obj
 0002:0001296c       ??_C@_0P@PCAEMDJD@HID?5I2C?5Device?$AA@ c004d36c     AcpiSubsystem:ahuuids.obj
 0002:0001297c       ??_C@_0CF@LHPOFJJI@3cdff6f7?94267?94555?9ad05?9b30a3d89@ c004d37c     AcpiSubsystem:ahuuids.obj
 0002:000129a4       ??_C@_0CF@HBKLFPDP@dfbcf3c5?9e7a5?944e6?99c1f?929c76f6e@ c004d3a4     AcpiSubsystem:ahuuids.obj
 0002:000129cc       ??_C@_0N@BGIFCMII@?$FLInterfaces?$FN?$AA@ c004d3cc     AcpiSubsystem:ahuuids.obj
 0002:000129dc       ??_C@_0BK@CDJHACID@Device?5Labeling?5Interface?$AA@ c004d3dc     AcpiSubsystem:ahuuids.obj
 0002:000129f8       ??_C@_0CF@EBGGLILD@e5c937d0?93553?94d7a?99117?9ea4d19c3@ c004d3f8     AcpiSubsystem:ahuuids.obj
 0002:00012a20       ??_C@_0BM@NHADKODC@Physical?5Presence?5Interface?$AA@ c004d420     AcpiSubsystem:ahuuids.obj
 0002:00012a3c       ??_C@_0CF@BIEOOKBK@3dddfaa6?9361b?94eb4?9a424?98d10089d@ c004d43c     AcpiSubsystem:ahuuids.obj
 0002:00012a64       ??_C@_0CD@MKDIJJOP@?$FLNon?9volatile?5DIMM?5and?5NFIT?5tabl@ c004d464     AcpiSubsystem:ahuuids.obj
 0002:00012a88       ??_C@_0BH@LJFHAAGK@Volatile?5Memory?5Region?$AA@ c004d488     AcpiSubsystem:ahuuids.obj
 0002:00012aa0       ??_C@_0CF@LFDGLJPN@7305944f?9fdda?944e3?9b16c?93f22d252@ c004d4a0     AcpiSubsystem:ahuuids.obj
 0002:00012ac8       ??_C@_0BJ@JICGCHIF@Persistent?5Memory?5Region?$AA@ c004d4c8     AcpiSubsystem:ahuuids.obj
 0002:00012ae4       ??_C@_0CF@EPANFJMI@66f0d379?9b4f3?94074?9ac43?90d3318b7@ c004d4e4     AcpiSubsystem:ahuuids.obj
 0002:00012b0c       ??_C@_0BG@MIACCOCJ@NVDIMM?5Control?5Region?$AA@ c004d50c     AcpiSubsystem:ahuuids.obj
 0002:00012b24       ??_C@_0CF@DJAGLAOI@92f701f6?913b4?9405d?9910b?9299367e8@ c004d524     AcpiSubsystem:ahuuids.obj
 0002:00012b4c       ??_C@_0BD@BOBKILFB@NVDIMM?5Data?5Region?$AA@ c004d54c     AcpiSubsystem:ahuuids.obj
 0002:00012b60       ??_C@_0CF@PHAEAHMG@91af0530?95d86?9470e?9a6b0?90a2db940@ c004d560     AcpiSubsystem:ahuuids.obj
 0002:00012b88       ??_C@_0BG@EIIHFHHG@Volatile?5Virtual?5Disk?$AA@ c004d588     AcpiSubsystem:ahuuids.obj
 0002:00012ba0       ??_C@_0CF@JCKNPAHA@77ab535a?945fc?9624b?95560?9f7b281d1@ c004d5a0     AcpiSubsystem:ahuuids.obj
 0002:00012bc8       ??_C@_0BE@DIPMDBKP@Volatile?5Virtual?5CD?$AA@ c004d5c8     AcpiSubsystem:ahuuids.obj
 0002:00012bdc       ??_C@_0CF@LDHLHBCK@3d5abd30?94175?987ce?96d64?9d2ade523@ c004d5dc     AcpiSubsystem:ahuuids.obj
 0002:00012c04       ??_C@_0BI@INFEANEC@Persistent?5Virtual?5Disk?$AA@ c004d604     AcpiSubsystem:ahuuids.obj
 0002:00012c1c       ??_C@_0CF@NADFIEDE@5cea02c9?94d07?969d3?9269f?94496fbe0@ c004d61c     AcpiSubsystem:ahuuids.obj
 0002:00012c44       ??_C@_0BG@FPLEHHDM@Persistent?5Virtual?5CD?$AA@ c004d644     AcpiSubsystem:ahuuids.obj
 0002:00012c5c       ??_C@_0CF@JDAFDALG@08018188?942cd?9bb48?9100f?95387d53d@ c004d65c     AcpiSubsystem:ahuuids.obj
 0002:00012c84       ??_C@_0BA@BMJFGALL@?$FLMiscellaneous?$FN?$AA@ c004d684     AcpiSubsystem:ahuuids.obj
 0002:00012c94       ??_C@_0BL@LLPDJMPG@Platform?9wide?5Capabilities?$AA@ c004d694     AcpiSubsystem:ahuuids.obj
 0002:00012cb0       ??_C@_0CF@KOCEKGCL@0811b06e?94a27?944f9?98d60?93cbbc22e@ c004d6b0     AcpiSubsystem:ahuuids.obj
 0002:00012cd8       ??_C@_0BE@KFGBPLHG@Dynamic?5Enumeration?$AA@ c004d6d8     AcpiSubsystem:ahuuids.obj
 0002:00012cec       ??_C@_0CF@IBCFPMC@d8c1a3a6?9be9b?94c9b?991bf?9c3cb81fc@ c004d6ec     AcpiSubsystem:ahuuids.obj
 0002:00012d14       ??_C@_0BG@BEGCLAHI@Battery?5Thermal?5Limit?$AA@ c004d714     AcpiSubsystem:ahuuids.obj
 0002:00012d2c       ??_C@_0CF@GNEJINAL@4c2067e3?9887d?9475c?99720?94af1d3ed@ c004d72c     AcpiSubsystem:ahuuids.obj
 0002:00012d54       ??_C@_0BD@OJOHMHP@Thermal?5Extensions?$AA@ c004d754     AcpiSubsystem:ahuuids.obj
 0002:00012d68       ??_C@_0CF@PKDOOHFA@14d399cd?97a27?94b18?98fb4?97cb7b9f4@ c004d768     AcpiSubsystem:ahuuids.obj
 0002:00012d90       ??_C@_0BL@FBCKPAKB@Device?5Properties?5for?5_DSD?$AA@ c004d790     AcpiSubsystem:ahuuids.obj
 0002:00012dac       ??_C@_0CF@GCOOJOCA@daffd814?96eba?94d8c?98a91?9bc9bbf4a@ c004d7ac     AcpiSubsystem:ahuuids.obj
 0002:00012e30       ??_C@_0DH@DPBAPDNA@Unknown?5opcode?50x?$CF?42X?5at?5table?5o@ c004d830     AcpiSubsystem:psobject.obj
 0002:00012e68       ??_C@_0BL@MAMPFOMG@During?5name?5lookup?1catalog?$AA@ c004d868     AcpiSubsystem:psobject.obj
 0002:00012e84       ??_C@_0BP@DBAPLLD@AML?5package?5complete?5at?5Op?5?$CFp?6?$AA@ c004d884     AcpiSubsystem:psobject.obj
 0002:00012edc       ??_C@_0CP@NHGIDEP@Could?5not?5get?5result?5from?5predic@ c004d8dc     AcpiSubsystem:dswexec.obj
 0002:00012f0c       ??_C@_0CB@BFADFFGN@No?5predicate?5ObjDesc?$DN?$CFp?5State?$DN?$CFp@ c004d90c     AcpiSubsystem:dswexec.obj
 0002:00012f30       ??_C@_0DN@FHGLBJEA@Bad?5predicate?5?$CInot?5an?5integer?$CJ?5O@ c004d930     AcpiSubsystem:dswexec.obj
 0002:00012f70       ??_C@_0CF@OKEMPEBD@Completed?5a?5predicate?5eval?$DN?$CFX?5Op@ c004d970     AcpiSubsystem:dswexec.obj
 0002:00012f98       ??_C@_0BO@JBJHGLPG@?$CI?$CFs?$CJ?5Popping?5scope?5for?5Op?5?$CFp?6?$AA@ c004d998     AcpiSubsystem:dswexec.obj
 0002:00012fb8       ??_C@_0BP@OGGBJCP@Exec?5predicate?5Op?$DN?$CFp?5State?$DN?$CFp?6?$AA@ c004d9b8     AcpiSubsystem:dswexec.obj
 0002:00012fd8       ??_C@_0BE@NDFPHCBO@Unknown?5opcode?50x?$CFX?$AA@ c004d9d8     AcpiSubsystem:dswexec.obj
 0002:00012fec       ??_C@_0CC@ONBDEACB@While?5resolving?5operands?5for?5?$FL?$CFs@ c004d9ec     AcpiSubsystem:dswexec.obj
 0002:00013010       ??_C@_0CG@BJFOBOHF@Method?5Reference?5in?5a?5Package?0?5O@ c004da10     AcpiSubsystem:dswexec.obj
 0002:00013038       ??_C@_0BK@JPHMLDOJ@Method?5invocation?0?5Op?$DN?$CFp?6?$AA@ c004da38     AcpiSubsystem:dswexec.obj
 0002:00013054       ??_C@_0CK@KBBFKHKO@Executing?5CreateField?5Buffer?1Ind@ c004da54     AcpiSubsystem:dswexec.obj
 0002:00013080       ??_C@_0CP@GENJBFGP@Executing?5CreateObject?5?$CIBuffer?1P@ c004da80     AcpiSubsystem:dswexec.obj
 0002:000130b0       ??_C@_0CJ@NKKFJJHB@Executing?5OpRegion?5Address?1Lengt@ c004dab0     AcpiSubsystem:dswexec.obj
 0002:000130dc       ??_C@_0CJ@JCJCJJJM@Executing?5DataTableRegion?5String@ c004dadc     AcpiSubsystem:dswexec.obj
 0002:00013108       ??_C@_0BL@IBKJOKHE@Executing?5BankField?5Op?$DN?$CFp?6?$AA@ c004db08     AcpiSubsystem:dswexec.obj
 0002:00013124       ??_C@_0BM@JEBBHLBJ@Undefined?5opcode?5type?5Op?$DN?$CFp?$AA@ c004db24     AcpiSubsystem:dswexec.obj
 0002:00013140       ??_C@_0BP@FBKBGOK@Internal?5opcode?$DN?$CFX?5type?5Op?$DN?$CFp?6?$AA@ c004db40     AcpiSubsystem:dswexec.obj
 0002:00013160       ??_C@_0DN@OAIDJALK@Unimplemented?5opcode?0?5class?$DN0x?$CFX@ c004db60     AcpiSubsystem:dswexec.obj
 0002:00013220       ??_C@_0DC@DHLEBEM@Ignoring?5unresolved?5reference?5in@ c004dc20     AcpiSubsystem:dsobject.obj
 0002:00013254       ??_C@_0DD@JDGJKMCE@Expecting?5bytelist?0?5found?5AML?5op@ c004dc54     AcpiSubsystem:dsobject.obj
 0002:00013288       ??_C@_0DC@EIJOBLKJ@Buffer?5defined?5with?5zero?5length?5@ c004dc88     AcpiSubsystem:dsobject.obj
 0002:000132c0       ??_C@_0EM@BCBKBEKJ@Actual?5Package?5length?5?$CI?$CFu?$CJ?5is?5la@ c004dcc0     AcpiSubsystem:dsobject.obj
 0002:00013310       ??_C@_0FJ@NALPBEAE@Package?5List?5length?5?$CI?$CFu?$CJ?5smaller@ c004dd10     AcpiSubsystem:dsobject.obj
 0002:0001336c       ??_C@_0BN@BMNLNKKD@Unknown?5constant?5opcode?50x?$CFX?$AA@ c004dd6c     AcpiSubsystem:dsobject.obj
 0002:00013390       ??_C@_0EF@PMDEKIDA@Truncated?564?9bit?5constant?5found?5@ c004dd90     AcpiSubsystem:dsobject.obj
 0002:000133d8       ??_C@_0BK@OEIDJBCA@Unknown?5Integer?5type?50x?$CFX?$AA@ c004ddd8     AcpiSubsystem:dsobject.obj
 0002:000133f4       ??_C@_0DF@DBPHAAHD@Unimplemented?5reference?5type?5for@ c004ddf4     AcpiSubsystem:dsobject.obj
 0002:0001342c       ??_C@_0BO@DFPFPGJG@Unimplemented?5data?5type?3?50x?$CFX?$AA@ c004de2c     AcpiSubsystem:dsobject.obj
 0002:0001349c       ??_C@_0BI@BEBFMHHH@Internal?5?9?5null?5pointer?$AA@ c004de9c     AcpiSubsystem:exresolv.obj
 0002:000134b4       ??_C@_0BE@NNDDADPE@Resolved?5object?5?$CFp?6?$AA@ c004deb4     AcpiSubsystem:exresolv.obj
 0002:000134c8       ??_C@_0BP@GPMNONIG@?$FLArg?1Local?5?$CFX?$FN?5ValueObj?5is?5?$CFp?6?$AA@ c004dec8     AcpiSubsystem:exresolv.obj
 0002:000134e8       ??_C@_0DP@LOOICMJI@Attempt?5to?5dereference?5an?5Index?5@ c004dee8     AcpiSubsystem:exresolv.obj
 0002:00013528       ??_C@_0DF@HPDMDCGO@Unknown?5TargetType?50x?$CFX?5in?5Index@ c004df28     AcpiSubsystem:exresolv.obj
 0002:00013560       ??_C@_0CC@OHEKGHDI@Unknown?5Reference?5type?50x?$CFX?5in?5?$CF@ c004df60     AcpiSubsystem:exresolv.obj
 0002:00013584       ??_C@_0CB@IBHDECOD@FieldRead?5SourceDesc?$DN?$CFp?5Type?$DN?$CFX?6@ c004df84     AcpiSubsystem:exresolv.obj
 0002:000135a8       ??_C@_0BN@LDPBKGF@Not?5a?5namespace?5node?5?$CFp?5?$FL?$CFs?$FN?$AA@ c004dfa8     AcpiSubsystem:exresolv.obj
 0002:000135c8       ??_C@_0CA@LKHAHAIE@Unknown?5Reference?5Class?50x?$CF2?42X?$AA@ c004dfc8     AcpiSubsystem:exresolv.obj
 0002:00013628       ??_C@_0BK@LACBIPOD@Invalid?5leading?5digit?3?5?$CFc?$AA@ c004e028     AcpiSubsystem:exnames.obj
 0002:00013644       ??_C@_0BE@MOOKKPAC@Bytes?5from?5stream?3?6?$AA@ c004e044     AcpiSubsystem:exnames.obj
 0002:00013658       ??_C@_03PJCJOCBM@?$CFc?6?$AA@ c004e058     AcpiSubsystem:exnames.obj
 0002:0001365c       ??_C@_0BC@LLIDKGBD@Appended?5to?5?9?5?$CFs?6?$AA@ c004e05c     AcpiSubsystem:exnames.obj
 0002:00013670       ??_C@_0BF@FMEEMDPF@No?5Name?5string?5?9?5?$CFs?6?$AA@ c004e070     AcpiSubsystem:exnames.obj
 0002:00013688       ??_C@_0DE@MOCAEDCK@Leading?5character?5is?5not?5alpha?3?5@ c004e088     AcpiSubsystem:exnames.obj
 0002:000136bc       ??_C@_0CE@HLAKAPGC@Bad?5character?50x?$CF02x?5in?5name?0?5at@ c004e0bc     AcpiSubsystem:exnames.obj
 0002:000136e0       ??_C@_0BF@ONDHHPIC@RootPrefix?$CI?2?$CJ?5at?5?$CFp?6?$AA@ c004e0e0     AcpiSubsystem:exnames.obj
 0002:000136f8       ??_C@_0BI@MBCDEEOL@ParentPrefix?5?$CI?$FO?$CJ?5at?5?$CFp?6?$AA@ c004e0f8     AcpiSubsystem:exnames.obj
 0002:00013710       ??_C@_0BG@JMCNBJGO@DualNamePrefix?5at?5?$CFp?6?$AA@ c004e110     AcpiSubsystem:exnames.obj
 0002:00013728       ??_C@_0BH@OKLCEPFN@MultiNamePrefix?5at?5?$CFp?6?$AA@ c004e128     AcpiSubsystem:exnames.obj
 0002:00013740       ??_C@_0CB@PNHILEJD@NameSeg?5is?5?$CC?2?$CC?5followed?5by?5NULL?6@ c004e140     AcpiSubsystem:exnames.obj
 0002:00013764       ??_C@_0BF@HJDOOHBN@Malformed?5Name?5at?5?$CFp?$AA@ c004e164     AcpiSubsystem:exnames.obj
 0002:000137f4       ??_C@_0DB@LEAMFDLL@Bit?5offset?5within?5field?5too?5larg@ c004e1f4     AcpiSubsystem:dsfield.obj
 0002:00013828       ??_C@_0DC@FBJJFMLA@Field?5?$FL?$CF4?44s?$FN?5bit?5offset?5too?5lar@ c004e228     AcpiSubsystem:dsfield.obj
 0002:0001385c       ??_C@_0CD@BHEACMMD@Invalid?5opcode?5in?5field?5list?3?50x@ c004e25c     AcpiSubsystem:dsfield.obj
 0002:000138ac       ??_C@_0BI@IDEGAKMN@State?$DN?$CFp?5Op?$DN?$CFp?5Type?$DN?$CFX?6?$AA@ c004e2ac     AcpiSubsystem:dswload2.obj
 0002:000138c8       ??_C@_0FG@CHABENK@Type?5override?5?9?5?$FL?$CF4?44s?$FN?5had?5inva@ c004e2c8     AcpiSubsystem:dswload2.obj
 0002:00013920       ??_C@_0CF@MLPLHNJ@?$CK?$CK?$CKNew?5Node?5?$FL?$CF4?44s?$FN?5?$CFp?5is?5tempor@ c004e320     AcpiSubsystem:dswload2.obj
 0002:00013948       ??_C@_0BM@NAPBKGEE@Opcode?5?$FL?$CFs?$FN?5Op?5?$CFp?5State?5?$CFp?6?$AA@ c004e348     AcpiSubsystem:dswload2.obj
 0002:00013964       ??_C@_0BN@HNAJCLKD@Ending?5scope?5Op?$DN?$CFp?5State?$DN?$CFp?6?$AA@ c004e364     AcpiSubsystem:dswload2.obj
 0002:00013984       ??_C@_0CN@CODPDJAK@Create?9Load?5?$FL?$CFs?$FN?5State?$DN?$CFp?5Op?$DN?$CFp?5@ c004e384     AcpiSubsystem:dswload2.obj
 0002:000139b4       ??_C@_0DC@IKJCFHMN@RESOLVING?9MethodCall?3?5State?$DN?$CFp?5O@ c004e3b4     AcpiSubsystem:dswload2.obj
 0002:00013a70       ??_C@_0BJ@CFFPGPMA@Region?5Type?5?9?5?$CFs?5?$CI0x?$CFX?$CJ?6?$AA@ c004e470     AcpiSubsystem:excreate.obj
 0002:00013adc       ??_C@_0P@HCPAIPMN@Null?5parameter?$AA@ c004e4dc     AcpiSubsystem:exstore.obj
 0002:00013aec       ??_C@_0DH@MFIFGKOH@Target?5is?5not?5a?5Reference?5or?5Con@ c004e4ec     AcpiSubsystem:exstore.obj
 0002:00013b24       ??_C@_0DB@NCOPHCFA@?$CK?$CK?$CK?$CK?5Write?5to?5Debug?5Object?3?5Obje@ c004e524     AcpiSubsystem:exstore.obj
 0002:00013b58       ??_C@_0DC@FDNKHMEO@Source?5must?5be?5Integer?1Buffer?1St@ c004e558     AcpiSubsystem:exstore.obj
 0002:00013b8c       ??_C@_0CH@GKBIJOLF@Target?5is?5not?5a?5Package?5or?5Buffe@ c004e58c     AcpiSubsystem:exstore.obj
 0002:00013bb4       ??_C@_0CB@HFNODIBD@Storing?5?$CFp?5?$CI?$CFs?$CJ?5to?5node?5?$CFp?5?$CI?$CFs?$CJ?6@ c004e5b4     AcpiSubsystem:exstore.obj
 0002:00013bd8       ??_C@_0CF@EMHMMOGN@Store?5?$CFs?5into?5?$CFs?5via?5Convert?1Att@ c004e5d8     AcpiSubsystem:exstore.obj
 0002:00013c00       ??_C@_0EM@OOMAHLHG@Storing?5?$FL?$CFs?$FN?5?$CI?$CFp?$CJ?5directly?5into?5@ c004e600     AcpiSubsystem:exstore.obj
 0002:00013cac       ??_C@_0DM@HGFIOCJP@Explicit?5operator?0?5will?5store?5?$CI?$CF@ c004e6ac     AcpiSubsystem:exconvrt.obj
 0002:00013ce8       ??_C@_0CN@NGHINHOB@Bad?5destination?5type?5during?5conv@ c004e6e8     AcpiSubsystem:exconvrt.obj
 0002:00013d18       ??_C@_0DH@NGIDJKNL@Unknown?5Target?5type?5ID?50x?$CFX?5AmlO@ c004e718     AcpiSubsystem:exconvrt.obj
 0002:00013d64       ??_C@_0CI@NFAKOEGF@?$CK?$CK?$CK?$CK?5Loading?5table?5into?5namespac@ c004e764     AcpiSubsystem:nsload.obj
 0002:00013d8c       ??_C@_0CI@NLBLKIEJ@?$CK?$CK?$CK?$CK?5Begin?5Table?5Object?5Initiali@ c004e78c     AcpiSubsystem:nsload.obj
 0002:00013db4       ??_C@_0CM@GBHEKBJA@?$CK?$CK?$CK?$CK?5Completed?5Table?5Object?5Init@ c004e7b4     AcpiSubsystem:nsload.obj
 0002:00013e5c       ??_C@_04KEIIAEPN@_SRS?$AA@ c004e85c     AcpiSubsystem:rsutils.obj
 0002:00013ea0       ??_C@_0BM@HOFLAABD@Entering?5sleep?5state?5?$FLS?$CFu?$FN?6?$AA@ c004e8a0     AcpiSubsystem:hwsleep.obj
 0002:00013ebc       ??_C@_05LLDNIIOI@?2_WAK?$AA@ c004e8bc     AcpiSubsystem:hwsleep.obj
 0002:00013f1c       ??_C@_0BK@NEIHGCP@While?5executing?5method?5?$CFs?$AA@ c004e91c     AcpiSubsystem:hwesleep.obj
 0002:00013f7c       ??_C@_0CP@JJOHKHNM@Type?5?$CF?42X?0?5AmlLength?5?$CF?42X?5Intern@ c004e97c     AcpiSubsystem:rscalc.obj
 0002:00013fe4       ??_C@_0BP@HOPOMHPJ@Misaligned?5resource?5pointer?5?$CFp?$AA@ c004e9e4     AcpiSubsystem:rslist.obj
 0002:00014004       ??_C@_0CL@GPLIMDHC@Could?5not?5convert?5AML?5resource?5?$CI@ c004ea04     AcpiSubsystem:rslist.obj
 0002:00014030       ??_C@_0DA@OHFHLKFL@Invalid?5descriptor?5type?5?$CI0x?$CFX?$CJ?5i@ c004ea30     AcpiSubsystem:rslist.obj
 0002:00014060       ??_C@_0CO@HOINCCNM@Could?5not?5convert?5resource?5?$CItype@ c004ea60     AcpiSubsystem:rslist.obj
 0002:00014090       _AcpiGbl_AmlResourceSizes  c004ea90     AcpiSubsystem:rsinfo.obj
 0002:000140a4       _AcpiGbl_AmlResourceSerialBusSizes c004eaa4     AcpiSubsystem:rsinfo.obj
 0002:000140a8       _AcpiGbl_ResourceStructSizes c004eaa8     AcpiSubsystem:rsinfo.obj
 0002:000140c8       _AcpiGbl_ResourceStructSerialBusSizes c004eac8     AcpiSubsystem:rsinfo.obj
 0002:000140d4       ??_C@_0P@COPCMHFO@TypeDataLength?$AA@ c004ead4     AcpiSubsystem:rsdumpinfo.obj
 0002:000140e4       ??_C@_0BC@EBMDHDFF@Descriptor?5Length?$AA@ c004eae4     AcpiSubsystem:rsdumpinfo.obj
 0002:000140f8       ??_C@_0L@DPKMNHKD@Triggering?$AA@ c004eaf8     AcpiSubsystem:rsdumpinfo.obj
 0002:00014104       ??_C@_08IFOIOLEL@Polarity?$AA@ c004eb04     AcpiSubsystem:rsdumpinfo.obj
 0002:00014110       ??_C@_07JHEMBKKC@Sharing?$AA@ c004eb10     AcpiSubsystem:rsdumpinfo.obj
 0002:00014118       ??_C@_0BA@BBNAJIF@Interrupt?5Count?$AA@ c004eb18     AcpiSubsystem:rsdumpinfo.obj
 0002:00014128       ??_C@_0P@ICILHIAA@Interrupt?5List?$AA@ c004eb28     AcpiSubsystem:rsdumpinfo.obj
 0002:00014138       ??_C@_05HOIAGEJD@Speed?$AA@ c004eb38     AcpiSubsystem:rsdumpinfo.obj
 0002:00014140       ??_C@_09PDCBGCLA@Mastering?$AA@ c004eb40     AcpiSubsystem:rsdumpinfo.obj
 0002:0001414c       ??_C@_0O@DKJGELNJ@Transfer?5Type?$AA@ c004eb4c     AcpiSubsystem:rsdumpinfo.obj
 0002:0001415c       ??_C@_0O@KAEPCOBA@Channel?5Count?$AA@ c004eb5c     AcpiSubsystem:rsdumpinfo.obj
 0002:0001416c       ??_C@_0N@BDPJDKB@Channel?5List?$AA@ c004eb6c     AcpiSubsystem:rsdumpinfo.obj
 0002:0001417c       ??_C@_0BK@OKBMJIG@Start?9Dependent?9Functions?$AA@ c004eb7c     AcpiSubsystem:rsdumpinfo.obj
 0002:00014198       ??_C@_0BH@FDPDOOIJ@Compatibility?5Priority?$AA@ c004eb98     AcpiSubsystem:rsdumpinfo.obj
 0002:000141b0       ??_C@_0BH@HALDGPGO@Performance?1Robustness?$AA@ c004ebb0     AcpiSubsystem:rsdumpinfo.obj
 0002:000141c8       ??_C@_0BI@JEKJKBK@End?9Dependent?9Functions?$AA@ c004ebc8     AcpiSubsystem:rsdumpinfo.obj
 0002:000141e0       ??_C@_0P@PFALKFBA@I2C?5Serial?5Bus?$AA@ c004ebe0     AcpiSubsystem:rsdumpinfo.obj
 0002:000141f0       ??_C@_0L@IAMPBGJL@AccessMode?$AA@ c004ebf0     AcpiSubsystem:rsdumpinfo.obj
 0002:000141fc       ??_C@_0BA@CFENDKMH@ConnectionSpeed?$AA@ c004ebfc     AcpiSubsystem:rsdumpinfo.obj
 0002:0001420c       ??_C@_0N@MBIOBEOM@SlaveAddress?$AA@ c004ec0c     AcpiSubsystem:rsdumpinfo.obj
 0002:0001421c       ??_C@_0BB@LALGFOJL@Address?5Decoding?$AA@ c004ec1c     AcpiSubsystem:rsdumpinfo.obj
 0002:00014230       ??_C@_0BA@BNDIJMPN@Address?5Minimum?$AA@ c004ec30     AcpiSubsystem:rsdumpinfo.obj
 0002:00014240       ??_C@_0BA@PLFIDDBM@Address?5Maximum?$AA@ c004ec40     AcpiSubsystem:rsdumpinfo.obj
 0002:00014250       ??_C@_09FBMAGD@Alignment?$AA@ c004ec50     AcpiSubsystem:rsdumpinfo.obj
 0002:0001425c       ??_C@_0P@GBHOMMOK@Address?5Length?$AA@ c004ec5c     AcpiSubsystem:rsdumpinfo.obj
 0002:0001426c       ??_C@_09CJGCBJBO@Fixed?5I?1O?$AA@ c004ec6c     AcpiSubsystem:rsdumpinfo.obj
 0002:00014278       ??_C@_0BA@PADEBIAF@Vendor?5Specific?$AA@ c004ec78     AcpiSubsystem:rsdumpinfo.obj
 0002:00014288       ??_C@_0M@MMCJJKML@Vendor?5Data?$AA@ c004ec88     AcpiSubsystem:rsdumpinfo.obj
 0002:00014294       ??_C@_06NCKABHK@EndTag?$AA@ c004ec94     AcpiSubsystem:rsdumpinfo.obj
 0002:0001429c       ??_C@_0BE@KGGNGMIH@24?9Bit?5Memory?5Range?$AA@ c004ec9c     AcpiSubsystem:rsdumpinfo.obj
 0002:000142b0       ??_C@_0O@COAOBDCL@Write?5Protect?$AA@ c004ecb0     AcpiSubsystem:rsdumpinfo.obj
 0002:000142c0       ??_C@_0P@PPJAFJMG@Spi?5Serial?5Bus?$AA@ c004ecc0     AcpiSubsystem:rsdumpinfo.obj
 0002:000142d0       ??_C@_08HHNNKECG@WireMode?$AA@ c004ecd0     AcpiSubsystem:rsdumpinfo.obj
 0002:000142dc       ??_C@_0P@KNNJMJJF@DevicePolarity?$AA@ c004ecdc     AcpiSubsystem:rsdumpinfo.obj
 0002:000142ec       ??_C@_0O@PEAKNHCD@DataBitLength?$AA@ c004ecec     AcpiSubsystem:rsdumpinfo.obj
 0002:000142fc       ??_C@_0L@CMGNMJMH@ClockPhase?$AA@ c004ecfc     AcpiSubsystem:rsdumpinfo.obj
 0002:00014308       ??_C@_0O@KBDMMLGK@ClockPolarity?$AA@ c004ed08     AcpiSubsystem:rsdumpinfo.obj
 0002:00014318       ??_C@_0BA@BLMCDPCI@DeviceSelection?$AA@ c004ed18     AcpiSubsystem:rsdumpinfo.obj
 0002:00014328       ??_C@_0BE@FONGFMNC@32?9Bit?5Memory?5Range?$AA@ c004ed28     AcpiSubsystem:rsdumpinfo.obj
 0002:0001433c       ??_C@_0BK@CMDIJLGI@32?9Bit?5Fixed?5Memory?5Range?$AA@ c004ed3c     AcpiSubsystem:rsdumpinfo.obj
 0002:00014358       ??_C@_0BK@GLLHCCDF@16?9Bit?5WORD?5Address?5Space?$AA@ c004ed58     AcpiSubsystem:rsdumpinfo.obj
 0002:00014374       ??_C@_0M@MPCMNFCK@Granularity?$AA@ c004ed74     AcpiSubsystem:rsdumpinfo.obj
 0002:00014380       ??_C@_0BD@JGDCPNCK@Translation?5Offset?$AA@ c004ed80     AcpiSubsystem:rsdumpinfo.obj
 0002:00014394       ??_C@_0BA@JMBGEP@Uart?5Serial?5Bus?$AA@ c004ed94     AcpiSubsystem:rsdumpinfo.obj
 0002:000143a4       ??_C@_0M@BKCBMPBI@FlowControl?$AA@ c004eda4     AcpiSubsystem:rsdumpinfo.obj
 0002:000143b0       ??_C@_08DPBIGBFM@StopBits?$AA@ c004edb0     AcpiSubsystem:rsdumpinfo.obj
 0002:000143bc       ??_C@_08GOLBGIKB@DataBits?$AA@ c004edbc     AcpiSubsystem:rsdumpinfo.obj
 0002:000143c8       ??_C@_06NOKJJKEP@Endian?$AA@ c004edc8     AcpiSubsystem:rsdumpinfo.obj
 0002:000143d0       ??_C@_06OKNHBMNM@Parity?$AA@ c004edd0     AcpiSubsystem:rsdumpinfo.obj
 0002:000143d8       ??_C@_0N@DKNGKGJO@LinesEnabled?$AA@ c004edd8     AcpiSubsystem:rsdumpinfo.obj
 0002:000143e8       ??_C@_0L@FKKNJFCB@RxFifoSize?$AA@ c004ede8     AcpiSubsystem:rsdumpinfo.obj
 0002:000143f4       ??_C@_0L@LCBIFPGC@TxFifoSize?$AA@ c004edf4     AcpiSubsystem:rsdumpinfo.obj
 0002:00014400       ??_C@_0BL@OEAAFDBM@32?9Bit?5DWORD?5Address?5Space?$AA@ c004ee00     AcpiSubsystem:rsdumpinfo.obj
 0002:0001441c       ??_C@_0BC@MFJIHONL@Consumer?1Producer?$AA@ c004ee1c     AcpiSubsystem:rsdumpinfo.obj
 0002:00014430       ??_C@_0P@MGDNLDOO@Address?5Decode?$AA@ c004ee30     AcpiSubsystem:rsdumpinfo.obj
 0002:00014440       ??_C@_0BD@EHCKOEMH@Min?5Relocatability?$AA@ c004ee40     AcpiSubsystem:rsdumpinfo.obj
 0002:00014454       ??_C@_0BD@OABOGELO@Max?5Relocatability?$AA@ c004ee54     AcpiSubsystem:rsdumpinfo.obj
 0002:00014468       ??_C@_0BL@BPFPIFJD@64?9Bit?5QWORD?5Address?5Space?$AA@ c004ee68     AcpiSubsystem:rsdumpinfo.obj
 0002:00014484       ??_C@_0N@MIHPLKHA@Memory?5Range?$AA@ c004ee84     AcpiSubsystem:rsdumpinfo.obj
 0002:00014494       ??_C@_07BJPHEAHC@Caching?$AA@ c004ee94     AcpiSubsystem:rsdumpinfo.obj
 0002:0001449c       ??_C@_0L@INPNKBPH@Range?5Type?$AA@ c004ee9c     AcpiSubsystem:rsdumpinfo.obj
 0002:000144a8       ??_C@_0M@OIHFNOAG@Translation?$AA@ c004eea8     AcpiSubsystem:rsdumpinfo.obj
 0002:000144b4       ??_C@_09HHGNCKDK@I?1O?5Range?$AA@ c004eeb4     AcpiSubsystem:rsdumpinfo.obj
 0002:000144c0       ??_C@_0BB@BNCFJMMM@Translation?5Type?$AA@ c004eec0     AcpiSubsystem:rsdumpinfo.obj
 0002:000144d4       ??_C@_0BO@CBDNJKCC@64?9Bit?5Extended?5Address?5Space?$AA@ c004eed4     AcpiSubsystem:rsdumpinfo.obj
 0002:000144f4       ??_C@_0BI@LPAKLDBP@Type?9Specific?5Attribute?$AA@ c004eef4     AcpiSubsystem:rsdumpinfo.obj
 0002:0001450c       ??_C@_03KJMOJJMH@Pin?$AA@  c004ef0c     AcpiSubsystem:rsdumpinfo.obj
 0002:00014510       ??_C@_06CLBDIDBH@Source?$AA@ c004ef10     AcpiSubsystem:rsdumpinfo.obj
 0002:00014518       ??_C@_0N@ECHHJIGE@Source?5Index?$AA@ c004ef18     AcpiSubsystem:rsdumpinfo.obj
 0002:00014528       ??_C@_0N@GKPEPGIL@Extended?5IRQ?$AA@ c004ef28     AcpiSubsystem:rsdumpinfo.obj
 0002:00014538       ??_C@_0BB@OKKIMDLM@Generic?5Register?$AA@ c004ef38     AcpiSubsystem:rsdumpinfo.obj
 0002:0001454c       ??_C@_08EHGGFGJK@Space?5ID?$AA@ c004ef4c     AcpiSubsystem:rsdumpinfo.obj
 0002:00014558       ??_C@_09FOGMLNBJ@Bit?5Width?$AA@ c004ef58     AcpiSubsystem:rsdumpinfo.obj
 0002:00014564       ??_C@_0L@GFMOOAHJ@Bit?5Offset?$AA@ c004ef64     AcpiSubsystem:rsdumpinfo.obj
 0002:00014570       ??_C@_0M@EKHMGPKL@Access?5Size?$AA@ c004ef70     AcpiSubsystem:rsdumpinfo.obj
 0002:0001457c       ??_C@_04BAKJGGJM@GPIO?$AA@ c004ef7c     AcpiSubsystem:rsdumpinfo.obj
 0002:00014584       ??_C@_0L@IDEDAIGJ@RevisionId?$AA@ c004ef84     AcpiSubsystem:rsdumpinfo.obj
 0002:00014590       ??_C@_0P@LNPCDAPC@ConnectionType?$AA@ c004ef90     AcpiSubsystem:rsdumpinfo.obj
 0002:000145a0       ??_C@_0BB@JPKOGLJB@ProducerConsumer?$AA@ c004efa0     AcpiSubsystem:rsdumpinfo.obj
 0002:000145b4       ??_C@_09EJHECKOA@PinConfig?$AA@ c004efb4     AcpiSubsystem:rsdumpinfo.obj
 0002:000145c0       ??_C@_0O@CFGIAFNE@IoRestriction?$AA@ c004efc0     AcpiSubsystem:rsdumpinfo.obj
 0002:000145d0       ??_C@_0O@GHPKMIH@DriveStrength?$AA@ c004efd0     AcpiSubsystem:rsdumpinfo.obj
 0002:000145e0       ??_C@_0BA@BODLGALN@DebounceTimeout?$AA@ c004efe0     AcpiSubsystem:rsdumpinfo.obj
 0002:000145f0       ??_C@_0P@JCBJLAPA@ResourceSource?$AA@ c004eff0     AcpiSubsystem:rsdumpinfo.obj
 0002:00014600       ??_C@_0P@IMPPDIFF@PinTableLength?$AA@ c004f000     AcpiSubsystem:rsdumpinfo.obj
 0002:00014610       ??_C@_08IEKMKADN@PinTable?$AA@ c004f010     AcpiSubsystem:rsdumpinfo.obj
 0002:0001461c       ??_C@_0N@PLKJCNDE@VendorLength?$AA@ c004f01c     AcpiSubsystem:rsdumpinfo.obj
 0002:0001462c       ??_C@_0L@MJFOAGHE@VendorData?$AA@ c004f02c     AcpiSubsystem:rsdumpinfo.obj
 0002:00014638       ??_C@_08LIEJDGJL@FixedDma?$AA@ c004f038     AcpiSubsystem:rsdumpinfo.obj
 0002:00014644       ??_C@_0N@FHCDDJPF@RequestLines?$AA@ c004f044     AcpiSubsystem:rsdumpinfo.obj
 0002:00014654       ??_C@_08INPNJAIK@Channels?$AA@ c004f054     AcpiSubsystem:rsdumpinfo.obj
 0002:00014660       ??_C@_0O@GFNEFDEE@TransferWidth?$AA@ c004f060     AcpiSubsystem:rsdumpinfo.obj
 0002:00014670       _AcpiRsDumpIrq             c004f070     AcpiSubsystem:rsdumpinfo.obj
 0002:000146b8       _AcpiRsDumpPrt             c004f0b8     AcpiSubsystem:rsdumpinfo.obj
 0002:000146ec       _AcpiRsDumpDma             c004f0ec     AcpiSubsystem:rsdumpinfo.obj
 0002:00014728       _AcpiRsDumpStartDpf        c004f128     AcpiSubsystem:rsdumpinfo.obj
 0002:00014750       _AcpiRsDumpEndDpf          c004f150     AcpiSubsystem:rsdumpinfo.obj
 0002:0001475c       _AcpiRsDumpIo              c004f15c     AcpiSubsystem:rsdumpinfo.obj
 0002:00014798       _AcpiRsDumpIoFlags         c004f198     AcpiSubsystem:rsdumpinfo.obj
 0002:000147c0       _AcpiRsDumpFixedIo         c004f1c0     AcpiSubsystem:rsdumpinfo.obj
 0002:000147e0       _AcpiRsDumpVendor          c004f1e0     AcpiSubsystem:rsdumpinfo.obj
 0002:00014800       _AcpiRsDumpEndTag          c004f200     AcpiSubsystem:rsdumpinfo.obj
 0002:0001480c       _AcpiRsDumpMemory24        c004f20c     AcpiSubsystem:rsdumpinfo.obj
 0002:00014848       _AcpiRsDumpMemory32        c004f248     AcpiSubsystem:rsdumpinfo.obj
 0002:00014884       _AcpiRsDumpMemoryFlags     c004f284     AcpiSubsystem:rsdumpinfo.obj
 0002:000148b8       _AcpiRsDumpFixedMemory32   c004f2b8     AcpiSubsystem:rsdumpinfo.obj
 0002:000148e0       _AcpiRsDumpAddress16       c004f2e0     AcpiSubsystem:rsdumpinfo.obj
 0002:00014930       _AcpiRsDumpAddress32       c004f330     AcpiSubsystem:rsdumpinfo.obj
 0002:00014980       _AcpiRsDumpAddress64       c004f380     AcpiSubsystem:rsdumpinfo.obj
 0002:000149d0       _AcpiRsDumpExtAddress64    c004f3d0     AcpiSubsystem:rsdumpinfo.obj
 0002:00014a20       _AcpiRsDumpExtIrq          c004f420     AcpiSubsystem:rsdumpinfo.obj
 0002:00014a70       _AcpiRsDumpGenericReg      c004f470     AcpiSubsystem:rsdumpinfo.obj
 0002:00014ab0       _AcpiRsDumpGpio            c004f4b0     AcpiSubsystem:rsdumpinfo.obj
 0002:00014b50       _AcpiRsDumpFixedDma        c004f550     AcpiSubsystem:rsdumpinfo.obj
 0002:00014b78       _AcpiRsDumpCommonSerialBus c004f578     AcpiSubsystem:rsdumpinfo.obj
 0002:00014be0       _AcpiRsDumpI2cSerialBus    c004f5e0     AcpiSubsystem:rsdumpinfo.obj
 0002:00014c68       _AcpiRsDumpSpiSerialBus    c004f668     AcpiSubsystem:rsdumpinfo.obj
 0002:00014d18       _AcpiRsDumpUartSerialBus   c004f718     AcpiSubsystem:rsdumpinfo.obj
 0002:00014dd8       _AcpiRsDumpGeneralFlags    c004f7d8     AcpiSubsystem:rsdumpinfo.obj
 0002:00014e18       ??_C@_0BC@PGLOKEAN@Common?5Serial?5Bus?$AA@ c004f818     AcpiSubsystem:rsdumpinfo.obj
 0002:00014e2c       ??_C@_09KLLDIEBM@SlaveMode?$AA@ c004f82c     AcpiSubsystem:rsdumpinfo.obj
 0002:00014e38       ??_C@_0P@HFMOBAKK@TypeRevisionId?$AA@ c004f838     AcpiSubsystem:rsdumpinfo.obj
 0002:00014e54       ??_C@_0O@HHLIMOHK@Range?5Minimum?$AA@ c004f854     AcpiSubsystem:dmresrcl.obj
 0002:00014e64       ??_C@_0O@JBNIGBJL@Range?5Maximum?$AA@ c004f864     AcpiSubsystem:dmresrcl.obj
 0002:00014e74       ??_C@_05GFGGPADF@DWord?$AA@ c004f874     AcpiSubsystem:dmresrcl.obj
 0002:00014e7c       ??_C@_05DGHNGDBN@QWord?$AA@ c004f87c     AcpiSubsystem:dmresrcl.obj
 0002:00014e84       ??_C@_08GPJDEDPN@Extended?$AA@ c004f884     AcpiSubsystem:dmresrcl.obj
 0002:00014e90       ??_C@_0CI@BHODPOGH@?1?$CK?$CK?$CK?$CK?5Invalid?5Resource?5Type?3?50x?$CF@ c004f890     AcpiSubsystem:dmresrcl.obj
 0002:00014eb8       ??_C@_0BB@CNPPPKPP@Space?5?$CI0x?$CF2?42X?0?5?$AA@ c004f8b8     AcpiSubsystem:dmresrcl.obj
 0002:00014ecc       ??_C@_09KJNGNLNK@?50x?$CF2?42X?0?$AA@ c004f8cc     AcpiSubsystem:dmresrcl.obj
 0002:00014ed8       ??_C@_04CMGGEPKO@?$CFs?5?$CI?$AA@ c004f8d8     AcpiSubsystem:dmresrcl.obj
 0002:00014ee0       ??_C@_04HGMFEN@?5?$CFs?0?$AA@ c004f8e0     AcpiSubsystem:dmresrcl.obj
 0002:00014ee8       ??_C@_0BA@CIPNFHJF@?$CFs?0?5?$CFs?0?5?$CFs?0?5?$CFs?0?$AA@ c004f8e8     AcpiSubsystem:dmresrcl.obj
 0002:00014ef8       ??_C@_0BI@HOINCPGL@?$CFs?0?5?$CFs?0?5?$CFs?0?5?$CFs?0?5?$CFs?0?5?$CFs?0?$AA@ c004f8f8     AcpiSubsystem:dmresrcl.obj
 0002:00014f10       ??_C@_08KOBFCOB@?0?5?$CFs?0?5?$CFs?$AA@ c004f910     AcpiSubsystem:dmresrcl.obj
 0002:00014f1c       ??_C@_03JAIMKLED@?0?0?5?$AA@ c004f91c     AcpiSubsystem:dmresrcl.obj
 0002:00014f20       ??_C@_08ODAIKENC@0x?$CF2?42X?0?$AA@ c004f920     AcpiSubsystem:dmresrcl.obj
 0002:00014f2c       ??_C@_0BJ@IJKFCNHD@Type?9Specific?5Attributes?$AA@ c004f92c     AcpiSubsystem:dmresrcl.obj
 0002:00014f48       ??_C@_0P@DHLNOLAI@Memory24?5?$CI?$CFs?0?6?$AA@ c004f948     AcpiSubsystem:dmresrcl.obj
 0002:00014f58       ??_C@_0P@OGKJPGMM@Memory32?5?$CI?$CFs?0?6?$AA@ c004f958     AcpiSubsystem:dmresrcl.obj
 0002:00014f68       ??_C@_0BE@NDKFIHDJ@Memory32Fixed?5?$CI?$CFs?0?6?$AA@ c004f968     AcpiSubsystem:dmresrcl.obj
 0002:00014f7c       ??_C@_0N@KIOGFJIH@Address?5Base?$AA@ c004f97c     AcpiSubsystem:dmresrcl.obj
 0002:00014f8c       ??_C@_0L@MMAFEPDO@Register?5?$CI?$AA@ c004f98c     AcpiSubsystem:dmresrcl.obj
 0002:00014f98       ??_C@_0BM@DDBBFIDA@Interrupt?5?$CI?$CFs?0?5?$CFs?0?5?$CFs?0?5?$CFs?0?5?$AA@ c004f998     AcpiSubsystem:dmresrcl.obj
 0002:00014fb4       ??_C@_09HMBBBEDJ@0x?$CF8?48X?0?6?$AA@ c004f9b4     AcpiSubsystem:dmresrcl.obj
 0002:00014fc0       ??_C@_0L@NNBCLFLN@Vendor?$CFs?5?$CI?$AA@ c004f9c0     AcpiSubsystem:dmresrcl.obj
 0002:00014fcc       ??_C@_0BL@MGBDLHFD@?$CJ?5?5?5?5?5?5?1?1?5Length?5?$DN?50x?$CF?42X?6?$AA@ c004f9cc     AcpiSubsystem:dmresrcl.obj
 0002:00014fe8       ??_C@_05COCAANOA@Long?5?$AA@ c004f9e8     AcpiSubsystem:dmresrcl.obj
 0002:00014ffc       ??_C@_0CH@EILHALPN@RawDataBuffer?5?$CI0x?$CF?42X?$CJ?5?5?1?1?5Vendo@ c004f9fc     AcpiSubsystem:dmresrcl2.obj
 0002:00015024       ??_C@_09PNLKJPPO@0x?$CF2?42X?0?5?$AA@ c004fa24     AcpiSubsystem:dmresrcl2.obj
 0002:00015030       ??_C@_0BB@LFAGHLEF@?$HL?5?5?5?1?1?5Pin?5list?6?$AA@ c004fa30     AcpiSubsystem:dmresrcl2.obj
 0002:00015044       ??_C@_0L@KDNDLIPH@0x?$CF4?44X?$CFs?6?$AA@ c004fa44     AcpiSubsystem:dmresrcl2.obj
 0002:00015050       ??_C@_0BG@CNOJNOPO@GpioInt?5?$CI?$CFs?0?5?$CFs?0?5?$CFs?0?5?$AA@ c004fa50     AcpiSubsystem:dmresrcl2.obj
 0002:00015068       ??_C@_09HOEBJDEM@0x?$CF4?44X?0?6?$AA@ c004fa68     AcpiSubsystem:dmresrcl2.obj
 0002:00015074       ??_C@_0N@JEIKNFJG@GpioIo?5?$CI?$CFs?0?5?$AA@ c004fa74     AcpiSubsystem:dmresrcl2.obj
 0002:00015084       ??_C@_09BBCKFPGE@0x?$CF4?44X?0?5?$AA@ c004fa84     AcpiSubsystem:dmresrcl2.obj
 0002:00015090       ??_C@_04ICMOPAOK@?$CFs?0?6?$AA@ c004fa90     AcpiSubsystem:dmresrcl2.obj
 0002:00015098       ??_C@_0BD@KBKGEGBF@Unknown?5GPIO?5type?6?$AA@ c004fa98     AcpiSubsystem:dmresrcl2.obj
 0002:000150ac       ??_C@_0CF@JKIGKCGI@I2cSerialBus?5?$CI0x?$CF4?44X?0?5?$CFs?0?50x?$CF8?4@ c004faac     AcpiSubsystem:dmresrcl2.obj
 0002:000150d4       ??_C@_02MLAGHBOD@?0?6?$AA@ c004fad4     AcpiSubsystem:dmresrcl2.obj
 0002:000150d8       ??_C@_0CJ@KICNAOLI@SpiSerialBus?5?$CI0x?$CF4?44X?0?5?$CFs?0?5?$CFs?0?50@ c004fad8     AcpiSubsystem:dmresrcl2.obj
 0002:00015104       ??_C@_0BC@IBKIBAFJ@?$CFs?0?50x?$CF8?48X?0?5?$CFs?0?6?$AA@ c004fb04     AcpiSubsystem:dmresrcl2.obj
 0002:00015118       ??_C@_0CB@LAGFKNIN@UartSerialBus?5?$CI0x?$CF8?48X?0?5?$CFs?0?5?$CFs?0?6@ c004fb18     AcpiSubsystem:dmresrcl2.obj
 0002:0001513c       ??_C@_0BG@HJHLENMO@0x?$CF2?42X?0?5?$CFs?0?5?$CFs?0?5?$CFs?0?6?$AA@ c004fb3c     AcpiSubsystem:dmresrcl2.obj
 0002:00015154       ??_C@_0BD@CDJBEOMD@0x?$CF4?44X?0?50x?$CF4?44X?0?5?$AA@ c004fb54     AcpiSubsystem:dmresrcl2.obj
 0002:00015174       ??_C@_0N@PPKFDPDO@?$CFs?0?5?$CFs?0?5?$CFs?0?5?$AA@ c004fb74     AcpiSubsystem:dmresrcs.obj
 0002:00015184       ??_C@_0BC@JPPJOIGK@DMA?5?$CI?$CFs?0?5?$CFs?0?5?$CFs?0?5?$AA@ c004fb84     AcpiSubsystem:dmresrcs.obj
 0002:00015198       ??_C@_0BN@KKEMDEGJ@FixedDMA?5?$CI0x?$CF4?44X?0?50x?$CF4?44X?0?5?$AA@ c004fb98     AcpiSubsystem:dmresrcs.obj
 0002:000151b8       ??_C@_0BN@HJOGLJAD@?$CFX?5?1?$CK?5INVALID?5DMA?5WIDTH?5?$CK?1?0?5?$AA@ c004fbb8     AcpiSubsystem:dmresrcs.obj
 0002:000151d8       ??_C@_08ECLMIID@IO?5?$CI?$CFs?0?6?$AA@ c004fbd8     AcpiSubsystem:dmresrcs.obj
 0002:000151e4       ??_C@_0L@LFIJNBDB@FixedIO?5?$CI?6?$AA@ c004fbe4     AcpiSubsystem:dmresrcs.obj
 0002:000151f0       ??_C@_0CF@KIIHAHID@StartDependentFn?5?$CI0x?$CF2?42X?0?50x?$CF2?4@ c004fbf0     AcpiSubsystem:dmresrcs.obj
 0002:00015218       ??_C@_0BK@NNCHNONC@StartDependentFnNoPri?5?$CI?$CJ?6?$AA@ c004fc18     AcpiSubsystem:dmresrcs.obj
 0002:00015234       ??_C@_0BD@MDBCFJK@EndDependentFn?5?$CI?$CJ?6?$AA@ c004fc34     AcpiSubsystem:dmresrcs.obj
 0002:00015248       ??_C@_05BCAGPPBA@Short?$AA@ c004fc48     AcpiSubsystem:dmresrcs.obj
 0002:00015258       _AcpiGbl_MapToUuidOffset   c004fc58     AcpiSubsystem:utuuid.obj
 0002:000152d8       ??_C@_0BI@HOCGMLEM@Unknown?5AML?5opcode?50x?$CFX?$AA@ c004fcd8     AcpiSubsystem:exoparg1.obj
 0002:000152f0       ??_C@_0CI@DJKLPHFP@BCD?5digit?5too?5large?5?$CInot?5decimal@ c004fcf0     AcpiSubsystem:exoparg1.obj
 0002:00015318       ??_C@_0DC@PMNAKEFD@Integer?5too?5large?5to?5convert?5to?5@ c004fd18     AcpiSubsystem:exoparg1.obj
 0002:0001534c       ??_C@_0CD@ICCLBDBF@?$CFs?5is?5obsolete?5and?5not?5implement@ c004fd4c     AcpiSubsystem:exoparg1.obj
 0002:00015370       ??_C@_0DO@LMOMPBB@Operand?5must?5be?5Buffer?1Integer?1S@ c004fd70     AcpiSubsystem:exoparg1.obj
 0002:000153b0       ??_C@_0DF@HEHDPDJK@Unknown?5Index?5TargetType?50x?$CFX?5in@ c004fdb0     AcpiSubsystem:exoparg1.obj
 0002:000153e8       ??_C@_0CJ@LINDCPDP@Unknown?5class?5in?5reference?$CI?$CFp?$CJ?5?9@ c004fde8     AcpiSubsystem:exoparg1.obj
 0002:00015470       ??_C@_0CD@MGABIPED@Unexpected?5notify?5object?5type?5?$FL?$CF@ c004fe70     AcpiSubsystem:exoparg2.obj
 0002:00015494       ??_C@_0DI@BBHDABNF@Index?5?$CI0x?$CFX?$CF8?48X?$CJ?5is?5beyond?5end?5@ c004fe94     AcpiSubsystem:exoparg2.obj
 0002:00015500       ??_C@_0EB@PLJDCNJA@FatalOp?3?5Type?5?$CFX?5Code?5?$CFX?5Arg?5?$CFX?5@ c004ff00     AcpiSubsystem:exoparg3.obj
 0002:00015564       ??_C@_0BM@ECAAIKCI@Match?5operator?5out?5of?5range?$AA@ c004ff64     AcpiSubsystem:exoparg6.obj
 0002:00015580       ??_C@_0CP@GABBKNMA@Index?5?$CI0x?$CF8?48X?$CF8?48X?$CJ?5beyond?5pack@ c004ff80     AcpiSubsystem:exoparg6.obj
 0002:000155e8       ??_C@_0BN@DAKMOJNL@Op?$DN?$CFp?5Opcode?$DN?$CF2?42X?5State?$DN?$CFp?6?$AA@ c004ffe8     AcpiSubsystem:dscontrol.obj
 0002:00015608       ??_C@_0P@JLMEDJMI@?$FLIF_OP?$FN?5Op?$DN?$CFp?6?$AA@ c0050008     AcpiSubsystem:dscontrol.obj
 0002:00015618       ??_C@_0BC@KAJAGPHO@?$FLWHILE_OP?$FN?5Op?$DN?$CFp?6?$AA@ c0050018     AcpiSubsystem:dscontrol.obj
 0002:0001562c       ??_C@_0BP@OMBJGHGD@?$FLWHILE_OP?$FN?5termination?$CB?5Op?$DN?$CFp?6?$AA@ c005002c     AcpiSubsystem:dscontrol.obj
 0002:0001564c       ??_C@_0BK@GCOLFNBG@?$FLRETURN_OP?$FN?5Op?$DN?$CFp?5Arg?$DN?$CFp?6?$AA@ c005004c     AcpiSubsystem:dscontrol.obj
 0002:00015668       ??_C@_0CJ@JOFCPDHE@Completed?5RETURN_OP?5State?$DN?$CFp?0?5Re@ c0050068     AcpiSubsystem:dscontrol.obj
 0002:00015694       ??_C@_0CK@JCILDCBK@?$CK?$CKbreak?$CK?$CK?5Executed?5AML?5BreakPoin@ c0050094     AcpiSubsystem:dscontrol.obj
 0002:000156c0       ??_C@_0BP@ELMDMHKI@Executed?5AML?5Breakpoint?5opcode?$AA@ c00500c0     AcpiSubsystem:dscontrol.obj
 0002:000156e0       ??_C@_0CC@FADMHABD@Unknown?5control?5opcode?$DN0x?$CFX?5Op?$DN?$CF@ c00500e0     AcpiSubsystem:dscontrol.obj
 0002:000157a8       ??_C@_0DD@BOJDIHOB@Target?5of?5Create?5Field?5is?5not?5a?5@ c00501a8     AcpiSubsystem:dsopcode.obj
 0002:000157dc       ??_C@_0CE@HKDBJOBI@?$CI?$CFs?$CJ?5destination?5not?5a?5NS?5Node?5?$FL@ c00501dc     AcpiSubsystem:dsopcode.obj
 0002:00015800       ??_C@_0CG@FKJMEICN@Attempt?5to?5CreateField?5of?5length@ c0050200     AcpiSubsystem:dsopcode.obj
 0002:00015828       ??_C@_0CF@IMGHDPLF@Unknown?5field?5creation?5opcode?50x@ c0050228     AcpiSubsystem:dsopcode.obj
 0002:00015850       ??_C@_0DK@IMGGAJAN@Field?5?$FL?$CF4?44s?$FN?5at?5?$CFu?5exceeds?5Buff@ c0050250     AcpiSubsystem:dsopcode.obj
 0002:0001588c       ??_C@_0CB@MCGHMNJN@?$CI?$CFs?$CJ?5bad?5operand?$CIs?$CJ?0?5status?50x?$CFX@ c005028c     AcpiSubsystem:dsopcode.obj
 0002:000158b0       ??_C@_0CC@OJJOBMKF@RgnObj?5?$CFp?5Addr?5?$CF8?48X?$CF8?48X?5Len?5?$CFX@ c00502b0     AcpiSubsystem:dsopcode.obj
 0002:000158f0       ??_C@_0CA@MDDDMPOH@Needed?5type?5?$FL?$CFs?$FN?0?5found?5?$FL?$CFs?$FN?5?$CFp?$AA@ c00502f0     AcpiSubsystem:exresop.obj
 0002:00015910       ??_C@_0CL@LFPPAJMD@Opcode?5?$CFX?5?$FL?$CFs?$FN?5RequiredOperandTy@ c0050310     AcpiSubsystem:exresop.obj
 0002:0001593c       ??_C@_0BH@FKAJFOPM@Null?5stack?5entry?5at?5?$CFp?$AA@ c005033c     AcpiSubsystem:exresop.obj
 0002:00015954       ??_C@_0BP@EMHDKLGP@Bad?5operand?5object?5type?5?$FL0x?$CFX?$FN?$AA@ c0050354     AcpiSubsystem:exresop.obj
 0002:00015974       ??_C@_0CK@GAMKPNPG@Operand?5is?5a?5Reference?0?5Class?5?$FL?$CF@ c0050374     AcpiSubsystem:exresop.obj
 0002:000159a0       ??_C@_0CG@KIMKJBLK@Unknown?5Reference?5Class?50x?$CF2?42X?5@ c00503a0     AcpiSubsystem:exresop.obj
 0002:000159c8       ??_C@_0BL@PEEJDMOJ@Invalid?5descriptor?5?$CFp?5?$FL?$CFs?$FN?$AA@ c00503c8     AcpiSubsystem:exresop.obj
 0002:000159e4       ??_C@_0CO@JIFLNCGH@Needed?5?$FLInteger?1String?1Buffer?$FN?0?5@ c00503e4     AcpiSubsystem:exresop.obj
 0002:00015a14       ??_C@_0DI@PLIJGGPB@Needed?5?$FLBuffer?1String?1Package?1Re@ c0050414     AcpiSubsystem:exresop.obj
 0002:00015a4c       ??_C@_0CO@JDKHCDLB@Needed?5?$FLBuffer?1String?1Package?$FN?0?5@ c005044c     AcpiSubsystem:exresop.obj
 0002:00015a7c       ??_C@_0CG@OKJDLHCG@Needed?5?$FLRegion?1Buffer?$FN?0?5found?5?$FL?$CF@ c005047c     AcpiSubsystem:exresop.obj
 0002:00015aa4       ??_C@_0DN@NFJPFJCJ@Needed?5Integer?1Buffer?1String?1Pac@ c00504a4     AcpiSubsystem:exresop.obj
 0002:00015ae4       ??_C@_0DF@BOGKJOPA@Internal?5?9?5Unknown?5ARGI?5?$CIrequire@ c00504e4     AcpiSubsystem:exresop.obj
 0002:00015b64       ??_C@_0BP@EDMPENAG@Unknown?5field?5access?5type?50x?$CFX?$AA@ c0050564     AcpiSubsystem:exprep.obj
 0002:00015b84       ??_C@_0BA@HOFLCFOM@Null?5RegionNode?$AA@ c0050584     AcpiSubsystem:exprep.obj
 0002:00015b94       ??_C@_0DE@OGOIPPIN@RegionField?3?5BitOff?5?$CFX?0?5Off?5?$CFX?0?5@ c0050594     AcpiSubsystem:exprep.obj
 0002:00015bc8       ??_C@_0DP@DAJJCBKO@Bank?5Field?3?5BitOff?5?$CFX?0?5Off?5?$CFX?0?5G@ c00505c8     AcpiSubsystem:exprep.obj
 0002:00015c08       ??_C@_0CE@GNBJCCKA@Null?5Index?5Object?5during?5field?5p@ c0050608     AcpiSubsystem:exprep.obj
 0002:00015c30       ??_C@_0EF@LGGCKIC@IndexField?3?5BitOff?5?$CFX?0?5Off?5?$CFX?0?5V@ c0050630     AcpiSubsystem:exprep.obj
 0002:00015c78       ??_C@_0CF@JGBMKIOC@Set?5NamedObj?5?$CFp?5?$FL?$CF4?44s?$FN?0?5ObjDesc@ c0050678     AcpiSubsystem:exprep.obj
 0002:00015cb8       ??_C@_0BG@DAFLGJKK@?$FLACPI?5Debug?5?$CF?48u?$FN?5?$CF?$CKs?$AA@ c00506b8     AcpiSubsystem:exdebug.obj
 0002:00015cd0       ??_C@_07DFHFMJIN@?$CI?$CF?42u?$CJ?5?$AA@ c00506d0     AcpiSubsystem:exdebug.obj
 0002:00015cd8       ??_C@_0BO@LCHBFGOK@?$CFp?0?5Invalid?5Internal?5Object?$CB?6?$AA@ c00506d8     AcpiSubsystem:exdebug.obj
 0002:00015cf8       ??_C@_07KLBJFCAL@?$CFs?3?5?$CFp?6?$AA@ c00506f8     AcpiSubsystem:exdebug.obj
 0002:00015d00       ??_C@_08OOPAOEPE@0x?$CF8?48X?6?$AA@ c0050700     AcpiSubsystem:exdebug.obj
 0002:00015d0c       ??_C@_0O@JDGCJHFM@0x?$CF8?48X?$CF8?48X?6?$AA@ c005070c     AcpiSubsystem:exdebug.obj
 0002:00015d1c       ??_C@_09OHPFELHO@?$FL0x?$CF?42X?$FN?6?$AA@ c005071c     AcpiSubsystem:exdebug.obj
 0002:00015d28       ??_C@_0P@DIODECGP@?$FL0x?$CF?42X?$FN?5?$CC?$CFs?$CC?6?$AA@ c0050728     AcpiSubsystem:exdebug.obj
 0002:00015d38       ??_C@_0BM@BMDLFKNP@?$FLContains?50x?$CF?42X?5Elements?$FN?6?$AA@ c0050738     AcpiSubsystem:exdebug.obj
 0002:00015d54       ??_C@_05IMEJDKHB@0x?$CFX?6?$AA@ c0050754     AcpiSubsystem:exdebug.obj
 0002:00015d5c       ??_C@_0BC@OCOHDOPJ@Table?5Index?50x?$CFX?6?$AA@ c005075c     AcpiSubsystem:exdebug.obj
 0002:00015d70       ??_C@_0CC@IKBDDF@?5?$CFp?5?9?5Not?5a?5valid?5namespace?5node@ c0050770     AcpiSubsystem:exdebug.obj
 0002:00015d94       ??_C@_0BB@CDKGNAIM@Node?5?$CFp?5?$FL?$CF4?44s?$FN?5?$AA@ c0050794     AcpiSubsystem:exdebug.obj
 0002:00015da8       ??_C@_0O@KMCJAHJE@Thermal?5Zone?6?$AA@ c00507a8     AcpiSubsystem:exdebug.obj
 0002:00015db8       ??_C@_0BG@HMPAKJCD@Buffer?$FL?$CFu?$FN?5?$DN?50x?$CF2?42X?6?$AA@ c00507b8     AcpiSubsystem:exdebug.obj
 0002:00015dd0       ??_C@_0BN@HNBGCANA@String?$FL?$CFu?$FN?5?$DN?5?$CC?$CFc?$CC?5?$CI0x?$CF2?42X?$CJ?6?$AA@ c00507d0     AcpiSubsystem:exdebug.obj
 0002:00015df0       ??_C@_0P@POKLAJAF@Package?$FL?$CFu?$FN?5?$DN?5?$AA@ c00507f0     AcpiSubsystem:exdebug.obj
 0002:00015e00       ??_C@_0CC@KDAMAGNI@Unknown?5Reference?5object?5type?5?$CFX@ c0050800     AcpiSubsystem:exdebug.obj
 0002:00015e58       ??_C@_0DH@LONNMBNN@Cannot?5assign?5type?5?$CFs?5to?5?$CFs?5?$CImus@ c0050858     AcpiSubsystem:exstoren.obj
 0002:00015e90       ??_C@_0CG@KLAPOJCC@Store?5into?5an?5unresolved?5Alias?5o@ c0050890     AcpiSubsystem:exstoren.obj
 0002:00015eb8       ??_C@_0CD@OFLBMONK@Store?5into?5type?5?$CFs?5not?5implement@ c00508b8     AcpiSubsystem:exstoren.obj
 0002:00015f08       ??_C@_0BH@JDFJEOBC@?$CKPARSE?$CK?5pass?5?$CFu?5parse?6?$AA@ c0050908     AcpiSubsystem:nsparse.obj
 0002:00015f20       ??_C@_0BD@MCIPFLMB@?$CK?$CK?$CK?$CK?5Start?5pass?51?6?$AA@ c0050920     AcpiSubsystem:nsparse.obj
 0002:00015f34       ??_C@_0BD@MAMJOFJI@?$CK?$CK?$CK?$CK?5Start?5pass?52?6?$AA@ c0050934     AcpiSubsystem:nsparse.obj
 0002:00015f64       ??_C@_0CI@HBEKFCED@During?5Region?5initialization?5?$CFp?5@ c0050964     AcpiSubsystem:dsinit.obj
 0002:00015f90       ??_C@_0GN@CNJILJPF@Table?5?$FL?$CF4?44s?$FN?5?$CIid?5?$CF4?44X?$CJ?5?9?5?$CF4u?5O@ c0050990     AcpiSubsystem:dsinit.obj
 0002:00016000       ??_C@_0BI@PEEBAAOL@?$CFu?5Methods?0?5?$CFu?5Regions?6?$AA@ c0050a00     AcpiSubsystem:dsinit.obj
 0002:00016050       ??_C@_0DN@PBPHDENK@Misaligned?5resource?5pointer?5?$CIget@ c0050a50     AcpiSubsystem:rsmisc.obj
 0002:00016090       ??_C@_0BO@HHKJPBGI@Invalid?5conversion?5sub?9opcode?$AA@ c0050a90     AcpiSubsystem:rsmisc.obj
 0002:000160b0       ??_C@_0BK@CGMBENJF@Invalid?5conversion?5opcode?$AA@ c0050ab0     AcpiSubsystem:rsmisc.obj
 0002:000160cc       _AcpiRsConvertDma          c0050acc     AcpiSubsystem:rsirq.obj
 0002:000160e4       _AcpiRsConvertExtIrq       c0050ae4     AcpiSubsystem:rsirq.obj
 0002:0001610c       _AcpiRsConvertFixedDma     c0050b0c     AcpiSubsystem:rsirq.obj
 0002:0001611c       _AcpiRsGetIrq              c0050b1c     AcpiSubsystem:rsirq.obj
 0002:00016140       _AcpiRsSetIrq              c0050b40     AcpiSubsystem:rsirq.obj
 0002:00016180       _AcpiRsConvertEndDpf       c0050b80     AcpiSubsystem:rsio.obj
 0002:00016188       _AcpiRsConvertIo           c0050b88     AcpiSubsystem:rsio.obj
 0002:0001619c       _AcpiRsConvertFixedIo      c0050b9c     AcpiSubsystem:rsio.obj
 0002:000161ac       _AcpiRsConvertEndTag       c0050bac     AcpiSubsystem:rsio.obj
 0002:000161b4       _AcpiRsConvertGenericReg   c0050bb4     AcpiSubsystem:rsio.obj
 0002:000161c4       _AcpiRsGetStartDpf         c0050bc4     AcpiSubsystem:rsio.obj
 0002:000161dc       _AcpiRsSetStartDpf         c0050bdc     AcpiSubsystem:rsio.obj
 0002:0001620c       _AcpiRsConvertMemory24     c0050c0c     AcpiSubsystem:rsmemory.obj
 0002:0001621c       _AcpiRsConvertMemory32     c0050c1c     AcpiSubsystem:rsmemory.obj
 0002:0001622c       _AcpiRsConvertFixedMemory32 c0050c2c     AcpiSubsystem:rsmemory.obj
 0002:0001623c       _AcpiRsGetVendorSmall      c0050c3c     AcpiSubsystem:rsmemory.obj
 0002:00016248       _AcpiRsGetVendorLarge      c0050c48     AcpiSubsystem:rsmemory.obj
 0002:00016254       _AcpiRsSetVendor           c0050c54     AcpiSubsystem:rsmemory.obj
 0002:000162b8       _AcpiRsConvertAddress32    c0050cb8     AcpiSubsystem:rsaddr.obj
 0002:000162cc       _AcpiRsConvertAddress16    c0050ccc     AcpiSubsystem:rsaddr.obj
 0002:000162e0       _AcpiRsConvertAddress64    c0050ce0     AcpiSubsystem:rsaddr.obj
 0002:000162f4       _AcpiRsConvertExtAddress64 c0050cf4     AcpiSubsystem:rsaddr.obj
 0002:00016310       _AcpiRsConvertGpio         c0050d10     AcpiSubsystem:rsserial.obj
 0002:00016358       _AcpiRsConvertI2cSerialBus c0050d58     AcpiSubsystem:rsserial.obj
 0002:00016398       _AcpiRsConvertSpiSerialBus c0050d98     AcpiSubsystem:rsserial.obj
 0002:000163e8       _AcpiRsConvertUartSerialBus c0050de8     AcpiSubsystem:rsserial.obj
 0002:000164b8       ??_C@_0BN@GDEKAJPO@Invalid?5descriptor?5type?50x?$CFX?$AA@ c0050eb8     AcpiSubsystem:exmisc.obj
 0002:000164d8       ??_C@_0CN@EACPACNE@Object?5?$CFp?5Type?5?$FL?$CFs?$FN?0?5returning?5R@ c0050ed8     AcpiSubsystem:exmisc.obj
 0002:0001654c       ??_C@_0BI@PEIDBNLN@Dynamic?5OEM?5Table?5Load?3?$AA@ c0050f4c     AcpiSubsystem:exconfig.obj
 0002:00016564       ??_C@_0BL@CPCMHGEJ@Load?5table?5from?5Region?5?$CFp?6?$AA@ c0050f64     AcpiSubsystem:exconfig.obj
 0002:00016580       ??_C@_0CE@BKGMJLFF@Load?5table?5from?5Buffer?5or?5Field?5@ c0050f80     AcpiSubsystem:exconfig.obj
 0002:000165a4       ??_C@_0CJ@EONLEOAP@Received?5request?5to?5unload?5an?5AC@ c0050fa4     AcpiSubsystem:exconfig.obj
 0002:000165e4       ??_C@_0BF@GDKMLLPD@Found?5table?5?$FL?$CF4?44s?$FN?6?$AA@ c0050fe4     AcpiSubsystem:tbfind.obj
 0002:00016638       ??_C@_0CI@COOGPJA@Truncating?5source?5buffer?5from?5?$CFX@ c0051038     AcpiSubsystem:exstorob.obj
 0002:00016660       ??_7CVMemMngr@@6B@         c0051060     basicpagingx86.obj
 0002:000166a4       ??_7CBasicPagingVmemMngr@@6B@ c00510a4     basicpagingx86.obj
 0002:000166e8       ??_7CChaiOSAPIClass@@6B@   c00510e8     basicpagingx86.obj
 0002:000166f0       ??_C@_0DA@NDPKACMN@Mimimum?5System?5Requirements?5for?5@ c00510f0     cpusetupx86.obj
 0002:00016720       ?sysreqfailstr@@3PADA      c0051120     cpusetupx86.obj
 0002:00016724       ?CharFromLevel@@3PA_WA     c0051124     bidi.obj
 0002:00016750       ?hexChars@@3PADA           c0051150     terminal_basicx86.obj
 0002:00016768       ?NTypes@@3PAHA             c0051168     bidi.obj
 0002:000167c0       ?actionWeak@@3PAY09HA      c00511c0     bidi.obj
 0002:00016ae0       ?stateWeak@@3PAY09HA       c00514e0     bidi.obj
 0002:00016e00       ?CharFromTypes@@3PA_WA     c0051800     bidi.obj
 0002:00016e28       ?TypesFromChar@@3PAHA      c0051828     bidi.obj
 0002:00017030       ?actionNeutrals@@3PAY04HA  c0051a30     bidi.obj
 0002:00018750       ?stateNeutrals@@3PAY04HA   c0053150     bidi.obj
 0002:00019320       ?addLevel@@3PAY03HA        c0053d20     bidi.obj
 0002:00019340       ?hexChars@@3PA_WA          c0053d40     terminal.obj
 0002:00019364       _noChar                    c0053d64     vgafont.obj
 0002:000248c0       ??_7CX86DefaultPMemMngr@@6B@ c005f2c0     pmmngrx86.obj
 0002:000248f0       ??_7CPMemMngr@@6B@         c005f2f0     pmmngrx86.obj
 0002:0002491c       ??_7CSpinlock@@6B@         c005f31c     pmmngrx86.obj
 0002:00024928       ??_C@_0DC@HKENCHKK@Sorry?0?5but?5ChaiOS?5has?5encountere@ c005f328     terminal_basicx86.obj
 0002:00024960       ??_C@_0FC@CLPGLAKB@Please?5reboot?5your?5computer?4?5If?5@ c005f360     terminal_basicx86.obj
 0002:000249b4       ??_C@_01EEMJAFIK@?6?$AA@   c005f3b4     terminal_basicx86.obj
 0002:000249b8       ??_C@_0N@KGBHMAML@Error?5code?3?5?$AA@ c005f3b8     terminal_basicx86.obj
 0002:000249c8       ??_C@_01CLKCMJKC@?5?$AA@   c005f3c8     terminal_basicx86.obj
 0002:000249cc       ??_C@_02MDDDDAID@0x?$AA@   c005f3cc     terminal_basicx86.obj
 0002:000249d0       ??_7CX86DefaultVMemMngr@@6B@ c005f3d0     vmmngrx86.obj
 0002:00024a20       ??_C@_0DJ@KJLFBID@ChaiOS?50?405?5Loaded?4?5Copyright?5?$CIC@ c005f420     entry.obj
 0002:00024a5c       ??_C@_0DK@BBIOCCNP@ChaiOS?50?405?5Loaded?4?5Copyright?5?$CIC@ c005f45c     entry.obj
 0002:00024a98       ??_C@_0O@PADHADKI@Zero?5modules?6?$AA@ c005f498     entry.obj
 0002:00024aa8       ??_C@_0CD@MEKPDADN@Error?5Initialising?5Physical?5Memo@ c005f4a8     entry.obj
 0002:00024acc       ??_C@_0CC@IIIOFJNB@Error?5Initialising?5Virtual?5Memor@ c005f4cc     entry.obj
 0002:00024af0       ??_C@_0BI@GNDLFBLK@Error?5Allocating?5Stack?$CB?$AA@ c005f4f0     entry.obj
 0002:00024b08       ??_C@_0BP@PGODJKNM@Memory?5Management?5Initialized?6?$AA@ c005f508     entry.obj
 0002:00024b28       ??_7CKernelGraphics@@6B@   c005f528     KernelGraphics.obj
 0002:00024b4c       ??_C@_0BN@JHCDMBMG@Hello?5from?5a?5thread?5with?5ID?5?$AA@ c005f54c     kmain.obj
 0002:00024b6c       ??_C@_0BL@BAAJIJBH@Thread?5is?5running?5on?5CPU?5?$CD?$AA@ c005f56c     kmain.obj
 0002:00024b88       ??_C@_13LBAGMAIH@?$AA?6?$AA?$AA@ c005f588     kmain.obj
 0002:00024b8c       ??_C@_0P@CINKDMEJ@Starting?5ACPI?6?$AA@ c005f58c     kmain.obj
 0002:00024b9c       ??_C@_0BF@KADPMELI@Preparing?5threading?6?$AA@ c005f59c     kmain.obj
 0002:00024bb4       ??_C@_0BF@BNFCAJNC@Kernel?5has?5a?5PID?5of?5?$AA@ c005f5b4     kmain.obj
 0002:00024bcc       ??_C@_0BL@PFIGLNLO@Kernel?5is?5running?5on?5CPU?5?$CD?$AA@ c005f5cc     kmain.obj
 0002:00024be8       ??_C@_0BM@NHAJJEDG@Created?5thread?5with?5TID?5of?5?$AA@ c005f5e8     kmain.obj
 0002:00024c04       ??_C@_0CB@KAHDEMLE@Was?5there?5a?5context?5switch?5yet?$DP?6@ c005f604     kmain.obj
 0002:00024c28       ??_7CMemory@@6B@           c005f628     memory.obj
 0002:00024c3c       ??_C@_0CH@HNKIJBLF@Error?5loading?5module?3?5ELF?5unsupp@ c005f63c     moduleload.obj
 0002:00024c64       ??_C@_0BG@NFICHPBD@Error?5loading?5module?6?$AA@ c005f664     moduleload.obj
 0002:00024c7c       ??_C@_0BG@IGJMMKCC@Error?5linking?5module?6?$AA@ c005f67c     moduleload.obj
 0002:00024c94       ??_C@_0BA@GLIKHBDL@Loading?5module?5?$AA@ c005f694     moduleload.obj
 0002:00024ca4       ??_C@_0O@OAEHLJOM@?5with?5base?5?3?5?$AA@ c005f6a4     moduleload.obj
 0002:00024cb4       ??_C@_0N@FCDBIHJF@?5and?5entry?3?5?$AA@ c005f6b4     moduleload.obj
 0002:00024cc4       ??_C@_0BJ@GIHDBMLN@?5Loading?5Ramdisk?5module?5?$AA@ c005f6c4     moduleload.obj
 0002:00024ce0       ??_C@_08BMLJFIMA@Ramdisk?5?$AA@ c005f6e0     moduleload.obj
 0002:00024cec       ??_C@_08HHGOGBDP@?5loaded?6?$AA@ c005f6ec     moduleload.obj
 0002:00024cf8       ??_C@_0CE@MIIKPGED@Error?5loading?5module?3?5unknown?5ty@ c005f6f8     moduleload.obj
 0002:00024d1c       ??_C@_0BE@BFCPAFIH@Loading?5modules?4?4?4?6?$AA@ c005f71c     moduleload.obj
 0002:00024d30       ??_C@_0N@OALDFIAI@Memory?5Error?$AA@ c005f730     moduleload.obj
 0002:00024d40       ??_C@_0M@EEHAEIFO@?5with?5base?5?$AA@ c005f740     moduleload.obj
 0002:00024d4c       ??_C@_0N@NIGGNDEI@?5and?5length?5?$AA@ c005f74c     moduleload.obj
 0002:00024d5c       ??_7CMultibootPMemMngr@@6B@ c005f75c     multiboot.obj
 0002:00024d88       ??_C@_0BF@IJBEOHIF@Ordinals?5Unsupported?$AA@ c005f788     PortableExecutable.obj
 0002:00024da0       ??_C@_0DN@LENBALBJ@Error?5loading?5module?3?5Cannot?5loa@ c005f7a0     PortableExecutable.obj
 0002:00024de0       ??_7CPortableExecutable@@6B@ c005f7e0     PortableExecutable.obj
 0002:00024e1c       ??_C@_15OEMMNBIC@?$AA0?$AAx?$AA?$AA@ c005f81c     terminal.obj
 0002:00024e24       ??_C@_1CK@KELBKECL@?$AAF?$AAu?$AAn?$AAc?$AAt?$AAi?$AAo?$AAn?$AA?5?$AAr?$AAe?$AAt?$AAu?$AAr?$AAn?$AAs?$AA?5?$AAt?$AAo?$AA?5?$AA?$AA@ c005f824     terminal.obj
 0002:00024e50       ??_C@_1CG@PHPBKBJF@?$AA?6?$AAW?$AAi?$AAt?$AAh?$AA?5?$AAS?$AAt?$AAa?$AAc?$AAk?$AA?5?$AAf?$AAr?$AAa?$AAm?$AAe?$AA?5?$AA?$AA@ c005f850     terminal.obj
 0002:00024e78       ??_C@_13HOIJIPNN@?$AA?5?$AA?$AA@ c005f878     terminal.obj
 0002:00024e7c       ??_C@_1BO@GAGJELIK@?$AAE?$AAx?$AAc?$AAe?$AAp?$AAt?$AAi?$AAo?$AAn?$AA?5?$AAa?$AAt?$AA?3?$AA?5?$AA?$AA@ c005f87c     terminal.obj
 0002:00024e9c       ??_C@_1BA@FDPNOJKK@?$AA?0?$AA?5?$AAl?$AAi?$AAn?$AAe?$AA?5?$AA?$AA@ c005f89c     terminal.obj
 0002:00024eac       ??_7CKernelTerminal@@6B@   c005f8ac     terminal.obj
 0002:00024ed4       __real@3f000000            c005f8d4     basicphyscopy.obj
 0002:00024ed8       __real@3ff0000000000000    c005f8d8     basicphyscopy.obj
 0002:00024ee0       __real@406fe00000000000    c005f8e0     basicphyscopy.obj
 0002:00024ef0       __xmm@00000bad0000000f0000000500000001 c005f8f0     basicphyscopy.obj
 0002:00024f00       __xmm@41f00000000000000000000000000000 c005f900     basicphyscopy.obj
 0003:00000010       _AcpiGbl_AutoSerializeMethods c005fa10     AcpiSubsystem:utglobal.obj
 0003:00000011       _AcpiGbl_CreateOsiMethod   c005fa11     AcpiSubsystem:utglobal.obj
 0003:00000012       _AcpiGbl_UseDefaultRegisterWidths c005fa12     AcpiSubsystem:utglobal.obj
 0003:00000013       _AcpiGbl_VerifyTableChecksum c005fa13     AcpiSubsystem:utglobal.obj
 0003:00000014       _AcpiGbl_Use32BitFacsAddresses c005fa14     AcpiSubsystem:utglobal.obj
 0003:00000015       _AcpiGbl_RuntimeNamespaceOverride c005fa15     AcpiSubsystem:utglobal.obj
 0003:00000016       _AcpiGbl_Shutdown          c005fa16     AcpiSubsystem:utglobal.obj
 0003:00000017       _AcpiGbl_DbOutputFlags     c005fa17     AcpiSubsystem:utglobal.obj
 0003:00000018       _AcpiDbgLevel              c005fa18     AcpiSubsystem:utglobal.obj
 0003:0000001c       _AcpiDbgLayer              c005fa1c     AcpiSubsystem:utglobal.obj
 0003:00000020       _AcpiGbl_SleepStateNames   c005fa20     AcpiSubsystem:utglobal.obj
 0003:00000038       _AcpiGbl_LowestDstateNames c005fa38     AcpiSubsystem:utglobal.obj
 0003:0000004c       _AcpiGbl_HighestDstateNames c005fa4c     AcpiSubsystem:utglobal.obj
 0003:0000005c       _AcpiGbl_CstyleDisassembly c005fa5c     AcpiSubsystem:utglobal.obj
 0003:00000060       _AcpiGbl_BitRegisterInfo   c005fa60     AcpiSubsystem:utglobal.obj
 0003:000000b0       _AcpiGbl_FixedEventInfo    c005fab0     AcpiSubsystem:utglobal.obj
 0003:00000198       _AcpiGbl_DefaultAddressSpaces c005fb98     AcpiSubsystem:evhandler.obj
 0003:000001a0       _AcpiGbl_RegionTypes       c005fba0     AcpiSubsystem:utdecode.obj
 0003:0000055c       _AcpiGbl_NextCmdNum        c005ff5c     AcpiSubsystem:dbhistry.obj
 0003:000005e8       _AcpiGbl_WordDecode        c005ffe8     AcpiSubsystem:dmutils.obj
 0003:000005f8       _AcpiGbl_IrqDecode         c005fff8     AcpiSubsystem:dmutils.obj
 0003:00000600       _AcpiGbl_LockRule          c0060000     AcpiSubsystem:dmutils.obj
 0003:00000608       _AcpiGbl_AccessTypes       c0060008     AcpiSubsystem:dmutils.obj
 0003:00000628       _AcpiGbl_UpdateRules       c0060028     AcpiSubsystem:dmutils.obj
 0003:00000638       _AcpiGbl_MatchOps          c0060038     AcpiSubsystem:dmutils.obj
 0003:00000668       _AcpiGbl_BmDecode          c0060068     AcpiSubsystem:utresrc.obj
 0003:00000670       _AcpiGbl_ConfigDecode      c0060070     AcpiSubsystem:utresrc.obj
 0003:00000680       _AcpiGbl_ConsumeDecode     c0060080     AcpiSubsystem:utresrc.obj
 0003:00000688       _AcpiGbl_DecDecode         c0060088     AcpiSubsystem:utresrc.obj
 0003:00000690       _AcpiGbl_HeDecode          c0060090     AcpiSubsystem:utresrc.obj
 0003:00000698       _AcpiGbl_IoDecode          c0060098     AcpiSubsystem:utresrc.obj
 0003:000006a0       _AcpiGbl_LlDecode          c00600a0     AcpiSubsystem:utresrc.obj
 0003:000006b0       _AcpiGbl_MaxDecode         c00600b0     AcpiSubsystem:utresrc.obj
 0003:000006b8       _AcpiGbl_MemDecode         c00600b8     AcpiSubsystem:utresrc.obj
 0003:000006c8       _AcpiGbl_MinDecode         c00600c8     AcpiSubsystem:utresrc.obj
 0003:000006d0       _AcpiGbl_MtpDecode         c00600d0     AcpiSubsystem:utresrc.obj
 0003:000006e0       _AcpiGbl_RngDecode         c00600e0     AcpiSubsystem:utresrc.obj
 0003:000006f0       _AcpiGbl_RwDecode          c00600f0     AcpiSubsystem:utresrc.obj
 0003:000006f8       _AcpiGbl_ShrDecode         c00600f8     AcpiSubsystem:utresrc.obj
 0003:00000708       _AcpiGbl_SizDecode         c0060108     AcpiSubsystem:utresrc.obj
 0003:00000718       _AcpiGbl_TrsDecode         c0060118     AcpiSubsystem:utresrc.obj
 0003:00000720       _AcpiGbl_TtpDecode         c0060120     AcpiSubsystem:utresrc.obj
 0003:00000728       _AcpiGbl_TypDecode         c0060128     AcpiSubsystem:utresrc.obj
 0003:00000738       _AcpiGbl_PpcDecode         c0060138     AcpiSubsystem:utresrc.obj
 0003:00000748       _AcpiGbl_IorDecode         c0060148     AcpiSubsystem:utresrc.obj
 0003:00000758       _AcpiGbl_DtsDecode         c0060158     AcpiSubsystem:utresrc.obj
 0003:00000770       _AcpiGbl_CtDecode          c0060170     AcpiSubsystem:utresrc.obj
 0003:00000778       _AcpiGbl_SbtDecode         c0060178     AcpiSubsystem:utresrc.obj
 0003:00000788       _AcpiGbl_AmDecode          c0060188     AcpiSubsystem:utresrc.obj
 0003:00000790       _AcpiGbl_SmDecode          c0060190     AcpiSubsystem:utresrc.obj
 0003:00000798       _AcpiGbl_WmDecode          c0060198     AcpiSubsystem:utresrc.obj
 0003:000007a0       _AcpiGbl_CphDecode         c00601a0     AcpiSubsystem:utresrc.obj
 0003:000007a8       _AcpiGbl_CpoDecode         c00601a8     AcpiSubsystem:utresrc.obj
 0003:000007b0       _AcpiGbl_DpDecode          c00601b0     AcpiSubsystem:utresrc.obj
 0003:000007b8       _AcpiGbl_EdDecode          c00601b8     AcpiSubsystem:utresrc.obj
 0003:000007c0       _AcpiGbl_BpbDecode         c00601c0     AcpiSubsystem:utresrc.obj
 0003:000007e0       _AcpiGbl_SbDecode          c00601e0     AcpiSubsystem:utresrc.obj
 0003:000007f0       _AcpiGbl_FcDecode          c00601f0     AcpiSubsystem:utresrc.obj
 0003:00000800       _AcpiGbl_PtDecode          c0060200     AcpiSubsystem:utresrc.obj
 0003:000008d0       _AcpiGbl_SetResourceDispatch c00602d0     AcpiSubsystem:rsinfo.obj
 0003:00000920       _AcpiGbl_GetResourceDispatch c0060320     AcpiSubsystem:rsinfo.obj
 0003:0000099c       _AcpiGbl_ConvertResourceSerialBusDispatch c006039c     AcpiSubsystem:rsinfo.obj
 0003:000009b0       _AcpiGbl_DumpResourceDispatch c00603b0     AcpiSubsystem:rsinfo.obj
 0003:00000a00       _AcpiGbl_DumpSerialBusDispatch c0060400     AcpiSubsystem:rsinfo.obj
 0003:00000a50       ?gdt@@3PA_KA               c0060450     basicsegmentationx86.obj
 0003:00000a88       ?thegdt@@3Ugdtdesc@@A      c0060488     basicsegmentationx86.obj
 0003:00000aa0       ?kernelEntry@@3U_DLL_LIST_ENTRY@@A c00604a0     moduleload.obj
 0003:00000b28       ?DefaultPMemMngr@@3VCX86DefaultPMemMngr@@A c0060528     pmmngrx86.obj
 0003:00000b58       ?output_spinlock_test@@3VCSpinlock@@A c0060558     kmain.obj
 0003:00000b90       ?theterm@@3VCKernelTerminal@@A c0060590     terminal.obj
 0003:00000bc0       __fltused                  c00605c0     msvc.obj
 0003:00000d28       _AcpiGbl_EnableInterpreterSlack c0060728     AcpiSubsystem:utglobal.obj
 0003:00000d29       _AcpiGbl_EnableAmlDebugObject c0060729     AcpiSubsystem:utglobal.obj
 0003:00000d2a       _AcpiGbl_CopyDsdtLocally   c006072a     AcpiSubsystem:utglobal.obj
 0003:00000d2b       _AcpiGbl_DoNotUseXsdt      c006072b     AcpiSubsystem:utglobal.obj
 0003:00000d2c       _AcpiGbl_Use32BitFadtAddresses c006072c     AcpiSubsystem:utglobal.obj
 0003:00000d2d       _AcpiGbl_TruncateIoAddresses c006072d     AcpiSubsystem:utglobal.obj
 0003:00000d2e       _AcpiGbl_DisableAutoRepair c006072e     AcpiSubsystem:utglobal.obj
 0003:00000d2f       _AcpiGbl_DisableSsdtTableInstall c006072f     AcpiSubsystem:utglobal.obj
 0003:00000d30       _AcpiGbl_OsiData           c0060730     AcpiSubsystem:utglobal.obj
 0003:00000d31       _AcpiGbl_ReducedHardware   c0060731     AcpiSubsystem:utglobal.obj
 0003:00000d32       _AcpiGbl_NoResourceDisassembly c0060732     AcpiSubsystem:utglobal.obj
 0003:00000d33       _AcpiGbl_IgnoreNoopOperator c0060733     AcpiSubsystem:utglobal.obj
 0003:00000d34       _AcpiGbl_TraceFlags        c0060734     AcpiSubsystem:utglobal.obj
 0003:00000d38       _AcpiGbl_TraceMethodName   c0060738     AcpiSubsystem:utglobal.obj
 0003:00000d3c       _AcpiGbl_StartupFlags      c006073c     AcpiSubsystem:utglobal.obj
 0003:00000d40       _AcpiGbl_NestingLevel      c0060740     AcpiSubsystem:utglobal.obj
 0003:00000d44       _AcpiGbl_ForceAmlDisassembly c0060744     AcpiSubsystem:utglobal.obj
 0003:00000d45       _AcpiGbl_DbTerminateThreads c0060745     AcpiSubsystem:utglobal.obj
 0003:00000d46       _AcpiGbl_AbortMethod       c0060746     AcpiSubsystem:utglobal.obj
 0003:00000d47       _AcpiGbl_MethodExecuting   c0060747     AcpiSubsystem:utglobal.obj
 0003:00001120       ?cpuidout@@3PAHA           c0060b20     cpusetupx86.obj
 0003:00001138       ?multiboot@@3PAU_MULTIBOOT_INFO@@A c0060b38     entry.obj
 0003:0000113c       ?threadHasRun@@3_NC        c0060b3c     kmain.obj
 0003:00001140       ?mbinfo@@3U_MULTIBOOT_INFO@@A c0060b40     entry.obj
 0003:000011b0       ?l_freePages@@3PAPAUboundary_tag@@A c0060bb0     liballoc.obj
 0003:00001230       ?l_completePages@@3PAHA    c0060c30     liballoc.obj
 0003:00001308       ?VMemMngr@@3VCX86DefaultVMemMngr@@A c0060d08     vmmngrx86.obj
 0003:00001b60       _AcpiGbl_NumObjects        c0061560     <common>
 0003:00001b64       _AcpiGbl_NumNodes          c0061564     <common>
 0003:00001b68       _AcpiGbl_NodeTypeCountMisc c0061568     <common>
 0003:00001b6a       _AcpiGbl_ObjTypeCountMisc  c006156a     <common>
 0003:00001b80       _AcpiGbl_NodeTypeCount     c0061580     <common>
 0003:00001bc0       _AcpiGbl_ObjTypeCount      c00615c0     <common>
 0003:00001c00       _AcpiGbl_DbDebugFilename   c0061600     <common>
 0003:00001e00       _AcpiGbl_DbScopeBuf        c0061800     <common>
 0003:00002000       _AcpiGbl_DbParsedBuf       c0061a00     <common>
 0003:00002200       _AcpiGbl_DbLineBuf         c0061c00     <common>
 0003:00002400       _AcpiGbl_DbArgTypes        c0061e00     <common>
 0003:00002440       _AcpiGbl_DbArgs            c0061e40     <common>
 0003:0000246c       _AcpiGbl_DbScopeNode       c0061e6c     <common>
 0003:00002470       _AcpiGbl_DbConsoleDebugLevel c0061e70     <common>
 0003:00002474       _AcpiGbl_DbDebugLevel      c0061e74     <common>
 0003:00002478       _AcpiGbl_DbFilename        c0061e78     <common>
 0003:0000247c       _AcpiGbl_DbBuffer          c0061e7c     <common>
 0003:00002480       _AcpiGbl_DbOutputToFile    c0061e80     <common>
 0003:00002481       _AcpiGbl_DbOpt_NoRegionSupport c0061e81     <common>
 0003:00002482       _AcpiGbl_DbOpt_NoIniMethods c0061e82     <common>
 0003:00002484       _AcpiGbl_ExternalFileList  c0061e84     <common>
 0003:00002488       _AcpiGbl_ExternalList      c0061e88     <common>
 0003:0000248c       _AcpiGbl_ResolvedExternalMethods c0061e8c     <common>
 0003:00002490       _AcpiGbl_NumExternalMethods c0061e90     <common>
 0003:00002491       _AcpiGbl_DbOpt_Verbose     c0061e91     <common>
 0003:00002492       _AcpiGbl_DbOpt_Disasm      c0061e92     <common>
 0003:00002494       _AcpiGbl_TraceDbgLayer     c0061e94     <common>
 0003:00002498       _AcpiGbl_TraceDbgLevel     c0061e98     <common>
 0003:0000249c       _AcpiGbl_OriginalDbgLayer  c0061e9c     <common>
 0003:000024a0       _AcpiGbl_OriginalDbgLevel  c0061ea0     <common>
 0003:000024c0       _AcpiFixedEventCount       c0061ec0     <common>
 0003:000024d4       _AcpiSciCount              c0061ed4     <common>
 0003:000024d8       _AcpiGpeCount              c0061ed8     <common>
 0003:000024dc       _AcpiMethodCount           c0061edc     <common>
 0003:000024e0       _AcpiGbl_FixedEventHandlers c0061ee0     <common>
 0003:00002508       _AcpiGbl_GlobalEventHandlerContext c0061f08     <common>
 0003:0000250c       _AcpiGbl_GlobalEventHandler c0061f0c     <common>
 0003:00002510       _AcpiGbl_GpeFadtBlocks     c0061f10     <common>
 0003:00002518       _AcpiGbl_GpeXruptListHead  c0061f18     <common>
 0003:0000251c       _AcpiGbl_AllGpesInitialized c0061f1c     <common>
 0003:0000251d       _AcpiGbl_SleepTypeB        c0061f1d     <common>
 0003:0000251e       _AcpiGbl_SleepTypeA        c0061f1e     <common>
 0003:0000251f       _AcpiGbl_CmSingleStep      c0061f1f     <common>
 0003:00002520       _AcpiGbl_CurrentWalkList   c0061f20     <common>
 0003:00002524       _AcpiGbl_DeepestNesting    c0061f24     <common>
 0003:00002528       _AcpiGbl_LowestStackPointer c0061f28     <common>
 0003:0000252c       _AcpiGbl_EntryStackPointer c0061f2c     <common>
 0003:00002530       _AcpiGbl_MaxConcurrentNodeCount c0061f30     <common>
 0003:00002534       _AcpiGbl_CurrentNodeSize   c0061f34     <common>
 0003:00002538       _AcpiGbl_CurrentNodeCount  c0061f38     <common>
 0003:0000253c       _AcpiGbl_ModuleCodeList    c0061f3c     <common>
 0003:00002540       _AcpiGbl_FadtGpeDevice     c0061f40     <common>
 0003:00002544       _AcpiGbl_RootNode          c0061f44     <common>
 0003:00002560       _AcpiGbl_RootNodeStruct    c0061f60     <common>
 0003:00002578       _AcpiGbl_AddressRangeList  c0061f78     <common>
 0003:00002580       _AcpiGbl_SupportedInterfaces c0061f80     <common>
 0003:00002584       _AcpiGbl_EventsInitialized c0061f84     <common>
 0003:00002585       _AcpiGbl_AcpiHardwarePresent c0061f85     <common>
 0003:00002586       _AcpiGbl_StepToNextCall    c0061f86     <common>
 0003:00002587       _AcpiGbl_DebuggerConfiguration c0061f87     <common>
 0003:00002588       _AcpiGbl_Pm1EnableRegisterSave c0061f88     <common>
 0003:0000258c       _AcpiGbl_PsFindCount       c0061f8c     <common>
 0003:00002590       _AcpiGbl_NsLookupCount     c0061f90     <common>
 0003:00002594       _AcpiGbl_OriginalMode      c0061f94     <common>
 0003:00002598       _AcpiGbl_RegMethodsExecuted c0061f98     <common>
 0003:00002599       _AcpiGbl_NextOwnerIdOffset c0061f99     <common>
 0003:0000259a       _AcpiGbl_LastOwnerIdIndex  c0061f9a     <common>
 0003:000025a0       _AcpiGbl_OwnerIdMask       c0061fa0     <common>
 0003:000025c0       _AcpiGbl_SciHandlerList    c0061fc0     <common>
 0003:000025c4       _AcpiGbl_InterfaceHandler  c0061fc4     <common>
 0003:000025c8       _AcpiGbl_TableHandlerContext c0061fc8     <common>
 0003:000025cc       _AcpiGbl_TableHandler      c0061fcc     <common>
 0003:000025d0       _AcpiGbl_InitHandler       c0061fd0     <common>
 0003:000025d4       _AcpiGbl_ExceptionHandler  c0061fd4     <common>
 0003:000025e0       _AcpiGbl_GlobalNotify      c0061fe0     <common>
 0003:000025f0       _AcpiGbl_OperandCache      c0061ff0     <common>
 0003:000025f4       _AcpiGbl_PsNodeExtCache    c0061ff4     <common>
 0003:000025f8       _AcpiGbl_PsNodeCache       c0061ff8     <common>
 0003:000025fc       _AcpiGbl_StateCache        c0061ffc     <common>
 0003:00002600       _AcpiGbl_NamespaceCache    c0062000     <common>
 0003:00002610       _AcpiGbl_NamespaceRwLock   c0062010     <common>
 0003:0000261c       _AcpiGbl_OsiMutex          c006201c     <common>
 0003:00002620       _AcpiGbl_ReferenceCountLock c0062020     <common>
 0003:00002624       _AcpiGbl_HardwareLock      c0062024     <common>
 0003:00002628       _AcpiGbl_GpeLock           c0062028     <common>
 0003:0000262c       _AcpiGbl_GlobalLockPending c006202c     <common>
 0003:0000262d       _AcpiGbl_GlobalLockPresent c006202d     <common>
 0003:0000262e       _AcpiGbl_GlobalLockAcquired c006202e     <common>
 0003:00002630       _AcpiGbl_GlobalLockHandle  c0062030     <common>
 0003:00002634       _AcpiGbl_GlobalLockPendingLock c0062034     <common>
 0003:00002638       _AcpiGbl_GlobalLockSemaphore c0062038     <common>
 0003:0000263c       _AcpiGbl_GlobalLockMutex   c006203c     <common>
 0003:00002640       _AcpiGbl_MutexInfo         c0062040     <common>
 0003:000026c0       _AcpiGbl_IntegerNybbleWidth c00620c0     <common>
 0003:000026c1       _AcpiGbl_IntegerByteWidth  c00620c1     <common>
 0003:000026c2       _AcpiGbl_IntegerBitWidth   c00620c2     <common>
 0003:000026d0       _AcpiGbl_XPm1bEnable       c00620d0     <common>
 0003:000026e0       _AcpiGbl_XPm1bStatus       c00620e0     <common>
 0003:000026f0       _AcpiGbl_XPm1aEnable       c00620f0     <common>
 0003:00002700       _AcpiGbl_XPm1aStatus       c0062100     <common>
 0003:0000270c       _AcpiGbl_Facs64            c006210c     <common>
 0003:00002710       _AcpiGbl_Facs32            c0062110     <common>
 0003:00002714       _AcpiGbl_FACS              c0062114     <common>
 0003:00002720       _AcpiGbl_OriginalDsdtHeader c0062120     <common>
 0003:00002744       _AcpiGbl_DSDT              c0062144     <common>
 0003:00002750       _AcpiGbl_RootTableList     c0062150     <common>
 0003:0000275d       _AcpiGbl_SystemAwakeAndRunning c006215d     <common>
 0003:00002760       _AcpiCurrentGpeCount       c0062160     <common>
 0003:00002780       _AcpiGbl_FADT              c0062180     <common>
 0006:00000000       __IMPORT_DESCRIPTOR_kcstdlib c0062a00     kcstdlib:kcstdlib.dll
 0006:00000014       __IMPORT_DESCRIPTOR_Hal    c0062a14     hal:Hal.dll
 0006:00000028       __NULL_IMPORT_DESCRIPTOR   c0062a28     kcstdlib:kcstdlib.dll

 entry point at        0000:00000000

 Static symbols

 0000:fff98600       .debug$S                   c0000000     kcstdlib:kcstdlib.dll
 0000:fff98600       .debug$S                   c0000000     kcstdlib:kcstdlib.dll
 0000:fff98600       .debug$S                   c0000000     kcstdlib:kcstdlib.dll
 0000:fff98600       .debug$S                   c0000000     kcstdlib:kcstdlib.dll
 0000:fff98600       .debug$S                   c0000000     kcstdlib:kcstdlib.dll
 0000:fff98600       .debug$S                   c0000000     kcstdlib:kcstdlib.dll
 0000:fff98600       .debug$S                   c0000000     kcstdlib:kcstdlib.dll
 0000:fff98600       .debug$S                   c0000000     hal:Hal.dll
 0000:fff98600       .debug$S                   c0000000     kcstdlib:kcstdlib.dll
 0000:fff98600       .debug$S                   c0000000     kcstdlib:kcstdlib.dll
 0001:00000087       _interrupt.normalint       c0000487     crtbase:generalasmx86.obj
 0001:0000008c       _interrupt.actInt          c000048c     crtbase:generalasmx86.obj
 0001:000000d3       _longjmp.next              c00004d3     crtbase:generalasmx86.obj
 0001:000000e0       ??__EVMemMngr@@YAXXZ       c00004e0 f   * CIL library *:* CIL module *
 0001:00000100       ??__EDefaultPMemMngr@@YAXXZ c0000500 f   * CIL library *:* CIL module *
 0001:00000110       ??__EVMemMngr@@YAXXZ       c0000510 f   * CIL library *:* CIL module *
 0001:00000130       ??__Ethegraphics@@YAXXZ    c0000530 f   * CIL library *:* CIL module *
 0001:00000140       ??__Eoutput_spinlock_test@@YAXXZ c0000540 f   * CIL library *:* CIL module *
 0001:00000150       ??__Elalloc_lock@@YAXXZ    c0000550 f   * CIL library *:* CIL module *
 0001:00000160       ??__EdefMemoryManager@@YAXXZ c0000560 f   * CIL library *:* CIL module *
 0001:00000170       ??__EMBPmemMngr@@YAXXZ     c0000570 f   * CIL library *:* CIL module *
 0001:00000180       ??__Etheterm@@YAXXZ        c0000580 f   * CIL library *:* CIL module *
 0001:00000a40       ??0<lambda_ee454312d565301926110282a0c617e5>@@QAE@ABQAVCPMemMngr@@AAU__PMMAP_TRANSFER_ENTRY@1@AB_NABI33@Z c0000e40 f   * CIL library *:* CIL module *
 0001:00000a80       ??R<lambda_ee454312d565301926110282a0c617e5>@@QBEXXZ c0000e80 f   * CIL library *:* CIL module *
 0001:00000ac0       ??0<lambda_f3b5ff83315d154b623f5babbb67c967>@@QAE@ABV<lambda_ee454312d565301926110282a0c617e5>@@AAPAIAAIAAU__PMMAP_TRANSFER_ENTRY@CPMemMngr@@AA_N22ABI@Z c0000ec0 f   * CIL library *:* CIL module *
 0001:00000b10       ??R<lambda_f3b5ff83315d154b623f5babbb67c967>@@QBEXXZ c0000f10 f   * CIL library *:* CIL module *
 0001:00001300       ?sztoa@@YAPADIPADH@Z       c0001700 f   * CIL library *:* CIL module *
 0001:00002498       $LN24                      c0002898     * CIL library *:* CIL module *
 0001:000028a0       $LN37                      c0002ca0     * CIL library *:* CIL module *
 0001:000028ac       $LN34                      c0002cac     * CIL library *:* CIL module *
 0001:00002adc       $LN18                      c0002edc     * CIL library *:* CIL module *
 0001:00002ae4       $LN16                      c0002ee4     * CIL library *:* CIL module *
 0001:000039c0       ??$swap@N@@YAXAAN0@Z       c0003dc0 f   * CIL library *:* CIL module *
 0001:00003cf0       ??R<lambda_196b2b0a35545550236a1a0b88035330>@@QBEHPBD@Z c00040f0 f   * CIL library *:* CIL module *
 0001:00003d10       ?<helper_func_cdecl>@<lambda_196b2b0a35545550236a1a0b88035330>@@CAHPBD@Z c0004110 f   * CIL library *:* CIL module *
 0001:00003d30       ??B<lambda_196b2b0a35545550236a1a0b88035330>@@QBEP6AHPBD@ZXZ c0004130 f   * CIL library *:* CIL module *
 0001:00003d40       ?<helper_func_stdcall>@<lambda_196b2b0a35545550236a1a0b88035330>@@CGHPBD@Z c0004140 f   * CIL library *:* CIL module *
 0001:00003d60       ??B<lambda_196b2b0a35545550236a1a0b88035330>@@QBEP6GHPBD@ZXZ c0004160 f   * CIL library *:* CIL module *
 0001:00003d70       ?<helper_func_fastcall>@<lambda_196b2b0a35545550236a1a0b88035330>@@CIHPBD@Z c0004170 f   * CIL library *:* CIL module *
 0001:00003d80       ??B<lambda_196b2b0a35545550236a1a0b88035330>@@QBEP6IHPBD@ZXZ c0004180 f   * CIL library *:* CIL module *
 0001:00003d90       ?<helper_func_vectorcall>@<lambda_196b2b0a35545550236a1a0b88035330>@@CQHPBD@Z c0004190 f   * CIL library *:* CIL module *
 0001:00003da0       ??B<lambda_196b2b0a35545550236a1a0b88035330>@@QBEP6QHPBD@ZXZ c00041a0 f   * CIL library *:* CIL module *
 0001:00003db0       ??R<lambda_f614a4fa02c9a4da664af17d78f88967>@@QBEHPBD@Z c00041b0 f   * CIL library *:* CIL module *
 0001:00003dd0       ?<helper_func_cdecl>@<lambda_f614a4fa02c9a4da664af17d78f88967>@@CAHPBD@Z c00041d0 f   * CIL library *:* CIL module *
 0001:00003df0       ??B<lambda_f614a4fa02c9a4da664af17d78f88967>@@QBEP6AHPBD@ZXZ c00041f0 f   * CIL library *:* CIL module *
 0001:00003e00       ?<helper_func_stdcall>@<lambda_f614a4fa02c9a4da664af17d78f88967>@@CGHPBD@Z c0004200 f   * CIL library *:* CIL module *
 0001:00003e20       ??B<lambda_f614a4fa02c9a4da664af17d78f88967>@@QBEP6GHPBD@ZXZ c0004220 f   * CIL library *:* CIL module *
 0001:00003e30       ?<helper_func_fastcall>@<lambda_f614a4fa02c9a4da664af17d78f88967>@@CIHPBD@Z c0004230 f   * CIL library *:* CIL module *
 0001:00003e40       ??B<lambda_f614a4fa02c9a4da664af17d78f88967>@@QBEP6IHPBD@ZXZ c0004240 f   * CIL library *:* CIL module *
 0001:00003e50       ?<helper_func_vectorcall>@<lambda_f614a4fa02c9a4da664af17d78f88967>@@CQHPBD@Z c0004250 f   * CIL library *:* CIL module *
 0001:00003e60       ??B<lambda_f614a4fa02c9a4da664af17d78f88967>@@QBEP6QHPBD@ZXZ c0004260 f   * CIL library *:* CIL module *
 0001:00004040       ?getexp@@YAHI@Z            c0004440 f   * CIL library *:* CIL module *
 0001:00004070       ?liballoc_memset@@YAPAXPAXHI@Z c0004470 f   * CIL library *:* CIL module *
 0001:000040a0       ?liballoc_memcpy@@YAPAXPAXPBXI@Z c00044a0 f   * CIL library *:* CIL module *
 0001:000040f0       ?insert_tag@@YAXPAUboundary_tag@@H@Z c00044f0 f   * CIL library *:* CIL module *
 0001:00004150       ?remove_tag@@YAXPAUboundary_tag@@@Z c0004550 f   * CIL library *:* CIL module *
 0001:000041a0       ?melt_left@@YAPAUboundary_tag@@PAU1@@Z c00045a0 f   * CIL library *:* CIL module *
 0001:000041c0       ?absorb_right@@YAPAUboundary_tag@@PAU1@@Z c00045c0 f   * CIL library *:* CIL module *
 0001:00004230       ?split_tag@@YAPAUboundary_tag@@PAU1@@Z c0004630 f   * CIL library *:* CIL module *
 0001:000042c0       ?allocate_new_tag@@YAPAUboundary_tag@@I@Z c00046c0 f   * CIL library *:* CIL module *
 0001:00004940       ?loadModule@@YAXPAXPADI_N@Z c0004d40 f   * CIL library *:* CIL module *
 0001:000053f0       ?toUpper@@YADD@Z           c00057f0 f   * CIL library *:* CIL module *
 0001:00005410       ?strcmp@@YAHPBD0@Z         c0005810 f   * CIL library *:* CIL module *
 0001:00005430       ?strcasecmp@@YAHPBD0@Z     c0005830 f   * CIL library *:* CIL module *
 0001:00005c50       ?sztoa@@YAPA_WIPA_WH@Z     c0006050 f   * CIL library *:* CIL module *
 0001:00006310       ?_initterm@@YAXPAP6AXXZ0@Z c0006710 f   msvc.obj
 0001:00006350       ?_initterm_e@@YAHPAP6AHXZ0@Z c0006750 f   msvc.obj
 0001:00006402       ?<helper_func_cdecl>@<lambda_0030d1bc83156ef83091a3e578c20c91>@@CAXH@Z c0006802 f   AcpiSubsystem:ChaiOSL.obj
 0001:00006403       ?<helper_func_cdecl>@<lambda_5f7967e3196adc6b9840c3d9dbfef4ae>@@CAXH@Z c0006803 f   AcpiSubsystem:ChaiOSL.obj
 0001:00006404       ?<helper_func_fastcall>@<lambda_0030d1bc83156ef83091a3e578c20c91>@@CIXH@Z c0006804 f   AcpiSubsystem:ChaiOSL.obj
 0001:00006405       ?<helper_func_fastcall>@<lambda_5f7967e3196adc6b9840c3d9dbfef4ae>@@CIXH@Z c0006805 f   AcpiSubsystem:ChaiOSL.obj
 0001:00006406       ?<helper_func_stdcall>@<lambda_0030d1bc83156ef83091a3e578c20c91>@@CGXH@Z c0006806 f   AcpiSubsystem:ChaiOSL.obj
 0001:00006409       ?<helper_func_stdcall>@<lambda_5f7967e3196adc6b9840c3d9dbfef4ae>@@CGXH@Z c0006809 f   AcpiSubsystem:ChaiOSL.obj
 0001:0000640c       ?<helper_func_vectorcall>@<lambda_0030d1bc83156ef83091a3e578c20c91>@@CQXH@Z c000680c f   AcpiSubsystem:ChaiOSL.obj
 0001:0000640d       ?<helper_func_vectorcall>@<lambda_5f7967e3196adc6b9840c3d9dbfef4ae>@@CQXH@Z c000680d f   AcpiSubsystem:ChaiOSL.obj
 0001:0000640e       ??B<lambda_0030d1bc83156ef83091a3e578c20c91>@@QBEP6AXH@ZXZ c000680e f   AcpiSubsystem:ChaiOSL.obj
 0001:00006414       ??B<lambda_0030d1bc83156ef83091a3e578c20c91>@@QBEP6GXH@ZXZ c0006814 f   AcpiSubsystem:ChaiOSL.obj
 0001:0000641a       ??B<lambda_0030d1bc83156ef83091a3e578c20c91>@@QBEP6IXH@ZXZ c000681a f   AcpiSubsystem:ChaiOSL.obj
 0001:00006420       ??B<lambda_0030d1bc83156ef83091a3e578c20c91>@@QBEP6QXH@ZXZ c0006820 f   AcpiSubsystem:ChaiOSL.obj
 0001:00006426       ??B<lambda_5f7967e3196adc6b9840c3d9dbfef4ae>@@QBEP6AXH@ZXZ c0006826 f   AcpiSubsystem:ChaiOSL.obj
 0001:0000642c       ??B<lambda_5f7967e3196adc6b9840c3d9dbfef4ae>@@QBEP6GXH@ZXZ c000682c f   AcpiSubsystem:ChaiOSL.obj
 0001:00006432       ??B<lambda_5f7967e3196adc6b9840c3d9dbfef4ae>@@QBEP6IXH@ZXZ c0006832 f   AcpiSubsystem:ChaiOSL.obj
 0001:00006438       ??B<lambda_5f7967e3196adc6b9840c3d9dbfef4ae>@@QBEP6QXH@ZXZ c0006838 f   AcpiSubsystem:ChaiOSL.obj
 0001:0000643e       ??R<lambda_0030d1bc83156ef83091a3e578c20c91>@@QBEXH@Z c000683e f   AcpiSubsystem:ChaiOSL.obj
 0001:00006441       ??R<lambda_5f7967e3196adc6b9840c3d9dbfef4ae>@@QBEXH@Z c0006841 f   AcpiSubsystem:ChaiOSL.obj
 0001:00006461       ?InterruptHelper@@YIXIII@Z c0006861 f   AcpiSubsystem:ChaiOSL.obj
 0001:000077ed       _AcpiUtTrimFunctionName    c0007bed f   AcpiSubsystem:utdebug.obj
 0001:0000794e       _AcpiUtCreateMutex         c0007d4e f   AcpiSubsystem:utmutex.obj
 0001:000079bf       _AcpiUtDeleteMutex         c0007dbf f   AcpiSubsystem:utmutex.obj
 0001:000087f4       _AcpiTbGetRootTableEntry   c0008bf4 f   AcpiSubsystem:tbutils.obj
 0001:0000999d       _AcpiUtFreeGpeLists        c0009d9d f   AcpiSubsystem:utinit.obj
 0001:00009c16       _AcpiUtTerminate           c000a016 f   AcpiSubsystem:utinit.obj
 0001:0000a06d       _AcpiEvFixedEventDispatch  c000a46d f   AcpiSubsystem:evevent.obj
 0001:0000a0d8       _AcpiEvFixedEventInitialize c000a4d8 f   AcpiSubsystem:evevent.obj
 0001:0000a2b0       _AcpiEvInstallHandler      c000a6b0 f   AcpiSubsystem:evhandler.obj
 0001:0000ae7c       _AcpiEvOrphanEcRegMethod   c000b27c f   AcpiSubsystem:evregion.obj
 0001:0000af5e       _AcpiEvRegRun              c000b35e f   AcpiSubsystem:evregion.obj
 0001:0000afa8       _AcpiNsFindIniMethods      c000b3a8 f   AcpiSubsystem:nsinit.obj
 0001:0000aff0       _AcpiNsInitOneDevice       c000b3f0 f   AcpiSubsystem:nsinit.obj
 0001:0000b17f       _AcpiNsInitOneObject       c000b57f f   AcpiSubsystem:nsinit.obj
 0001:0000c1bb       _AcpiNsExecModuleCode      c000c5bb f   AcpiSubsystem:nseval.obj
 0001:0000c727       _AcpiDbStartCommand        c000cb27 f   AcpiSubsystem:dbxface.obj
 0001:0000c818       _AcpiTbCleanupTableHeader  c000cc18 f   AcpiSubsystem:tbprint.obj
 0001:0000c857       _AcpiTbFixString           c000cc57 f   AcpiSubsystem:tbprint.obj
 0001:0000daaa       _AcpiTbCompareTables       c000deaa f   AcpiSubsystem:tbinstal.obj
 0001:0000df85       _AcpiTbConvertFadt         c000e385 f   AcpiSubsystem:tbfadt.obj
 0001:0000e1f6       _AcpiTbInitGenericAddress  c000e5f6 f   AcpiSubsystem:tbfadt.obj
 0001:0000e2ee       _AcpiTbSelectAddress       c000e6ee f   AcpiSubsystem:tbfadt.obj
 0001:0000e35c       _AcpiTbSetupFadtRegisters  c000e75c f   AcpiSubsystem:tbfadt.obj
 0001:0000eef8       _AcpiHwValidateIoRequest   c000f2f8 f   AcpiSubsystem:hwvalid.obj
 0001:0000f9fe       _AcpiEvNotifyDispatch      c000fdfe f   AcpiSubsystem:evmisc.obj
 0001:0000fccd       _AcpiUtDeleteInternalObj   c00100cd f   AcpiSubsystem:utdelete.obj
 0001:0001038d       _AcpiUtUpdateRefCount      c001078d f   AcpiSubsystem:utdelete.obj
 0001:00010969       _AcpiUtGetElementLength    c0010d69 f   AcpiSubsystem:utobject.obj
 0001:000109dd       _AcpiUtGetPackageObjectSize c0010ddd f   AcpiSubsystem:utobject.obj
 0001:00010a79       _AcpiUtGetSimpleObjectSize c0010e79 f   AcpiSubsystem:utobject.obj
 0001:00010de2       _AcpiHwReadMultiple        c00111e2 f   AcpiSubsystem:hwregs.obj
 0001:000111af       _AcpiHwWriteMultiple       c00115af f   AcpiSubsystem:hwregs.obj
 0001:00011411       _AcpiEvGlobalLockHandler   c0011811 f   AcpiSubsystem:evglock.obj
 0001:00011cc2       _AcpiEvSciXruptHandler     c00120c2 f   AcpiSubsystem:evsci.obj
 0001:0001200c       _AcpiEvIsPciRootBridge     c001240c f   AcpiSubsystem:evrgnini.obj
 0001:0001357f       _AcpiNsCopyDeviceId        c001397f f   AcpiSubsystem:nsxfname.obj
 0001:00013b5d       _AcpiNsGetDeviceCallback   c0013f5d f   AcpiSubsystem:nsxfeval.obj
 0001:00013c71       _AcpiNsResolveReferences   c0014071 f   AcpiSubsystem:nsxfeval.obj
 0001:000140e8       _AcpiExDigitsNeeded        c00144e8 f   AcpiSubsystem:exutils.obj
 0001:00014ae5       _AcpiDsExecuteArguments    c0014ee5 f   AcpiSubsystem:dsargs.obj
 0001:0001574f       _AcpiNsDumpOneObjectPath   c0015b4f f   AcpiSubsystem:nsdump.obj
 0001:0001583c       _AcpiNsGetMaxDepth         c0015c3c f   AcpiSubsystem:nsdump.obj
 0001:00015cd2       _AcpiNsSearchParentTree    c00160d2 f   AcpiSubsystem:nssearch.obj
 0001:000166ea       _AcpiPsStartTrace          c0016aea f   AcpiSubsystem:psxface.obj
 0001:00016756       _AcpiPsStopTrace           c0016b56 f   AcpiSubsystem:psxface.obj
 0001:000167b4       _AcpiPsUpdateParameterList c0016bb4 f   AcpiSubsystem:psxface.obj
 0001:00016ef5       _AcpiNsCheckReference      c00172f5 f   AcpiSubsystem:nspredef.obj
 0001:00016fd6       _AcpiNsGetBitmappedType    c00173d6 f   AcpiSubsystem:nspredef.obj
 0001:00017510       $LN95                      c0017910     AcpiSubsystem:dbinput.obj
 0001:0001760c       _AcpiDbDisplayCommandInfo  c0017a0c f   AcpiSubsystem:dbinput.obj
 0001:00017640       _AcpiDbDisplayHelp         c0017a40 f   AcpiSubsystem:dbinput.obj
 0001:000176c3       _AcpiDbGetLine             c0017ac3 f   AcpiSubsystem:dbinput.obj
 0001:00017837       _AcpiDbMatchCommand        c0017c37 f   AcpiSubsystem:dbinput.obj
 0001:00017884       _AcpiDbMatchCommandHelp    c0017c84 f   AcpiSubsystem:dbinput.obj
 0001:0001790d       _AcpiDbSingleThread        c0017d0d f   AcpiSubsystem:dbinput.obj
 0001:00017ca5       _AcpiDmAscendingOp         c00180a5 f   AcpiSubsystem:dmwalk.obj
 0001:00017ee9       _AcpiDmBlockType           c00182e9 f   AcpiSubsystem:dmwalk.obj
 0001:00017f8e       _AcpiDmDescendingOp        c001838e f   AcpiSubsystem:dmwalk.obj
 0001:000188d9       _AcpiHwEnableWakeupGpeBlock c0018cd9 f   AcpiSubsystem:hwgpe.obj
 0001:000189ac       _AcpiHwGpeEnableWrite      c0018dac f   AcpiSubsystem:hwgpe.obj
 0001:00019123       _AcpiExLinkMutex           c0019523 f   AcpiSubsystem:exmutex.obj
 0001:00019676       _AcpiEvCreateGpeInfoBlocks c0019a76 f   AcpiSubsystem:evgpeblk.obj
 0001:00019a2e       _AcpiEvInstallGpeBlock     c0019e2e f   AcpiSubsystem:evgpeblk.obj
 0001:00019b3e       _AcpiEvInstallGpeHandler   c0019f3e f   AcpiSubsystem:evxface.obj
 0001:0001abb5       _AcpiEvAsynchEnableGpe     c001afb5 f   AcpiSubsystem:evgpe.obj
 0001:0001abdd       _AcpiEvAsynchExecuteGpeMethod c001afdd f   AcpiSubsystem:evgpe.obj
 0001:0001b4ed       _AcpiHwBuildPciList        c001b8ed f   AcpiSubsystem:hwpci.obj
 0001:0001b559       _AcpiHwDeletePciList       c001b959 f   AcpiSubsystem:hwpci.obj
 0001:0001b5f4       _AcpiHwGetPciDeviceInfo    c001b9f4 f   AcpiSubsystem:hwpci.obj
 0001:0001b6da       _AcpiHwProcessPciList      c001bada f   AcpiSubsystem:hwpci.obj
 0001:0001bea3       $LN40                      c001c2a3     AcpiSubsystem:psargs.obj
 0001:0001bec3       $LN35                      c001c2c3     AcpiSubsystem:psargs.obj
 0001:0001bed5       _AcpiPsGetNextField        c001c2d5 f   AcpiSubsystem:psargs.obj
 0001:0001c47f       _AcpiPsGetNextPackageLength c001c87f f   AcpiSubsystem:psargs.obj
 0001:0001cd35       _AcpiUtCopyEpackageToIpackage c001d135 f   AcpiSubsystem:utcopy.obj
 0001:0001ce26       _AcpiUtCopyEsimpleToIsimple c001d226 f   AcpiSubsystem:utcopy.obj
 0001:0001cf9f       _AcpiUtCopyIelementToEelement c001d39f f   AcpiSubsystem:utcopy.obj
 0001:0001d01e       _AcpiUtCopyIelementToIelement c001d41e f   AcpiSubsystem:utcopy.obj
 0001:0001d1d7       _AcpiUtCopyIpackageToEpackage c001d5d7 f   AcpiSubsystem:utcopy.obj
 0001:0001d264       _AcpiUtCopyIpackageToIpackage c001d664 f   AcpiSubsystem:utcopy.obj
 0001:0001d315       _AcpiUtCopyIsimpleToEsimple c001d715 f   AcpiSubsystem:utcopy.obj
 0001:0001d49c       _AcpiUtCopySimpleObject    c001d89c f   AcpiSubsystem:utcopy.obj
 0001:0001df59       _AcpiDsResultStackPop      c001e359 f   AcpiSubsystem:dswstate.obj
 0001:0001e020       _AcpiDsResultStackPush     c001e420 f   AcpiSubsystem:dswstate.obj
 0001:0001ea32       _AcpiDsCreateMethodMutex   c001ee32 f   AcpiSubsystem:dsmethod.obj
 0001:0001eadd       _AcpiDsDetectNamedOpcodes  c001eedd f   AcpiSubsystem:dsmethod.obj
 0001:0001eee0       _AcpiExDumpObject          c001f2e0 f   AcpiSubsystem:exdump.obj
 0001:0001f238       $LN72                      c001f638     AcpiSubsystem:exdump.obj
 0001:0001f80f       $LN87                      c001fc0f     AcpiSubsystem:exdump.obj
 0001:0001f906       _AcpiExDumpPackageObj      c001fd06 f   AcpiSubsystem:exdump.obj
 0001:0001fa53       _AcpiExDumpReferenceObj    c001fe53 f   AcpiSubsystem:exdump.obj
 0001:0001fb0a       _AcpiExOutPointer          c001ff0a f   AcpiSubsystem:exdump.obj
 0001:0001fb20       _AcpiExOutString           c001ff20 f   AcpiSubsystem:exdump.obj
 0001:0001fb36       _AcpiExGetSerialAccessLength c001ff36 f   AcpiSubsystem:exfield.obj
 0001:000205d5       $LN70                      c00209d5     AcpiSubsystem:nsprepkg.obj
 0001:00020605       _AcpiNsCheckPackageElements c0020a05 f   AcpiSubsystem:nsprepkg.obj
 0001:00020681       _AcpiNsCheckPackageList    c0020a81 f   AcpiSubsystem:nsprepkg.obj
 0001:00020841       $LN59                      c0020c41     AcpiSubsystem:nsprepkg.obj
 0001:00020861       _AcpiNsMatchSimpleRepair   c0020c61 f   AcpiSubsystem:nsrepair.obj
 0001:00020c8a       _AcpiNsRepair_ALR          c002108a f   AcpiSubsystem:nsrepair2.obj
 0001:00020caa       _AcpiNsRepair_CID          c00210aa f   AcpiSubsystem:nsrepair2.obj
 0001:00020d1a       _AcpiNsRepair_CST          c002111a f   AcpiSubsystem:nsrepair2.obj
 0001:00020dbb       _AcpiNsRepair_FDE          c00211bb f   AcpiSubsystem:nsrepair2.obj
 0001:00020e8a       _AcpiNsRepair_HID          c002128a f   AcpiSubsystem:nsrepair2.obj
 0001:00020f6c       _AcpiNsRepair_PRT          c002136c f   AcpiSubsystem:nsrepair2.obj
 0001:00020fda       _AcpiNsRepair_PSS          c00213da f   AcpiSubsystem:nsrepair2.obj
 0001:0002105c       _AcpiNsRepair_TSS          c002145c f   AcpiSubsystem:nsrepair2.obj
 0001:0002109e       _AcpiNsCheckSortedList     c002149e f   AcpiSubsystem:nsrepair2.obj
 0001:000211cc       _AcpiNsMatchComplexRepair  c00215cc f   AcpiSubsystem:nsrepair2.obj
 0001:000211f4       _AcpiNsRemoveElement       c00215f4 f   AcpiSubsystem:nsrepair2.obj
 0001:0002124f       _AcpiNsSortList            c002164f f   AcpiSubsystem:nsrepair2.obj
 0001:0002135f       _AcpiDbDeviceResources     c002175f f   AcpiSubsystem:dbcmds.obj
 0001:000219f8       _AcpiDbDoOneSleepState     c0021df8 f   AcpiSubsystem:dbcmds.obj
 0001:00021b5f       _AcpiDbResourceCallback    c0021f5f f   AcpiSubsystem:dbcmds.obj
 0001:00021c8f       _AcpiDmCompareAmlResources c002208f f   AcpiSubsystem:dbcmds.obj
 0001:00021dc9       _AcpiDmTestResourceConversion c00221c9 f   AcpiSubsystem:dbcmds.obj
 0001:000226c2       _AcpiDbDisplayNonRootHandlers c0022ac2 f   AcpiSubsystem:dbdisply.obj
 0001:00022969       _AcpiDbDumpParserDescriptor c0022d69 f   AcpiSubsystem:dbdisply.obj
 0001:000229e0       _AcpiDbGetPointer          c0022de0 f   AcpiSubsystem:dbdisply.obj
 0001:000229f1       _AcpiDbEvaluateAllPredefinedNames c0022df1 f   AcpiSubsystem:dbtest.obj
 0001:00022a3f       _AcpiDbEvaluateOnePredefinedName c0022e3f f   AcpiSubsystem:dbtest.obj
 0001:00022c19       _AcpiDbReadFromObject      c0023019 f   AcpiSubsystem:dbtest.obj
 0001:00022ce9       _AcpiDbTestAllObjects      c00230e9 f   AcpiSubsystem:dbtest.obj
 0001:00022d96       _AcpiDbTestBufferType      c0023196 f   AcpiSubsystem:dbtest.obj
 0001:00022f7a       _AcpiDbTestIntegerType     c002337a f   AcpiSubsystem:dbtest.obj
 0001:00023123       _AcpiDbTestOneObject       c0023523 f   AcpiSubsystem:dbtest.obj
 0001:00023280       _AcpiDbTestStringType      c0023680 f   AcpiSubsystem:dbtest.obj
 0001:000233d7       _AcpiDbWriteToObject       c00237d7 f   AcpiSubsystem:dbtest.obj
 0001:0002374f       _AcpiDbBusWalk             c0023b4f f   AcpiSubsystem:dbnames.obj
 0001:00023ba1       _AcpiDbIntegrityWalk       c0023fa1 f   AcpiSubsystem:dbnames.obj
 0001:00023d0c       _AcpiDbWalkAndMatchName    c002410c f   AcpiSubsystem:dbnames.obj
 0001:00023d8d       _AcpiDbWalkForPredefinedNames c002418d f   AcpiSubsystem:dbnames.obj
 0001:00023e38       _AcpiDbWalkForReferences   c0024238 f   AcpiSubsystem:dbnames.obj
 0001:00023e7d       _AcpiDbWalkForSpecificObjects c002427d f   AcpiSubsystem:dbnames.obj
 0001:00024347       _AcpiDbExecuteMethod       c0024747 f   AcpiSubsystem:dbexec.obj
 0001:000244c4       _AcpiDbExecuteSetup        c00248c4 f   AcpiSubsystem:dbexec.obj
 0001:0002455f       _AcpiDbExecutionWalk       c002495f f   AcpiSubsystem:dbexec.obj
 0001:000245d7       _AcpiDbGetOutstandingAllocations c00249d7 f   AcpiSubsystem:dbexec.obj
 0001:000245da       _AcpiDbMethodThread        c00249da f   AcpiSubsystem:dbexec.obj
 0001:0002493b       _AcpiDbClassifyOneObject   c0024d3b f   AcpiSubsystem:dbstats.obj
 0001:00024972       _AcpiDbCountNamespaceObjects c0024d72 f   AcpiSubsystem:dbstats.obj
 0001:00024db5       _AcpiDbEnumerateObject     c00251b5 f   AcpiSubsystem:dbstats.obj
 0001:00024e60       _AcpiDbListInfo            c0025260 f   AcpiSubsystem:dbstats.obj
 0001:00024f82       _AcpiDmDecodeNode          c0025382 f   AcpiSubsystem:dmobject.obj
 0001:00025ad4       _AcpiDmMatchKeyword        c0025ed4 f   AcpiSubsystem:dmopcode.obj
 0001:00025f61       _AcpiDmFindNameByIndex     c0026361 f   AcpiSubsystem:dmbuffer.obj
 0001:00025f8d       _AcpiDmGetHardwareIdType   c002638d f   AcpiSubsystem:dmbuffer.obj
 0001:00026130       _AcpiDmPldBuffer           c0026530 f   AcpiSubsystem:dmbuffer.obj
 0001:0002642d       _AcpiDmUnicode             c002682d f   AcpiSubsystem:dmbuffer.obj
 0001:00026496       _AcpiDmUuid                c0026896 f   AcpiSubsystem:dmbuffer.obj
 0001:000268e4       $LN76                      c0026ce4     AcpiSubsystem:dmcstyle.obj
 0001:00026934       $LN64                      c0026d34     AcpiSubsystem:dmcstyle.obj
 0001:0002695c       $LN77                      c0026d5c     AcpiSubsystem:dmcstyle.obj
 0001:00026970       $LN65                      c0026d70     AcpiSubsystem:dmcstyle.obj
 0001:00026988       $LN78                      c0026d88     AcpiSubsystem:dmcstyle.obj
 0001:00026994       $LN66                      c0026d94     AcpiSubsystem:dmcstyle.obj
 0001:000269a8       $LN79                      c0026da8     AcpiSubsystem:dmcstyle.obj
 0001:000269b0       $LN67                      c0026db0     AcpiSubsystem:dmcstyle.obj
 0001:00026a28       $LN14                      c0026e28     AcpiSubsystem:dmcstyle.obj
 0001:00026a34       $LN11                      c0026e34     AcpiSubsystem:dmcstyle.obj
 0001:00026a5a       _AcpiDmGetCompoundSymbol   c0026e5a f   AcpiSubsystem:dmcstyle.obj
 0001:00026acd       _AcpiDmIsTargetAnOperand   c0026ecd f   AcpiSubsystem:dmcstyle.obj
 0001:00026b3f       _AcpiDmIsValidTarget       c0026f3f f   AcpiSubsystem:dmcstyle.obj
 0001:00026b5a       _AcpiDmPromoteTarget       c0026f5a f   AcpiSubsystem:dmcstyle.obj
 0001:00026ca7       _AcpiPsGetArguments        c00270a7 f   AcpiSubsystem:psloop.obj
 0001:00026f09       _AcpiPsLinkModuleCode      c0027309 f   AcpiSubsystem:psloop.obj
 0001:0002877f       _AcpiDsMethodDataDeleteValue c0028b7f f   AcpiSubsystem:dsmthdat.obj
 0001:00028c06       _AcpiDsMethodDataSetValue  c0029006 f   AcpiSubsystem:dsmthdat.obj
 0001:0002939a       _AcpiExFieldDatumIo        c002979a f   AcpiSubsystem:exfldio.obj
 0001:000299dc       _AcpiExRegisterOverflow    c0029ddc f   AcpiSubsystem:exfldio.obj
 0001:00029a35       _AcpiExSetupRegion         c0029e35 f   AcpiSubsystem:exfldio.obj
 0001:0002a2a1       _AcpiTbLoadNamespace       c002a6a1 f   AcpiSubsystem:tbxfload.obj
 0001:0002a871       _AcpiRsMatchVendorResource c002ac71 f   AcpiSubsystem:rsxface.obj
 0001:0002a8e2       _AcpiRsValidateParameters  c002ace2 f   AcpiSubsystem:rsxface.obj
 0001:0002ae81       _AcpiHwSetFirmwareWakingVector c002b281 f   AcpiSubsystem:hwxfsleep.obj
 0001:0002aee4       _AcpiHwSleepDispatch       c002b2e4 f   AcpiSubsystem:hwxfsleep.obj
 0001:0002bafe       _AcpiRsDumpAddressCommon   c002befe f   AcpiSubsystem:rsdump.obj
 0001:0002bb59       _AcpiRsDumpByteList        c002bf59 f   AcpiSubsystem:rsdump.obj
 0001:0002bb94       _AcpiRsDumpDescriptor      c002bf94 f   AcpiSubsystem:rsdump.obj
 0001:0002bcec       $LN46                      c002c0ec     AcpiSubsystem:rsdump.obj
 0001:0002bd30       _AcpiRsDumpDwordList       c002c130 f   AcpiSubsystem:rsdump.obj
 0001:0002be41       _AcpiRsDumpResourceSource  c002c241 f   AcpiSubsystem:rsdump.obj
 0001:0002be79       _AcpiRsDumpShortByteList   c002c279 f   AcpiSubsystem:rsdump.obj
 0001:0002beac       _AcpiRsDumpWordList        c002c2ac f   AcpiSubsystem:rsdump.obj
 0001:0002bee6       _AcpiRsOutInteger16        c002c2e6 f   AcpiSubsystem:rsdump.obj
 0001:0002bf00       _AcpiRsOutInteger32        c002c300 f   AcpiSubsystem:rsdump.obj
 0001:0002bf16       _AcpiRsOutInteger64        c002c316 f   AcpiSubsystem:rsdump.obj
 0001:0002bf30       _AcpiRsOutInteger8         c002c330 f   AcpiSubsystem:rsdump.obj
 0001:0002bf4a       _AcpiRsOutString           c002c34a f   AcpiSubsystem:rsdump.obj
 0001:0002bf7e       _AcpiRsOutTitle            c002c37e f   AcpiSubsystem:rsdump.obj
 0001:0002bf8f       _AcpiDmDeferredParse       c002c38f f   AcpiSubsystem:dmdeferred.obj
 0001:0002c1c4       _AcpiDbConvertToBuffer     c002c5c4 f   AcpiSubsystem:dbconvert.obj
 0001:0002c730       _AcpiDbHexByteToBinary     c002cb30 f   AcpiSubsystem:dbconvert.obj
 0001:0002d38d       _AcpiPsGetAmlOpcode        c002d78d f   AcpiSubsystem:psobject.obj
 0001:0002e041       _AcpiDsBuildInternalObject c002e441 f   AcpiSubsystem:dsobject.obj
 0001:0002eab4       _AcpiExResolveObjectToValue c002eeb4 f   AcpiSubsystem:exresolv.obj
 0001:0002ee5e       _AcpiExAllocateNameString  c002f25e f   AcpiSubsystem:exnames.obj
 0001:0002f231       _AcpiExNameSegment         c002f631 f   AcpiSubsystem:exnames.obj
 0001:0002f8df       _AcpiDsGetFieldNames       c002fcdf f   AcpiSubsystem:dsfield.obj
 0001:00030dfa       _AcpiExStoreDirectToNode   c00311fa f   AcpiSubsystem:exstore.obj
 0001:00030ed6       _AcpiExStoreObjectToIndex  c00312d6 f   AcpiSubsystem:exstore.obj
 0001:00031287       _AcpiExConvertToAscii      c0031687 f   AcpiSubsystem:exconvrt.obj
 0001:000320d6       _AcpiRsStrcpy              c00324d6 f   AcpiSubsystem:rsutils.obj
 0001:00032788       _AcpiRsCountSetBits        c0032b88 f   AcpiSubsystem:rscalc.obj
 0001:00032cc6       _AcpiRsStreamOptionLength  c00330c6 f   AcpiSubsystem:rscalc.obj
 0001:00032ce7       _AcpiRsStructOptionLength  c00330e7 f   AcpiSubsystem:rscalc.obj
 0001:00033066       _AcpiDmAddressCommon       c0033466 f   AcpiSubsystem:dmresrcl.obj
 0001:00033122       _AcpiDmAddressFields       c0033522 f   AcpiSubsystem:dmresrcl.obj
 0001:000331b4       _AcpiDmAddressFlags        c00335b4 f   AcpiSubsystem:dmresrcl.obj
 0001:000331dc       _AcpiDmAddressPrefix       c00335dc f   AcpiSubsystem:dmresrcl.obj
 0001:000334bb       _AcpiDmIoFlags             c00338bb f   AcpiSubsystem:dmresrcl.obj
 0001:00033505       _AcpiDmIoFlags2            c0033905 f   AcpiSubsystem:dmresrcl.obj
 0001:000335ed       _AcpiDmMemoryFields        c00339ed f   AcpiSubsystem:dmresrcl.obj
 0001:0003364e       _AcpiDmMemoryFlags         c0033a4e f   AcpiSubsystem:dmresrcl.obj
 0001:000336b8       _AcpiDmMemoryFlags2        c0033ab8 f   AcpiSubsystem:dmresrcl.obj
 0001:00033738       _AcpiDmResourceSource      c0033b38 f   AcpiSubsystem:dmresrcl.obj
 0001:000337a0       _AcpiDmSpaceFlags          c0033ba0 f   AcpiSubsystem:dmresrcl.obj
 0001:000338b8       _AcpiDmI2cSerialBusDescriptor c0033cb8 f   AcpiSubsystem:dmresrcl2.obj
 0001:00033997       _AcpiDmSpiSerialBusDescriptor c0033d97 f   AcpiSubsystem:dmresrcl2.obj
 0001:00033ab3       _AcpiDmUartSerialBusDescriptor c0033eb3 f   AcpiSubsystem:dmresrcl2.obj
 0001:00033bdb       _AcpiDmDumpRawDataBuffer   c0033fdb f   AcpiSubsystem:dmresrcl2.obj
 0001:00033cba       _AcpiDmDumpSerialBusVendorData c00340ba f   AcpiSubsystem:dmresrcl2.obj
 0001:00033cfc       _AcpiDmGpioCommon          c00340fc f   AcpiSubsystem:dmresrcl2.obj
 0001:00033ea5       _AcpiDmGpioIntDescriptor   c00342a5 f   AcpiSubsystem:dmresrcl2.obj
 0001:00033f32       _AcpiDmGpioIoDescriptor    c0034332 f   AcpiSubsystem:dmresrcl2.obj
 0001:000358df       _AcpiExDoMatch             c0035cdf f   AcpiSubsystem:exoparg6.obj
 0001:00036661       _AcpiDsInitBufferField     c0036a61 f   AcpiSubsystem:dsopcode.obj
 0001:00036854       _AcpiExCheckObjectType     c0036c54 f   AcpiSubsystem:exresop.obj
 0001:000370a3       _AcpiExDecodeFieldAccess   c00374a3 f   AcpiSubsystem:exprep.obj
 0001:00037eca       _AcpiDsInitOneObject       c00382ca f   AcpiSubsystem:dsinit.obj
 0001:000385cd       $LN81                      c00389cd     AcpiSubsystem:rsmisc.obj
 0001:00038971       $LN67                      c0038d71     AcpiSubsystem:rsmisc.obj
 0001:0003921f       _AcpiExAddTable            c003961f f   AcpiSubsystem:exconfig.obj
 0001:00039954       _AcpiExRegionRead          c0039d54 f   AcpiSubsystem:exconfig.obj
 0001:00039ea0       $$000000                   c003a2a0     crtbase:llmul.obj
 0001:00039ee0       $$000000                   c003a2e0     crtbase:ullshr.obj
 0001:00039f00       $$000000                   c003a300     crtbase:llshl.obj
 0001:00039f20       $$000000                   c003a320     crtbase:ftol3.obj
 0001:0003a2f0       $$000000                   c003a6f0     crtbase:lldiv.obj
 0001:0003a3a0       ??__FVMemMngr@@YAXXZ       c003a7a0 f   * CIL library *:* CIL module *
 0001:0003a3b0       ??__FDefaultPMemMngr@@YAXXZ c003a7b0 f   * CIL library *:* CIL module *
 0001:0003a3d0       ??__FVMemMngr@@YAXXZ       c003a7d0 f   * CIL library *:* CIL module *
 0001:0003a3f0       ??__Fthegraphics@@YAXXZ    c003a7f0 f   * CIL library *:* CIL module *
 0001:0003a400       ??__Foutput_spinlock_test@@YAXXZ c003a800 f   * CIL library *:* CIL module *
 0001:0003a410       ??__Flalloc_lock@@YAXXZ    c003a810 f   * CIL library *:* CIL module *
 0001:0003a420       ??__FdefMemoryManager@@YAXXZ c003a820 f   * CIL library *:* CIL module *
 0001:0003a430       ??__FMBPmemMngr@@YAXXZ     c003a830 f   * CIL library *:* CIL module *
 0001:0003a440       ??__Ftheterm@@YAXXZ        c003a840 f   * CIL library *:* CIL module *
 0002:00000034       _VMemMngr$initializer$     c003aa34     * CIL library *:* CIL module *
 0002:00000038       _DefaultPMemMngr$initializer$ c003aa38     * CIL library *:* CIL module *
 0002:0000003c       _VMemMngr$initializer$     c003aa3c     * CIL library *:* CIL module *
 0002:00000040       _thegraphics$initializer$  c003aa40     * CIL library *:* CIL module *
 0002:00000044       _output_spinlock_test$initializer$ c003aa44     * CIL library *:* CIL module *
 0002:00000048       _lalloc_lock$initializer$  c003aa48     * CIL library *:* CIL module *
 0002:0000004c       _defMemoryManager$initializer$ c003aa4c     * CIL library *:* CIL module *
 0002:00000050       _MBPmemMngr$initializer$   c003aa50     * CIL library *:* CIL module *
 0002:00000054       _theterm$initializer$      c003aa54     * CIL library *:* CIL module *
 0002:000000a8       __AcpiModuleName           c003aaa8     AcpiSubsystem:tbxface.obj
 0002:000000b0       ?_AcpiFunctionName@?1??AcpiInitializeTables@@9@9 c003aab0     AcpiSubsystem:tbxface.obj
 0002:000000c8       ?_AcpiFunctionName@?1??AcpiReallocateRootTable@@9@9 c003aac8     AcpiSubsystem:tbxface.obj
 0002:000000e0       ?_AcpiFunctionName@?1??AcpiGetTableByIndex@@9@9 c003aae0     AcpiSubsystem:tbxface.obj
 0002:000000f4       ?_AcpiFunctionName@?1??AcpiInstallTableHandler@@9@9 c003aaf4     AcpiSubsystem:tbxface.obj
 0002:0000010c       ?_AcpiFunctionName@?1??AcpiRemoveTableHandler@@9@9 c003ab0c     AcpiSubsystem:tbxface.obj
 0002:00000124       __AcpiModuleName           c003ab24     AcpiSubsystem:utxfinit.obj
 0002:00000130       ?_AcpiFunctionName@?1??AcpiInitializeSubsystem@@9@9 c003ab30     AcpiSubsystem:utxfinit.obj
 0002:00000148       ?_AcpiFunctionName@?1??AcpiEnableSubsystem@@9@9 c003ab48     AcpiSubsystem:utxfinit.obj
 0002:0000015c       ?_AcpiFunctionName@?1??AcpiInitializeObjects@@9@9 c003ab5c     AcpiSubsystem:utxfinit.obj
 0002:0000038c       __AcpiModuleName           c003ad8c     AcpiSubsystem:tbxfroot.obj
 0002:00000398       ?_AcpiFunctionName@?1??AcpiFindRootPointer@@9@9 c003ad98     AcpiSubsystem:tbxfroot.obj
 0002:000003ac       ?_AcpiFunctionName@?1??AcpiTbScanMemoryForRsdp@@9@9 c003adac     AcpiSubsystem:tbxfroot.obj
 0002:0000047c       __AcpiModuleName           c003ae7c     AcpiSubsystem:utdebug.obj
 0002:00000534       __AcpiModuleName           c003af34     AcpiSubsystem:utmutex.obj
 0002:0000053c       ?_AcpiFunctionName@?1??AcpiUtMutexInitialize@@9@9 c003af3c     AcpiSubsystem:utmutex.obj
 0002:00000550       ?_AcpiFunctionName@?1??AcpiUtMutexTerminate@@9@9 c003af50     AcpiSubsystem:utmutex.obj
 0002:00000564       ?_AcpiFunctionName@?1??AcpiUtCreateMutex@@9@9 c003af64     AcpiSubsystem:utmutex.obj
 0002:00000574       ?_AcpiFunctionName@?1??AcpiUtDeleteMutex@@9@9 c003af74     AcpiSubsystem:utmutex.obj
 0002:00000584       ?_AcpiFunctionName@?1??AcpiUtAcquireMutex@@9@9 c003af84     AcpiSubsystem:utmutex.obj
 0002:00000594       ?_AcpiFunctionName@?1??AcpiUtReleaseMutex@@9@9 c003af94     AcpiSubsystem:utmutex.obj
 0002:00000774       __AcpiModuleName           c003b174     AcpiSubsystem:utclib.obj
 0002:0000077c       ?_AcpiFunctionName@?1??AcpiTbTerminate@@9@9 c003b17c     AcpiSubsystem:tbdata.obj
 0002:00000788       ?_AcpiFunctionName@?1??AcpiTbDeleteNamespaceByOwner@@9@9 c003b188     AcpiSubsystem:tbdata.obj
 0002:000007a4       ?_AcpiFunctionName@?1??AcpiTbAllocateOwnerId@@9@9 c003b1a4     AcpiSubsystem:tbdata.obj
 0002:000007b8       ?_AcpiFunctionName@?1??AcpiTbReleaseOwnerId@@9@9 c003b1b8     AcpiSubsystem:tbdata.obj
 0002:000007cc       ?_AcpiFunctionName@?1??AcpiTbGetOwnerId@@9@9 c003b1cc     AcpiSubsystem:tbdata.obj
 0002:000007dc       __AcpiModuleName           c003b1dc     AcpiSubsystem:tbdata.obj
 0002:000007e4       ?_AcpiFunctionName@?1??AcpiTbValidateTable@@9@9 c003b1e4     AcpiSubsystem:tbdata.obj
 0002:000007f4       ?_AcpiFunctionName@?1??AcpiTbInvalidateTable@@9@9 c003b1f4     AcpiSubsystem:tbdata.obj
 0002:00000808       ?_AcpiFunctionName@?1??AcpiTbVerifyTempTable@@9@9 c003b208     AcpiSubsystem:tbdata.obj
 0002:0000081c       ?_AcpiFunctionName@?1??AcpiTbResizeRootTableList@@9@9 c003b21c     AcpiSubsystem:tbdata.obj
 0002:00000910       __AcpiModuleName           c003b310     AcpiSubsystem:tbutils.obj
 0002:00000918       ?_AcpiFunctionName@?1??AcpiTbParseRootTable@@9@9 c003b318     AcpiSubsystem:tbutils.obj
 0002:00000aac       __AcpiModuleName           c003b4ac     AcpiSubsystem:utglobal.obj
 0002:00000b90       __AcpiModuleName           c003b590     AcpiSubsystem:evxfevnt.obj
 0002:00000b9c       ?_AcpiFunctionName@?1??AcpiEnable@@9@9 c003b59c     AcpiSubsystem:evxfevnt.obj
 0002:00000ba8       ?_AcpiFunctionName@?1??AcpiDisable@@9@9 c003b5a8     AcpiSubsystem:evxfevnt.obj
 0002:00000bb4       ?_AcpiFunctionName@?1??AcpiEnableEvent@@9@9 c003b5b4     AcpiSubsystem:evxfevnt.obj
 0002:00000bc4       ?_AcpiFunctionName@?1??AcpiDisableEvent@@9@9 c003b5c4     AcpiSubsystem:evxfevnt.obj
 0002:00000bd8       ?_AcpiFunctionName@?1??AcpiClearEvent@@9@9 c003b5d8     AcpiSubsystem:evxfevnt.obj
 0002:00000be8       ?_AcpiFunctionName@?1??AcpiGetEventStatus@@9@9 c003b5e8     AcpiSubsystem:evxfevnt.obj
 0002:00000d08       __AcpiModuleName           c003b708     AcpiSubsystem:utxface.obj
 0002:00000d10       ?_AcpiFunctionName@?1??AcpiTerminate@@9@9 c003b710     AcpiSubsystem:utxface.obj
 0002:00000d20       ?_AcpiFunctionName@?1??AcpiGetSystemInfo@@9@9 c003b720     AcpiSubsystem:utxface.obj
 0002:00000d34       ?_AcpiFunctionName@?1??AcpiGetStatistics@@9@9 c003b734     AcpiSubsystem:utxface.obj
 0002:00000d48       ?_AcpiFunctionName@?1??AcpiPurgeCachedObjects@@9@9 c003b748     AcpiSubsystem:utxface.obj
 0002:00000da8       __AcpiModuleName           c003b7a8     AcpiSubsystem:utxferror.obj
 0002:00000e4c       __AcpiModuleName           c003b84c     AcpiSubsystem:hwacpi.obj
 0002:00000e54       ?_AcpiFunctionName@?1??AcpiHwSetMode@@9@9 c003b854     AcpiSubsystem:hwacpi.obj
 0002:00000e60       ?_AcpiFunctionName@?1??AcpiHwGetMode@@9@9 c003b860     AcpiSubsystem:hwacpi.obj
 0002:00000f98       __AcpiModuleName           c003b998     AcpiSubsystem:utinit.obj
 0002:00000fa0       ?_AcpiFunctionName@?1??AcpiUtInitGlobals@@9@9 c003b9a0     AcpiSubsystem:utinit.obj
 0002:00000fb0       ?_AcpiFunctionName@?1??AcpiUtTerminate@@9@9 c003b9b0     AcpiSubsystem:utinit.obj
 0002:00000fbc       ?_AcpiFunctionName@?1??AcpiUtSubsystemShutdown@@9@9 c003b9bc     AcpiSubsystem:utinit.obj
 0002:00000fd0       __AcpiModuleName           c003b9d0     AcpiSubsystem:utosi.obj
 0002:00000fd8       ?_AcpiFunctionName@?1??AcpiUtOsiImplementation@@9@9 c003b9d8     AcpiSubsystem:utosi.obj
 0002:0000119c       __AcpiModuleName           c003bb9c     AcpiSubsystem:evevent.obj
 0002:000011a4       ?_AcpiFunctionName@?1??AcpiEvInitializeEvents@@9@9 c003bba4     AcpiSubsystem:evevent.obj
 0002:000011b8       ?_AcpiFunctionName@?1??AcpiEvInstallXruptHandlers@@9@9 c003bbb8     AcpiSubsystem:evevent.obj
 0002:000011d0       ?_AcpiFunctionName@?1??AcpiEvFixedEventDetect@@9@9 c003bbd0     AcpiSubsystem:evevent.obj
 0002:000012fc       __AcpiModuleName           c003bcfc     AcpiSubsystem:evhandler.obj
 0002:00001308       ?_AcpiFunctionName@?1??AcpiEvInstallRegionHandlers@@9@9 c003bd08     AcpiSubsystem:evhandler.obj
 0002:00001320       ?_AcpiFunctionName@?1??AcpiEvInstallHandler@@9@9 c003bd20     AcpiSubsystem:evhandler.obj
 0002:00001334       ?_AcpiFunctionName@?1??AcpiEvInstallSpaceHandler@@9@9 c003bd34     AcpiSubsystem:evhandler.obj
 0002:00001408       __AcpiModuleName           c003be08     AcpiSubsystem:evregion.obj
 0002:00001414       ?_AcpiFunctionName@?1??AcpiEvInitializeOpRegions@@9@9 c003be14     AcpiSubsystem:evregion.obj
 0002:0000142c       ?_AcpiFunctionName@?1??AcpiEvAddressSpaceDispatch@@9@9 c003be2c     AcpiSubsystem:evregion.obj
 0002:00001444       ?_AcpiFunctionName@?1??AcpiEvDetachRegion@@9@9 c003be44     AcpiSubsystem:evregion.obj
 0002:00001454       ?_AcpiFunctionName@?1??AcpiEvAttachRegion@@9@9 c003be54     AcpiSubsystem:evregion.obj
 0002:00001464       ?_AcpiFunctionName@?1??AcpiEvExecuteRegMethod@@9@9 c003be64     AcpiSubsystem:evregion.obj
 0002:00001478       ?_AcpiFunctionName@?1??AcpiEvExecuteRegMethods@@9@9 c003be78     AcpiSubsystem:evregion.obj
 0002:0000148c       ?_AcpiFunctionName@?1??AcpiEvOrphanEcRegMethod@@9@9 c003be8c     AcpiSubsystem:evregion.obj
 0002:00001668       __AcpiModuleName           c003c068     AcpiSubsystem:nsinit.obj
 0002:00001670       ?_AcpiFunctionName@?1??AcpiNsInitializeObjects@@9@9 c003c070     AcpiSubsystem:nsinit.obj
 0002:00001684       ?_AcpiFunctionName@?1??AcpiNsInitializeDevices@@9@9 c003c084     AcpiSubsystem:nsinit.obj
 0002:00001698       ?_AcpiFunctionName@?1??AcpiNsInitOneObject@@9@9 c003c098     AcpiSubsystem:nsinit.obj
 0002:000016a8       ?_AcpiFunctionName@?1??AcpiNsInitOneDevice@@9@9 c003c0a8     AcpiSubsystem:nsinit.obj
 0002:000018e8       __AcpiModuleName           c003c2e8     AcpiSubsystem:nsaccess.obj
 0002:000018f4       ?_AcpiFunctionName@?1??AcpiNsRootInitialize@@9@9 c003c2f4     AcpiSubsystem:nsaccess.obj
 0002:00001908       ?_AcpiFunctionName@?1??AcpiNsLookup@@9@9 c003c308     AcpiSubsystem:nsaccess.obj
 0002:00001c18       __AcpiModuleName           c003c618     AcpiSubsystem:nseval.obj
 0002:00001c20       ?_AcpiFunctionName@?1??AcpiNsEvaluate@@9@9 c003c620     AcpiSubsystem:nseval.obj
 0002:00001c2c       ?_AcpiFunctionName@?1??AcpiNsExecModuleCodeList@@9@9 c003c62c     AcpiSubsystem:nseval.obj
 0002:00001c44       ?_AcpiFunctionName@?1??AcpiNsExecModuleCode@@9@9 c003c644     AcpiSubsystem:nseval.obj
 0002:00001dcc       __AcpiModuleName           c003c7cc     AcpiSubsystem:dbxface.obj
 0002:00001dd4       ?_AcpiFunctionName@?1??AcpiDbInitialize@@9@9 c003c7d4     AcpiSubsystem:dbxface.obj
 0002:00001f40       __AcpiModuleName           c003c940     AcpiSubsystem:tbprint.obj
 0002:00002018       _AcpiGbl_ExceptionNames_Env c003ca18     AcpiSubsystem:utexcep.obj
 0002:00002090       _AcpiGbl_ExceptionNames_Pgm c003ca90     AcpiSubsystem:utexcep.obj
 0002:000020b8       _AcpiGbl_ExceptionNames_Tbl c003cab8     AcpiSubsystem:utexcep.obj
 0002:000020d0       _AcpiGbl_ExceptionNames_Aml c003cad0     AcpiSubsystem:utexcep.obj
 0002:00002158       _AcpiGbl_ExceptionNames_Ctrl c003cb58     AcpiSubsystem:utexcep.obj
 0002:00002190       __AcpiModuleName           c003cb90     AcpiSubsystem:utexcep.obj
 0002:000028dc       __AcpiModuleName           c003d2dc     AcpiSubsystem:utdecode.obj
 0002:000028e8       _AcpiGbl_BadType           c003d2e8     AcpiSubsystem:utdecode.obj
 0002:00003000       __AcpiModuleName           c003da00     AcpiSubsystem:utlock.obj
 0002:00003008       __AcpiModuleName           c003da08     AcpiSubsystem:utalloc.obj
 0002:00003058       __AcpiModuleName           c003da58     AcpiSubsystem:utownerid.obj
 0002:00003064       ?_AcpiFunctionName@?1??AcpiUtAllocateOwnerId@@9@9 c003da64     AcpiSubsystem:utownerid.obj
 0002:00003078       ?_AcpiFunctionName@?1??AcpiUtReleaseOwnerId@@9@9 c003da78     AcpiSubsystem:utownerid.obj
 0002:00003150       __AcpiModuleName           c003db50     AcpiSubsystem:utstring.obj
 0002:0000315c       ?_AcpiFunctionName@?1??AcpiUtStrtoul64@@9@9 c003db5c     AcpiSubsystem:utstring.obj
 0002:00003168       ?_AcpiFunctionName@?1??AcpiUtRepairName@@9@9 c003db68     AcpiSubsystem:utstring.obj
 0002:0000321c       __AcpiModuleName           c003dc1c     AcpiSubsystem:nsalloc.obj
 0002:00003224       ?_AcpiFunctionName@?1??AcpiNsCreateNode@@9@9 c003dc24     AcpiSubsystem:nsalloc.obj
 0002:00003234       ?_AcpiFunctionName@?1??AcpiNsDeleteNode@@9@9 c003dc34     AcpiSubsystem:nsalloc.obj
 0002:00003244       ?_AcpiFunctionName@?1??AcpiNsRemoveNode@@9@9 c003dc44     AcpiSubsystem:nsalloc.obj
 0002:00003254       ?_AcpiFunctionName@?1??AcpiNsInstallNode@@9@9 c003dc54     AcpiSubsystem:nsalloc.obj
 0002:00003264       ?_AcpiFunctionName@?1??AcpiNsDeleteChildren@@9@9 c003dc64     AcpiSubsystem:nsalloc.obj
 0002:00003278       ?_AcpiFunctionName@?1??AcpiNsDeleteNamespaceSubtree@@9@9 c003dc78     AcpiSubsystem:nsalloc.obj
 0002:00003294       ?_AcpiFunctionName@?1??AcpiNsDeleteNamespaceByOwner@@9@9 c003dc94     AcpiSubsystem:nsalloc.obj
 0002:00003328       __AcpiModuleName           c003dd28     AcpiSubsystem:tbinstal.obj
 0002:00003334       ?_AcpiFunctionName@?1??AcpiTbInstallFixedTable@@9@9 c003dd34     AcpiSubsystem:tbinstal.obj
 0002:00003348       ?_AcpiFunctionName@?1??AcpiTbInstallStandardTable@@9@9 c003dd48     AcpiSubsystem:tbinstal.obj
 0002:00003360       ?_AcpiFunctionName@?1??AcpiTbUninstallTable@@9@9 c003dd60     AcpiSubsystem:tbinstal.obj
 0002:000034a0       __AcpiModuleName           c003dea0     AcpiSubsystem:tbfadt.obj
 0002:000037a0       __AcpiModuleName           c003e1a0     AcpiSubsystem:hwxface.obj
 0002:000037a8       ?_AcpiFunctionName@?1??AcpiReset@@9@9 c003e1a8     AcpiSubsystem:hwxface.obj
 0002:000037b4       ?_AcpiFunctionName@?1??AcpiRead@@9@9 c003e1b4     AcpiSubsystem:hwxface.obj
 0002:000037c0       ?_AcpiFunctionName@?1??AcpiWrite@@9@9 c003e1c0     AcpiSubsystem:hwxface.obj
 0002:000037cc       ?_AcpiFunctionName@?1??AcpiReadBitRegister@@9@9 c003e1cc     AcpiSubsystem:hwxface.obj
 0002:000037e0       ?_AcpiFunctionName@?1??AcpiWriteBitRegister@@9@9 c003e1e0     AcpiSubsystem:hwxface.obj
 0002:000037f8       ?_AcpiFunctionName@?1??AcpiGetSleepTypeData@@9@9 c003e1f8     AcpiSubsystem:hwxface.obj
 0002:00003964       __AcpiModuleName           c003e364     AcpiSubsystem:utaddress.obj
 0002:00003970       ?_AcpiFunctionName@?1??AcpiUtAddAddressRange@@9@9 c003e370     AcpiSubsystem:utaddress.obj
 0002:00003984       ?_AcpiFunctionName@?1??AcpiUtRemoveAddressRange@@9@9 c003e384     AcpiSubsystem:utaddress.obj
 0002:0000399c       ?_AcpiFunctionName@?1??AcpiUtCheckAddressRange@@9@9 c003e39c     AcpiSubsystem:utaddress.obj
 0002:00003a88       __AcpiModuleName           c003e488     AcpiSubsystem:hwvalid.obj
 0002:00003a90       _AcpiProtectedPorts        c003e490     AcpiSubsystem:hwvalid.obj
 0002:00003b2c       ?_AcpiFunctionName@?1??AcpiHwValidateIoRequest@@9@9 c003e52c     AcpiSubsystem:hwvalid.obj
 0002:00003c88       ?_AcpiFunctionName@?1??AcpiNsBuildInternalName@@9@9 c003e688     AcpiSubsystem:nsutils.obj
 0002:00003c9c       ?_AcpiFunctionName@?1??AcpiNsInternalizeName@@9@9 c003e69c     AcpiSubsystem:nsutils.obj
 0002:00003cb0       ?_AcpiFunctionName@?1??AcpiNsExternalizeName@@9@9 c003e6b0     AcpiSubsystem:nsutils.obj
 0002:00003cc4       ?_AcpiFunctionName@?1??AcpiNsTerminate@@9@9 c003e6c4     AcpiSubsystem:nsutils.obj
 0002:00003cd0       ?_AcpiFunctionName@?1??AcpiNsGetNode@@9@9 c003e6d0     AcpiSubsystem:nsutils.obj
 0002:00003cdc       __AcpiModuleName           c003e6dc     AcpiSubsystem:nsutils.obj
 0002:00003ce4       ?_AcpiFunctionName@?1??AcpiNsGetType@@9@9 c003e6e4     AcpiSubsystem:nsutils.obj
 0002:00003cf0       ?_AcpiFunctionName@?1??AcpiNsLocal@@9@9 c003e6f0     AcpiSubsystem:nsutils.obj
 0002:00003db4       __AcpiModuleName           c003e7b4     AcpiSubsystem:evmisc.obj
 0002:00003dbc       ?_AcpiFunctionName@?1??AcpiEvQueueNotifyRequest@@9@9 c003e7bc     AcpiSubsystem:evmisc.obj
 0002:00003dd4       ?_AcpiFunctionName@?1??AcpiEvTerminate@@9@9 c003e7d4     AcpiSubsystem:evmisc.obj
 0002:00003edc       __AcpiModuleName           c003e8dc     AcpiSubsystem:utdelete.obj
 0002:00003ee8       ?_AcpiFunctionName@?1??AcpiUtDeleteInternalObj@@9@9 c003e8e8     AcpiSubsystem:utdelete.obj
 0002:00003efc       ?_AcpiFunctionName@?1??AcpiUtUpdateRefCount@@9@9 c003e8fc     AcpiSubsystem:utdelete.obj
 0002:00003f10       ?_AcpiFunctionName@?1??AcpiUtUpdateObjectReference@@9@9 c003e910     AcpiSubsystem:utdelete.obj
 0002:00003f28       ?_AcpiFunctionName@?1??AcpiUtAddReference@@9@9 c003e928     AcpiSubsystem:utdelete.obj
 0002:00003f38       ?_AcpiFunctionName@?1??AcpiUtRemoveReference@@9@9 c003e938     AcpiSubsystem:utdelete.obj
 0002:00004260       __AcpiModuleName           c003ec60     AcpiSubsystem:utobject.obj
 0002:0000426c       ?_AcpiFunctionName@?1??AcpiUtCreateInternalObjectDbg@@9@9 c003ec6c     AcpiSubsystem:utobject.obj
 0002:00004288       ?_AcpiFunctionName@?1??AcpiUtCreatePackageObject@@9@9 c003ec88     AcpiSubsystem:utobject.obj
 0002:000042a0       ?_AcpiFunctionName@?1??AcpiUtCreateIntegerObject@@9@9 c003eca0     AcpiSubsystem:utobject.obj
 0002:000042b8       ?_AcpiFunctionName@?1??AcpiUtCreateBufferObject@@9@9 c003ecb8     AcpiSubsystem:utobject.obj
 0002:000042d0       ?_AcpiFunctionName@?1??AcpiUtCreateStringObject@@9@9 c003ecd0     AcpiSubsystem:utobject.obj
 0002:000042e8       ?_AcpiFunctionName@?1??AcpiUtValidInternalObject@@9@9 c003ece8     AcpiSubsystem:utobject.obj
 0002:00004300       ?_AcpiFunctionName@?1??AcpiUtAllocateObjectDescDbg@@9@9 c003ed00     AcpiSubsystem:utobject.obj
 0002:00004318       ?_AcpiFunctionName@?1??AcpiUtDeleteObjectDesc@@9@9 c003ed18     AcpiSubsystem:utobject.obj
 0002:0000432c       ?_AcpiFunctionName@?1??AcpiUtGetSimpleObjectSize@@9@9 c003ed2c     AcpiSubsystem:utobject.obj
 0002:00004344       ?_AcpiFunctionName@?1??AcpiUtGetPackageObjectSize@@9@9 c003ed44     AcpiSubsystem:utobject.obj
 0002:000044b4       __AcpiModuleName           c003eeb4     AcpiSubsystem:hwregs.obj
 0002:000044bc       ?_AcpiFunctionName@?1??AcpiHwRead@@9@9 c003eebc     AcpiSubsystem:hwregs.obj
 0002:000044c4       ?_AcpiFunctionName@?1??AcpiHwWrite@@9@9 c003eec4     AcpiSubsystem:hwregs.obj
 0002:000044cc       ?_AcpiFunctionName@?1??AcpiHwClearAcpiStatus@@9@9 c003eecc     AcpiSubsystem:hwregs.obj
 0002:000044e0       ?_AcpiFunctionName@?1??AcpiHwWritePm1Control@@9@9 c003eee0     AcpiSubsystem:hwregs.obj
 0002:000044f4       ?_AcpiFunctionName@?1??AcpiHwRegisterRead@@9@9 c003eef4     AcpiSubsystem:hwregs.obj
 0002:00004504       ?_AcpiFunctionName@?1??AcpiHwRegisterWrite@@9@9 c003ef04     AcpiSubsystem:hwregs.obj
 0002:00004644       __AcpiModuleName           c003f044     AcpiSubsystem:evglock.obj
 0002:0000464c       ?_AcpiFunctionName@?1??AcpiEvInitGlobalLockHandler@@9@9 c003f04c     AcpiSubsystem:evglock.obj
 0002:00004664       ?_AcpiFunctionName@?1??AcpiEvRemoveGlobalLockHandler@@9@9 c003f064     AcpiSubsystem:evglock.obj
 0002:00004680       ?_AcpiFunctionName@?1??AcpiEvAcquireGlobalLock@@9@9 c003f080     AcpiSubsystem:evglock.obj
 0002:00004694       ?_AcpiFunctionName@?1??AcpiEvReleaseGlobalLock@@9@9 c003f094     AcpiSubsystem:evglock.obj
 0002:000047ac       __AcpiModuleName           c003f1ac     AcpiSubsystem:evgpeinit.obj
 0002:000047b8       ?_AcpiFunctionName@?1??AcpiEvGpeInitialize@@9@9 c003f1b8     AcpiSubsystem:evgpeinit.obj
 0002:000047c8       ?_AcpiFunctionName@?1??AcpiEvMatchGpeMethod@@9@9 c003f1c8     AcpiSubsystem:evgpeinit.obj
 0002:00004a08       __AcpiModuleName           c003f408     AcpiSubsystem:evsci.obj
 0002:00004a10       ?_AcpiFunctionName@?1??AcpiEvSciDispatch@@9@9 c003f410     AcpiSubsystem:evsci.obj
 0002:00004a20       ?_AcpiFunctionName@?1??AcpiEvSciXruptHandler@@9@9 c003f420     AcpiSubsystem:evsci.obj
 0002:00004a34       ?_AcpiFunctionName@?1??AcpiEvGpeXruptHandler@@9@9 c003f434     AcpiSubsystem:evsci.obj
 0002:00004a48       ?_AcpiFunctionName@?1??AcpiEvInstallSciHandler@@9@9 c003f448     AcpiSubsystem:evsci.obj
 0002:00004a5c       ?_AcpiFunctionName@?1??AcpiEvRemoveAllSciHandlers@@9@9 c003f45c     AcpiSubsystem:evsci.obj
 0002:00004a74       ?_AcpiFunctionName@?1??AcpiEvPciBarRegionSetup@@9@9 c003f474     AcpiSubsystem:evrgnini.obj
 0002:00004a88       ?_AcpiFunctionName@?1??AcpiEvCmosRegionSetup@@9@9 c003f488     AcpiSubsystem:evrgnini.obj
 0002:00004a9c       ?_AcpiFunctionName@?1??AcpiEvDefaultRegionSetup@@9@9 c003f49c     AcpiSubsystem:evrgnini.obj
 0002:00004ab4       ?_AcpiFunctionName@?1??AcpiEvInitializeRegion@@9@9 c003f4b4     AcpiSubsystem:evrgnini.obj
 0002:00004ac8       __AcpiModuleName           c003f4c8     AcpiSubsystem:evrgnini.obj
 0002:00004ad4       ?_AcpiFunctionName@?1??AcpiEvSystemMemoryRegionSetup@@9@9 c003f4d4     AcpiSubsystem:evrgnini.obj
 0002:00004af0       ?_AcpiFunctionName@?1??AcpiEvIoSpaceRegionSetup@@9@9 c003f4f0     AcpiSubsystem:evrgnini.obj
 0002:00004b08       ?_AcpiFunctionName@?1??AcpiEvPciConfigRegionSetup@@9@9 c003f508     AcpiSubsystem:evrgnini.obj
 0002:00004c08       __AcpiModuleName           c003f608     AcpiSubsystem:nswalk.obj
 0002:00004c10       ?_AcpiFunctionName@?1??AcpiNsWalkNamespace@@9@9 c003f610     AcpiSubsystem:nswalk.obj
 0002:00004c20       __AcpiModuleName           c003f620     AcpiSubsystem:nsobject.obj
 0002:00004c2c       ?_AcpiFunctionName@?1??AcpiNsAttachObject@@9@9 c003f62c     AcpiSubsystem:nsobject.obj
 0002:00004c3c       ?_AcpiFunctionName@?1??AcpiNsDetachObject@@9@9 c003f63c     AcpiSubsystem:nsobject.obj
 0002:00004c4c       ?_AcpiFunctionName@?1??AcpiNsGetAttachedObject@@9@9 c003f64c     AcpiSubsystem:nsobject.obj
 0002:00004c60       ?_AcpiFunctionName@?1??AcpiNsGetSecondaryObject@@9@9 c003f660     AcpiSubsystem:nsobject.obj
 0002:00004d48       ?_AcpiFunctionName@?1??AcpiExPciConfigSpaceHandler@@9@9 c003f748     AcpiSubsystem:exregion.obj
 0002:00004d60       ?_AcpiFunctionName@?1??AcpiExCmosSpaceHandler@@9@9 c003f760     AcpiSubsystem:exregion.obj
 0002:00004d74       ?_AcpiFunctionName@?1??AcpiExPciBarSpaceHandler@@9@9 c003f774     AcpiSubsystem:exregion.obj
 0002:00004d8c       ?_AcpiFunctionName@?1??AcpiExDataTableSpaceHandler@@9@9 c003f78c     AcpiSubsystem:exregion.obj
 0002:00004da4       __AcpiModuleName           c003f7a4     AcpiSubsystem:exregion.obj
 0002:00004db0       ?_AcpiFunctionName@?1??AcpiExSystemMemorySpaceHandler@@9@9 c003f7b0     AcpiSubsystem:exregion.obj
 0002:00004dcc       ?_AcpiFunctionName@?1??AcpiExSystemIoSpaceHandler@@9@9 c003f7cc     AcpiSubsystem:exregion.obj
 0002:00004ee0       __AcpiModuleName           c003f8e0     AcpiSubsystem:nsxfname.obj
 0002:00004ef0       __AcpiModuleName           c003f8f0     AcpiSubsystem:nsxfeval.obj
 0002:00004efc       ?_AcpiFunctionName@?1??AcpiEvaluateObjectTyped@@9@9 c003f8fc     AcpiSubsystem:nsxfeval.obj
 0002:00004f14       ?_AcpiFunctionName@?1??AcpiEvaluateObject@@9@9 c003f914     AcpiSubsystem:nsxfeval.obj
 0002:00004f28       ?_AcpiFunctionName@?1??AcpiWalkNamespace@@9@9 c003f928     AcpiSubsystem:nsxfeval.obj
 0002:00004f3c       ?_AcpiFunctionName@?1??AcpiGetDevices@@9@9 c003f93c     AcpiSubsystem:nsxfeval.obj
 0002:00004ff0       __AcpiModuleName           c003f9f0     AcpiSubsystem:utmisc.obj
 0002:00004ff8       ?_AcpiFunctionName@?1??AcpiUtWalkPackageTree@@9@9 c003f9f8     AcpiSubsystem:utmisc.obj
 0002:0000504c       __AcpiModuleName           c003fa4c     AcpiSubsystem:exutils.obj
 0002:00005054       ?_AcpiFunctionName@?1??AcpiExEnterInterpreter@@9@9 c003fa54     AcpiSubsystem:exutils.obj
 0002:00005068       ?_AcpiFunctionName@?1??AcpiExExitInterpreter@@9@9 c003fa68     AcpiSubsystem:exutils.obj
 0002:0000507c       ?_AcpiFunctionName@?1??AcpiExAcquireGlobalLock@@9@9 c003fa7c     AcpiSubsystem:exutils.obj
 0002:00005090       ?_AcpiFunctionName@?1??AcpiExReleaseGlobalLock@@9@9 c003fa90     AcpiSubsystem:exutils.obj
 0002:000050a4       ?_AcpiFunctionName@?1??AcpiExDigitsNeeded@@9@9 c003faa4     AcpiSubsystem:exutils.obj
 0002:0000518c       __AcpiModuleName           c003fb8c     AcpiSubsystem:uteval.obj
 0002:00005194       ?_AcpiFunctionName@?1??AcpiUtEvaluateObject@@9@9 c003fb94     AcpiSubsystem:uteval.obj
 0002:000051a8       ?_AcpiFunctionName@?1??AcpiUtEvaluateNumericObject@@9@9 c003fba8     AcpiSubsystem:uteval.obj
 0002:000051c0       ?_AcpiFunctionName@?1??AcpiUtExecute_STA@@9@9 c003fbc0     AcpiSubsystem:uteval.obj
 0002:000051d0       ?_AcpiFunctionName@?1??AcpiUtExecutePowerMethods@@9@9 c003fbd0     AcpiSubsystem:uteval.obj
 0002:000052f4       ?_AcpiFunctionName@?1??AcpiNsHandleToPathname@@9@9 c003fcf4     AcpiSubsystem:nsnames.obj
 0002:00005308       __AcpiModuleName           c003fd08     AcpiSubsystem:nsnames.obj
 0002:00005310       ?_AcpiFunctionName@?1??AcpiNsGetExternalPathname@@9@9 c003fd10     AcpiSubsystem:nsnames.obj
 0002:000053cc       __AcpiModuleName           c003fdcc     AcpiSubsystem:dsargs.obj
 0002:000053d4       ?_AcpiFunctionName@?1??AcpiDsExecuteArguments@@9@9 c003fdd4     AcpiSubsystem:dsargs.obj
 0002:000053e8       ?_AcpiFunctionName@?1??AcpiDsGetBufferFieldArguments@@9@9 c003fde8     AcpiSubsystem:dsargs.obj
 0002:00005404       ?_AcpiFunctionName@?1??AcpiDsGetBankFieldArguments@@9@9 c003fe04     AcpiSubsystem:dsargs.obj
 0002:0000541c       ?_AcpiFunctionName@?1??AcpiDsGetBufferArguments@@9@9 c003fe1c     AcpiSubsystem:dsargs.obj
 0002:00005434       ?_AcpiFunctionName@?1??AcpiDsGetPackageArguments@@9@9 c003fe34     AcpiSubsystem:dsargs.obj
 0002:0000544c       ?_AcpiFunctionName@?1??AcpiDsGetRegionArguments@@9@9 c003fe4c     AcpiSubsystem:dsargs.obj
 0002:00005558       __AcpiModuleName           c003ff58     AcpiSubsystem:nsdump.obj
 0002:00005560       ?_AcpiFunctionName@?1??AcpiNsPrintPathname@@9@9 c003ff60     AcpiSubsystem:nsdump.obj
 0002:00005570       ?_AcpiFunctionName@?1??AcpiNsDumpPathname@@9@9 c003ff70     AcpiSubsystem:nsdump.obj
 0002:00005580       ?_AcpiFunctionName@?1??AcpiNsDumpOneObject@@9@9 c003ff80     AcpiSubsystem:nsdump.obj
 0002:000058e8       __AcpiModuleName           c00402e8     AcpiSubsystem:nssearch.obj
 0002:000058f4       ?_AcpiFunctionName@?1??AcpiNsSearchOneScope@@9@9 c00402f4     AcpiSubsystem:nssearch.obj
 0002:00005908       ?_AcpiFunctionName@?1??AcpiNsSearchParentTree@@9@9 c0040308     AcpiSubsystem:nssearch.obj
 0002:0000591c       ?_AcpiFunctionName@?1??AcpiNsSearchAndEnter@@9@9 c004031c     AcpiSubsystem:nssearch.obj
 0002:00005ae4       __AcpiModuleName           c00404e4     AcpiSubsystem:dswscope.obj
 0002:00005af0       ?_AcpiFunctionName@?1??AcpiDsScopeStackClear@@9@9 c00404f0     AcpiSubsystem:dswscope.obj
 0002:00005b04       ?_AcpiFunctionName@?1??AcpiDsScopeStackPush@@9@9 c0040504     AcpiSubsystem:dswscope.obj
 0002:00005b18       ?_AcpiFunctionName@?1??AcpiDsScopeStackPop@@9@9 c0040518     AcpiSubsystem:dswscope.obj
 0002:00005c24       __AcpiModuleName           c0040624     AcpiSubsystem:utpredef.obj
 0002:00005c6c       __AcpiModuleName           c004066c     AcpiSubsystem:uterror.obj
 0002:00005d34       __AcpiModuleName           c0040734     AcpiSubsystem:psxface.obj
 0002:00005d3c       ?_AcpiFunctionName@?1??AcpiPsExecuteMethod@@9@9 c004073c     AcpiSubsystem:psxface.obj
 0002:00005da8       __AcpiModuleName           c00407a8     AcpiSubsystem:exresnte.obj
 0002:00005db4       ?_AcpiFunctionName@?1??AcpiExResolveNodeToValue@@9@9 c00407b4     AcpiSubsystem:exresnte.obj
 0002:00005f2c       __AcpiModuleName           c004092c     AcpiSubsystem:nsarguments.obj
 0002:00006a04       __AcpiModuleName           c0041404     AcpiSubsystem:nspredef.obj
 0002:00006b38       __AcpiModuleName           c0041538     AcpiSubsystem:dbinput.obj
 0002:00006b40       _AcpiGbl_DbCommands        c0041540     AcpiSubsystem:dbinput.obj
 0002:00006c88       _AcpiGbl_DbCommandHelp     c0041688     AcpiSubsystem:dbinput.obj
 0002:00008320       __AcpiModuleName           c0042d20     AcpiSubsystem:dbutils.obj
 0002:00008460       __AcpiModuleName           c0042e60     AcpiSubsystem:dmwalk.obj
 0002:000084c8       __AcpiModuleName           c0042ec8     AcpiSubsystem:utmath.obj
 0002:000084d0       ?_AcpiFunctionName@?1??AcpiUtShortDivide@@9@9 c0042ed0     AcpiSubsystem:utmath.obj
 0002:000084e0       ?_AcpiFunctionName@?1??AcpiUtDivide@@9@9 c0042ee0     AcpiSubsystem:utmath.obj
 0002:000084fc       __AcpiModuleName           c0042efc     AcpiSubsystem:hwgpe.obj
 0002:00008504       ?_AcpiFunctionName@?1??AcpiHwDisableAllGpes@@9@9 c0042f04     AcpiSubsystem:hwgpe.obj
 0002:00008518       ?_AcpiFunctionName@?1??AcpiHwEnableAllRuntimeGpes@@9@9 c0042f18     AcpiSubsystem:hwgpe.obj
 0002:00008530       ?_AcpiFunctionName@?1??AcpiHwEnableAllWakeupGpes@@9@9 c0042f30     AcpiSubsystem:hwgpe.obj
 0002:00008560       __AcpiModuleName           c0042f60     AcpiSubsystem:utstate.obj
 0002:00008590       __AcpiModuleName           c0042f90     AcpiSubsystem:evgpeutil.obj
 0002:0000859c       ?_AcpiFunctionName@?1??AcpiEvWalkGpeList@@9@9 c0042f9c     AcpiSubsystem:evgpeutil.obj
 0002:000085ac       ?_AcpiFunctionName@?1??AcpiEvGetGpeXruptBlock@@9@9 c0042fac     AcpiSubsystem:evgpeutil.obj
 0002:000085c0       ?_AcpiFunctionName@?1??AcpiEvDeleteGpeXrupt@@9@9 c0042fc0     AcpiSubsystem:evgpeutil.obj
 0002:000085d4       ?_AcpiFunctionName@?1??AcpiEvDeleteGpeHandlers@@9@9 c0042fd4     AcpiSubsystem:evgpeutil.obj
 0002:00008620       __AcpiModuleName           c0043020     AcpiSubsystem:exmutex.obj
 0002:00008628       ?_AcpiFunctionName@?1??AcpiExAcquireMutexObject@@9@9 c0043028     AcpiSubsystem:exmutex.obj
 0002:00008640       ?_AcpiFunctionName@?1??AcpiExAcquireMutex@@9@9 c0043040     AcpiSubsystem:exmutex.obj
 0002:00008650       ?_AcpiFunctionName@?1??AcpiExReleaseMutexObject@@9@9 c0043050     AcpiSubsystem:exmutex.obj
 0002:00008668       ?_AcpiFunctionName@?1??AcpiExReleaseMutex@@9@9 c0043068     AcpiSubsystem:exmutex.obj
 0002:00008678       ?_AcpiFunctionName@?1??AcpiExReleaseAllMutexes@@9@9 c0043078     AcpiSubsystem:exmutex.obj
 0002:00008808       ?_AcpiFunctionName@?1??AcpiEvCreateGpeBlock@@9@9 c0043208     AcpiSubsystem:evgpeblk.obj
 0002:0000881c       ?_AcpiFunctionName@?1??AcpiEvInitializeGpeBlock@@9@9 c004321c     AcpiSubsystem:evgpeblk.obj
 0002:00008834       __AcpiModuleName           c0043234     AcpiSubsystem:evgpeblk.obj
 0002:00008840       ?_AcpiFunctionName@?1??AcpiEvInstallGpeBlock@@9@9 c0043240     AcpiSubsystem:evgpeblk.obj
 0002:00008854       ?_AcpiFunctionName@?1??AcpiEvDeleteGpeBlock@@9@9 c0043254     AcpiSubsystem:evgpeblk.obj
 0002:00008868       ?_AcpiFunctionName@?1??AcpiEvCreateGpeInfoBlocks@@9@9 c0043268     AcpiSubsystem:evgpeblk.obj
 0002:00008974       __AcpiModuleName           c0043374     AcpiSubsystem:evxface.obj
 0002:0000897c       ?_AcpiFunctionName@?1??AcpiInstallNotifyHandler@@9@9 c004337c     AcpiSubsystem:evxface.obj
 0002:00008998       ?_AcpiFunctionName@?1??AcpiRemoveNotifyHandler@@9@9 c0043398     AcpiSubsystem:evxface.obj
 0002:000089b0       ?_AcpiFunctionName@?1??AcpiInstallExceptionHandler@@9@9 c00433b0     AcpiSubsystem:evxface.obj
 0002:000089cc       ?_AcpiFunctionName@?1??AcpiInstallSciHandler@@9@9 c00433cc     AcpiSubsystem:evxface.obj
 0002:000089e4       ?_AcpiFunctionName@?1??AcpiRemoveSciHandler@@9@9 c00433e4     AcpiSubsystem:evxface.obj
 0002:000089fc       ?_AcpiFunctionName@?1??AcpiInstallGlobalEventHandler@@9@9 c00433fc     AcpiSubsystem:evxface.obj
 0002:00008a1c       ?_AcpiFunctionName@?1??AcpiInstallFixedEventHandler@@9@9 c004341c     AcpiSubsystem:evxface.obj
 0002:00008a3c       ?_AcpiFunctionName@?1??AcpiRemoveFixedEventHandler@@9@9 c004343c     AcpiSubsystem:evxface.obj
 0002:00008a58       ?_AcpiFunctionName@?1??AcpiEvInstallGpeHandler@@9@9 c0043458     AcpiSubsystem:evxface.obj
 0002:00008a6c       ?_AcpiFunctionName@?1??AcpiInstallGpeHandler@@9@9 c004346c     AcpiSubsystem:evxface.obj
 0002:00008a84       ?_AcpiFunctionName@?1??AcpiInstallGpeRawHandler@@9@9 c0043484     AcpiSubsystem:evxface.obj
 0002:00008aa0       ?_AcpiFunctionName@?1??AcpiRemoveGpeHandler@@9@9 c00434a0     AcpiSubsystem:evxface.obj
 0002:00008b94       __AcpiModuleName           c0043594     AcpiSubsystem:exsystem.obj
 0002:00008ba0       ?_AcpiFunctionName@?1??AcpiExSystemWaitSemaphore@@9@9 c00435a0     AcpiSubsystem:exsystem.obj
 0002:00008bb8       ?_AcpiFunctionName@?1??AcpiExSystemWaitMutex@@9@9 c00435b8     AcpiSubsystem:exsystem.obj
 0002:00008bcc       ?_AcpiFunctionName@?1??AcpiExSystemSignalEvent@@9@9 c00435cc     AcpiSubsystem:exsystem.obj
 0002:00008be0       ?_AcpiFunctionName@?1??AcpiExSystemWaitEvent@@9@9 c00435e0     AcpiSubsystem:exsystem.obj
 0002:00008c40       ?_AcpiFunctionName@?1??AcpiEvGpeDetect@@9@9 c0043640     AcpiSubsystem:evgpe.obj
 0002:00008c4c       ?_AcpiFunctionName@?1??AcpiEvAsynchExecuteGpeMethod@@9@9 c004364c     AcpiSubsystem:evgpe.obj
 0002:00008c68       ?_AcpiFunctionName@?1??AcpiEvGpeDispatch@@9@9 c0043668     AcpiSubsystem:evgpe.obj
 0002:00008c78       __AcpiModuleName           c0043678     AcpiSubsystem:evgpe.obj
 0002:00008c80       ?_AcpiFunctionName@?1??AcpiEvUpdateGpeEnableMask@@9@9 c0043680     AcpiSubsystem:evgpe.obj
 0002:00008c98       ?_AcpiFunctionName@?1??AcpiEvEnableGpe@@9@9 c0043698     AcpiSubsystem:evgpe.obj
 0002:00008ca4       ?_AcpiFunctionName@?1??AcpiEvAddGpeReference@@9@9 c00436a4     AcpiSubsystem:evgpe.obj
 0002:00008cb8       ?_AcpiFunctionName@?1??AcpiEvRemoveGpeReference@@9@9 c00436b8     AcpiSubsystem:evgpe.obj
 0002:00008e48       __AcpiModuleName           c0043848     AcpiSubsystem:evxfregn.obj
 0002:00008e54       ?_AcpiFunctionName@?1??AcpiInstallAddressSpaceHandler@@9@9 c0043854     AcpiSubsystem:evxfregn.obj
 0002:00008e74       ?_AcpiFunctionName@?1??AcpiRemoveAddressSpaceHandler@@9@9 c0043874     AcpiSubsystem:evxfregn.obj
 0002:00008f1c       __AcpiModuleName           c004391c     AcpiSubsystem:hwpci.obj
 0002:00008f24       ?_AcpiFunctionName@?1??AcpiHwDerivePciId@@9@9 c0043924     AcpiSubsystem:hwpci.obj
 0002:00008f34       ?_AcpiFunctionName@?1??AcpiHwProcessPciList@@9@9 c0043934     AcpiSubsystem:hwpci.obj
 0002:00008fdc       __AcpiModuleName           c00439dc     AcpiSubsystem:utids.obj
 0002:00008fe4       ?_AcpiFunctionName@?1??AcpiUtExecute_HID@@9@9 c00439e4     AcpiSubsystem:utids.obj
 0002:00008ff4       ?_AcpiFunctionName@?1??AcpiUtExecute_SUB@@9@9 c00439f4     AcpiSubsystem:utids.obj
 0002:00009004       ?_AcpiFunctionName@?1??AcpiUtExecute_UID@@9@9 c0043a04     AcpiSubsystem:utids.obj
 0002:00009014       ?_AcpiFunctionName@?1??AcpiUtExecute_CID@@9@9 c0043a14     AcpiSubsystem:utids.obj
 0002:00009024       ?_AcpiFunctionName@?1??AcpiUtExecute_CLS@@9@9 c0043a24     AcpiSubsystem:utids.obj
 0002:0000905c       __AcpiModuleName           c0043a5c     AcpiSubsystem:psargs.obj
 0002:00009064       ?_AcpiFunctionName@?1??AcpiPsGetNextPackageLength@@9@9 c0043a64     AcpiSubsystem:psargs.obj
 0002:0000907c       ?_AcpiFunctionName@?1??AcpiPsGetNextPackageEnd@@9@9 c0043a7c     AcpiSubsystem:psargs.obj
 0002:00009090       ?_AcpiFunctionName@?1??AcpiPsGetNextNamestring@@9@9 c0043a90     AcpiSubsystem:psargs.obj
 0002:000090a4       ?_AcpiFunctionName@?1??AcpiPsGetNextNamepath@@9@9 c0043aa4     AcpiSubsystem:psargs.obj
 0002:000090b8       ?_AcpiFunctionName@?1??AcpiPsGetNextSimpleArg@@9@9 c0043ab8     AcpiSubsystem:psargs.obj
 0002:000090cc       ?_AcpiFunctionName@?1??AcpiPsGetNextField@@9@9 c0043acc     AcpiSubsystem:psargs.obj
 0002:000090dc       ?_AcpiFunctionName@?1??AcpiPsGetNextArg@@9@9 c0043adc     AcpiSubsystem:psargs.obj
 0002:00009190       __AcpiModuleName           c0043b90     AcpiSubsystem:psparse.obj
 0002:00009198       ?_AcpiFunctionName@?1??AcpiPsCompleteThisOp@@9@9 c0043b98     AcpiSubsystem:psparse.obj
 0002:000091ac       ?_AcpiFunctionName@?1??AcpiPsNextParseState@@9@9 c0043bac     AcpiSubsystem:psparse.obj
 0002:000091c0       ?_AcpiFunctionName@?1??AcpiPsParseAml@@9@9 c0043bc0     AcpiSubsystem:psparse.obj
 0002:00009280       ?_AcpiFunctionName@?1??AcpiUtCopyIpackageToIpackage@@9@9 c0043c80     AcpiSubsystem:utcopy.obj
 0002:0000929c       ?_AcpiFunctionName@?1??AcpiUtCopyIobjectToIobject@@9@9 c0043c9c     AcpiSubsystem:utcopy.obj
 0002:000092b4       __AcpiModuleName           c0043cb4     AcpiSubsystem:utcopy.obj
 0002:000092bc       ?_AcpiFunctionName@?1??AcpiUtCopyIsimpleToEsimple@@9@9 c0043cbc     AcpiSubsystem:utcopy.obj
 0002:000092d4       ?_AcpiFunctionName@?1??AcpiUtCopyIpackageToEpackage@@9@9 c0043cd4     AcpiSubsystem:utcopy.obj
 0002:000092f0       ?_AcpiFunctionName@?1??AcpiUtCopyIobjectToEobject@@9@9 c0043cf0     AcpiSubsystem:utcopy.obj
 0002:00009308       ?_AcpiFunctionName@?1??AcpiUtCopyEsimpleToIsimple@@9@9 c0043d08     AcpiSubsystem:utcopy.obj
 0002:00009320       ?_AcpiFunctionName@?1??AcpiUtCopyEpackageToIpackage@@9@9 c0043d20     AcpiSubsystem:utcopy.obj
 0002:0000933c       ?_AcpiFunctionName@?1??AcpiUtCopyEobjectToIobject@@9@9 c0043d3c     AcpiSubsystem:utcopy.obj
 0002:000093f0       __AcpiModuleName           c0043df0     AcpiSubsystem:uthex.obj
 0002:000093f8       __AcpiModuleName           c0043df8     AcpiSubsystem:pswalk.obj
 0002:00009400       ?_AcpiFunctionName@?1??AcpiPsDeleteParseTree@@9@9 c0043e00     AcpiSubsystem:pswalk.obj
 0002:00009414       __AcpiModuleName           c0043e14     AcpiSubsystem:psutils.obj
 0002:0000941c       ?_AcpiFunctionName@?1??AcpiPsFreeOp@@9@9 c0043e1c     AcpiSubsystem:psutils.obj
 0002:0000943c       __AcpiModuleName           c0043e3c     AcpiSubsystem:dswstate.obj
 0002:00009448       ?_AcpiFunctionName@?1??AcpiDsResultPop@@9@9 c0043e48     AcpiSubsystem:dswstate.obj
 0002:00009454       ?_AcpiFunctionName@?1??AcpiDsResultPush@@9@9 c0043e54     AcpiSubsystem:dswstate.obj
 0002:00009464       ?_AcpiFunctionName@?1??AcpiDsResultStackPush@@9@9 c0043e64     AcpiSubsystem:dswstate.obj
 0002:00009478       ?_AcpiFunctionName@?1??AcpiDsResultStackPop@@9@9 c0043e78     AcpiSubsystem:dswstate.obj
 0002:0000948c       ?_AcpiFunctionName@?1??AcpiDsObjStackPush@@9@9 c0043e8c     AcpiSubsystem:dswstate.obj
 0002:0000949c       ?_AcpiFunctionName@?1??AcpiDsObjStackPop@@9@9 c0043e9c     AcpiSubsystem:dswstate.obj
 0002:000094ac       ?_AcpiFunctionName@?1??AcpiDsObjStackPopAndDelete@@9@9 c0043eac     AcpiSubsystem:dswstate.obj
 0002:000094c4       ?_AcpiFunctionName@?1??AcpiDsGetCurrentWalkState@@9@9 c0043ec4     AcpiSubsystem:dswstate.obj
 0002:000094dc       ?_AcpiFunctionName@?1??AcpiDsPushWalkState@@9@9 c0043edc     AcpiSubsystem:dswstate.obj
 0002:000094ec       ?_AcpiFunctionName@?1??AcpiDsPopWalkState@@9@9 c0043eec     AcpiSubsystem:dswstate.obj
 0002:000094fc       ?_AcpiFunctionName@?1??AcpiDsCreateWalkState@@9@9 c0043efc     AcpiSubsystem:dswstate.obj
 0002:00009510       ?_AcpiFunctionName@?1??AcpiDsInitAmlWalk@@9@9 c0043f10     AcpiSubsystem:dswstate.obj
 0002:00009520       ?_AcpiFunctionName@?1??AcpiDsDeleteWalkState@@9@9 c0043f20     AcpiSubsystem:dswstate.obj
 0002:00009874       __AcpiModuleName           c0044274     AcpiSubsystem:utbuffer.obj
 0002:000098d4       __AcpiModuleName           c00442d4     AcpiSubsystem:psscope.obj
 0002:000098dc       ?_AcpiFunctionName@?1??AcpiPsInitScope@@9@9 c00442dc     AcpiSubsystem:psscope.obj
 0002:000098e8       ?_AcpiFunctionName@?1??AcpiPsPushScope@@9@9 c00442e8     AcpiSubsystem:psscope.obj
 0002:000098f4       ?_AcpiFunctionName@?1??AcpiPsPopScope@@9@9 c00442f4     AcpiSubsystem:psscope.obj
 0002:00009900       ?_AcpiFunctionName@?1??AcpiPsCleanupScope@@9@9 c0044300     AcpiSubsystem:psscope.obj
 0002:00009928       __AcpiModuleName           c0044328     AcpiSubsystem:dsmethod.obj
 0002:00009934       ?_AcpiFunctionName@?1??AcpiDsAutoSerializeMethod@@9@9 c0044334     AcpiSubsystem:dsmethod.obj
 0002:0000994c       ?_AcpiFunctionName@?1??AcpiDsDetectNamedOpcodes@@9@9 c004434c     AcpiSubsystem:dsmethod.obj
 0002:00009968       ?_AcpiFunctionName@?1??AcpiDsCreateMethodMutex@@9@9 c0044368     AcpiSubsystem:dsmethod.obj
 0002:0000997c       ?_AcpiFunctionName@?1??AcpiDsBeginMethodExecution@@9@9 c004437c     AcpiSubsystem:dsmethod.obj
 0002:00009994       ?_AcpiFunctionName@?1??AcpiDsCallControlMethod@@9@9 c0044394     AcpiSubsystem:dsmethod.obj
 0002:000099a8       ?_AcpiFunctionName@?1??AcpiDsRestartControlMethod@@9@9 c00443a8     AcpiSubsystem:dsmethod.obj
 0002:000099c0       ?_AcpiFunctionName@?1??AcpiDsTerminateControlMethod@@9@9 c00443c0     AcpiSubsystem:dsmethod.obj
 0002:00009c40       _AcpiExDumpThermal         c0044640     AcpiSubsystem:exdump.obj
 0002:00009c58       _AcpiExDumpBufferField     c0044658     AcpiSubsystem:exdump.obj
 0002:00009c6c       _AcpiExDumpRegionField     c004466c     AcpiSubsystem:exdump.obj
 0002:00009c8c       _AcpiExDumpBankField       c004468c     AcpiSubsystem:exdump.obj
 0002:00009cac       _AcpiExDumpIndexField      c00446ac     AcpiSubsystem:exdump.obj
 0002:00009ccc       _AcpiExDumpReference       c00446cc     AcpiSubsystem:exdump.obj
 0002:00009d04       _AcpiExDumpAddressHandler  c0044704     AcpiSubsystem:exdump.obj
 0002:00009d28       _AcpiExDumpNotify          c0044728     AcpiSubsystem:exdump.obj
 0002:00009d54       _AcpiExDumpExtra           c0044754     AcpiSubsystem:exdump.obj
 0002:00009d78       _AcpiExDumpData            c0044778     AcpiSubsystem:exdump.obj
 0002:00009d8c       _AcpiExDumpCommon          c004478c     AcpiSubsystem:exdump.obj
 0002:00009dac       _AcpiExDumpFieldCommon     c00447ac     AcpiSubsystem:exdump.obj
 0002:00009dd8       _AcpiExDumpNode            c00447d8     AcpiSubsystem:exdump.obj
 0002:00009e04       __AcpiModuleName           c0044804     AcpiSubsystem:exdump.obj
 0002:00009e0c       _AcpiExDumpInteger         c004480c     AcpiSubsystem:exdump.obj
 0002:00009e18       _AcpiExDumpString          c0044818     AcpiSubsystem:exdump.obj
 0002:00009e30       _AcpiExDumpBuffer          c0044830     AcpiSubsystem:exdump.obj
 0002:00009e50       _AcpiExDumpPackage         c0044850     AcpiSubsystem:exdump.obj
 0002:00009e74       _AcpiExDumpDevice          c0044874     AcpiSubsystem:exdump.obj
 0002:00009e8c       ?_AcpiFunctionName@?1??AcpiExDumpOperand@@9@9 c004488c     AcpiSubsystem:exdump.obj
 0002:00009e9c       _AcpiExDumpEvent           c004489c     AcpiSubsystem:exdump.obj
 0002:00009ea8       _AcpiExDumpMethod          c00448a8     AcpiSubsystem:exdump.obj
 0002:00009ee0       _AcpiExDumpMutex           c00448e0     AcpiSubsystem:exdump.obj
 0002:00009f04       ?_AcpiFunctionName@?1??AcpiExDumpOperands@@9@9 c0044904     AcpiSubsystem:exdump.obj
 0002:00009f14       _AcpiExDumpRegion          c0044914     AcpiSubsystem:exdump.obj
 0002:00009f44       _AcpiExDumpPower           c0044944     AcpiSubsystem:exdump.obj
 0002:00009f68       ?_AcpiFunctionName@?1??AcpiExDumpObjectDescriptor@@9@9 c0044968     AcpiSubsystem:exdump.obj
 0002:00009f80       _AcpiExDumpProcessor       c0044980     AcpiSubsystem:exdump.obj
 0002:0000a8e4       __AcpiModuleName           c00452e4     AcpiSubsystem:exfield.obj
 0002:0000a8ec       ?_AcpiFunctionName@?1??AcpiExReadDataFromField@@9@9 c00452ec     AcpiSubsystem:exfield.obj
 0002:0000a900       ?_AcpiFunctionName@?1??AcpiExWriteDataToField@@9@9 c0045300     AcpiSubsystem:exfield.obj
 0002:0000ab08       __AcpiModuleName           c0045508     AcpiSubsystem:nsprepkg.obj
 0002:0000ab14       ?_AcpiFunctionName@?1??AcpiNsCheckPackage@@9@9 c0045514     AcpiSubsystem:nsprepkg.obj
 0002:0000aca0       __AcpiModuleName           c00456a0     AcpiSubsystem:nsrepair.obj
 0002:0000acb0       _AcpiObjectRepairInfo      c00456b0     AcpiSubsystem:nsrepair.obj
 0002:0000ad10       ?_AcpiFunctionName@?1??AcpiNsSimpleRepair@@9@9 c0045710     AcpiSubsystem:nsrepair.obj
 0002:0000ad20       ?_AcpiFunctionName@?1??AcpiNsRepairNullElement@@9@9 c0045720     AcpiSubsystem:nsrepair.obj
 0002:0000ad34       ?_AcpiFunctionName@?1??AcpiNsRemoveNullElements@@9@9 c0045734     AcpiSubsystem:nsrepair.obj
 0002:0000ad4c       ?_AcpiFunctionName@?1??AcpiNsWrapWithPackage@@9@9 c004574c     AcpiSubsystem:nsrepair.obj
 0002:0000aec0       ?_AcpiFunctionName@?1??AcpiNsRemoveElement@@9@9 c00458c0     AcpiSubsystem:nsrepair2.obj
 0002:0000aed0       __AcpiModuleName           c00458d0     AcpiSubsystem:nsrepair2.obj
 0002:0000aee0       _AcpiNsRepairableNames     c00458e0     AcpiSubsystem:nsrepair2.obj
 0002:0000af30       ?_AcpiFunctionName@?1??AcpiNsRepair_FDE@@9@9 c0045930     AcpiSubsystem:nsrepair2.obj
 0002:0000af40       ?_AcpiFunctionName@?1??AcpiNsRepair_CST@@9@9 c0045940     AcpiSubsystem:nsrepair2.obj
 0002:0000af50       ?_AcpiFunctionName@?1??AcpiNsRepair_HID@@9@9 c0045950     AcpiSubsystem:nsrepair2.obj
 0002:0000af60       ?_AcpiFunctionName@?1??AcpiNsCheckSortedList@@9@9 c0045960     AcpiSubsystem:nsrepair2.obj
 0002:0000b180       __AcpiModuleName           c0045b80     AcpiSubsystem:dbcmds.obj
 0002:0000b188       ?_AcpiFunctionName@?1??AcpiDbSleep@@9@9 c0045b88     AcpiSubsystem:dbcmds.obj
 0002:0000ba90       __AcpiModuleName           c0046490     AcpiSubsystem:dbdisply.obj
 0002:0000c2a0       __AcpiModuleName           c0046ca0     AcpiSubsystem:dbtest.obj
 0002:0000c6b0       __AcpiModuleName           c00470b0     AcpiSubsystem:dbmethod.obj
 0002:0000c8c0       __AcpiModuleName           c00472c0     AcpiSubsystem:dbnames.obj
 0002:0000cce0       ?_AcpiFunctionName@?1??AcpiDbExecuteSetup@@9@9 c00476e0     AcpiSubsystem:dbexec.obj
 0002:0000ccf0       __AcpiModuleName           c00476f0     AcpiSubsystem:dbexec.obj
 0002:0000ccf8       ?_AcpiFunctionName@?1??AcpiDbExecuteMethod@@9@9 c00476f8     AcpiSubsystem:dbexec.obj
 0002:0000d100       __AcpiModuleName           c0047b00     AcpiSubsystem:dbfileio.obj
 0002:0000d10c       __AcpiModuleName           c0047b0c     AcpiSubsystem:dbhistry.obj
 0002:0000d140       __AcpiModuleName           c0047b40     AcpiSubsystem:dbstats.obj
 0002:0000d79c       __AcpiModuleName           c004819c     AcpiSubsystem:dmobject.obj
 0002:0000dab0       __AcpiModuleName           c00484b0     AcpiSubsystem:psopinfo.obj
 0002:0000dabc       _AcpiGbl_ArgumentCount     c00484bc     AcpiSubsystem:psopinfo.obj
 0002:0000dac8       ?_AcpiFunctionName@?1??AcpiPsGetOpcodeInfo@@9@9 c00484c8     AcpiSubsystem:psopinfo.obj
 0002:0000dc84       __AcpiModuleName           c0048684     AcpiSubsystem:pstree.obj
 0002:0000dca8       __AcpiModuleName           c00486a8     AcpiSubsystem:dmopcode.obj
 0002:0000de78       __AcpiModuleName           c0048878     AcpiSubsystem:dmnames.obj
 0002:0000dec4       __AcpiModuleName           c00488c4     AcpiSubsystem:dmbuffer.obj
 0002:0000e214       __AcpiModuleName           c0048c14     AcpiSubsystem:dmutils.obj
 0002:0000e3b4       __AcpiModuleName           c0048db4     AcpiSubsystem:dmcstyle.obj
 0002:0000e49c       __AcpiModuleName           c0048e9c     AcpiSubsystem:nsxfobj.obj
 0002:0000e4a4       __AcpiModuleName           c0048ea4     AcpiSubsystem:psloop.obj
 0002:0000e4ac       ?_AcpiFunctionName@?1??AcpiPsGetArguments@@9@9 c0048eac     AcpiSubsystem:psloop.obj
 0002:0000e4bc       ?_AcpiFunctionName@?1??AcpiPsParseLoop@@9@9 c0048ebc     AcpiSubsystem:psloop.obj
 0002:0000e5c0       __AcpiModuleName           c0048fc0     AcpiSubsystem:dsutils.obj
 0002:0000e5c8       ?_AcpiFunctionName@?1??AcpiDsClearImplicitReturn@@9@9 c0048fc8     AcpiSubsystem:dsutils.obj
 0002:0000e5e0       ?_AcpiFunctionName@?1??AcpiDsDoImplicitReturn@@9@9 c0048fe0     AcpiSubsystem:dsutils.obj
 0002:0000e5f4       ?_AcpiFunctionName@?1??AcpiDsIsResultUsed@@9@9 c0048ff4     AcpiSubsystem:dsutils.obj
 0002:0000e604       ?_AcpiFunctionName@?1??AcpiDsDeleteResultIfNotUsed@@9@9 c0049004     AcpiSubsystem:dsutils.obj
 0002:0000e61c       ?_AcpiFunctionName@?1??AcpiDsResolveOperands@@9@9 c004901c     AcpiSubsystem:dsutils.obj
 0002:0000e630       ?_AcpiFunctionName@?1??AcpiDsClearOperands@@9@9 c0049030     AcpiSubsystem:dsutils.obj
 0002:0000e640       ?_AcpiFunctionName@?1??AcpiDsCreateOperand@@9@9 c0049040     AcpiSubsystem:dsutils.obj
 0002:0000e650       ?_AcpiFunctionName@?1??AcpiDsCreateOperands@@9@9 c0049050     AcpiSubsystem:dsutils.obj
 0002:0000e664       ?_AcpiFunctionName@?1??AcpiDsEvaluateNamePath@@9@9 c0049064     AcpiSubsystem:dsutils.obj
 0002:0000e864       __AcpiModuleName           c0049264     AcpiSubsystem:dswload.obj
 0002:0000e86c       ?_AcpiFunctionName@?1??AcpiDsLoad1BeginOp@@9@9 c004926c     AcpiSubsystem:dswload.obj
 0002:0000e87c       ?_AcpiFunctionName@?1??AcpiDsLoad1EndOp@@9@9 c004927c     AcpiSubsystem:dswload.obj
 0002:0000ea00       __AcpiModuleName           c0049400     AcpiSubsystem:dsmthdat.obj
 0002:0000ea0c       ?_AcpiFunctionName@?1??AcpiDsMethodDataInit@@9@9 c004940c     AcpiSubsystem:dsmthdat.obj
 0002:0000ea20       ?_AcpiFunctionName@?1??AcpiDsMethodDataDeleteAll@@9@9 c0049420     AcpiSubsystem:dsmthdat.obj
 0002:0000ea38       ?_AcpiFunctionName@?1??AcpiDsMethodDataInitArgs@@9@9 c0049438     AcpiSubsystem:dsmthdat.obj
 0002:0000ea50       ?_AcpiFunctionName@?1??AcpiDsMethodDataGetNode@@9@9 c0049450     AcpiSubsystem:dsmthdat.obj
 0002:0000ea64       ?_AcpiFunctionName@?1??AcpiDsMethodDataSetValue@@9@9 c0049464     AcpiSubsystem:dsmthdat.obj
 0002:0000ea7c       ?_AcpiFunctionName@?1??AcpiDsMethodDataGetValue@@9@9 c004947c     AcpiSubsystem:dsmthdat.obj
 0002:0000ea94       ?_AcpiFunctionName@?1??AcpiDsMethodDataDeleteValue@@9@9 c0049494     AcpiSubsystem:dsmthdat.obj
 0002:0000eaac       ?_AcpiFunctionName@?1??AcpiDsStoreObjectToLocal@@9@9 c00494ac     AcpiSubsystem:dsmthdat.obj
 0002:0000ec7c       ?_AcpiFunctionName@?1??AcpiExExtractFromField@@9@9 c004967c     AcpiSubsystem:exfldio.obj
 0002:0000ec90       ?_AcpiFunctionName@?1??AcpiExInsertIntoField@@9@9 c0049690     AcpiSubsystem:exfldio.obj
 0002:0000eca4       __AcpiModuleName           c00496a4     AcpiSubsystem:exfldio.obj
 0002:0000ecac       ?_AcpiFunctionName@?1??AcpiExSetupRegion@@9@9 c00496ac     AcpiSubsystem:exfldio.obj
 0002:0000ecbc       ?_AcpiFunctionName@?1??AcpiExAccessRegion@@9@9 c00496bc     AcpiSubsystem:exfldio.obj
 0002:0000eccc       ?_AcpiFunctionName@?1??AcpiExFieldDatumIo@@9@9 c00496cc     AcpiSubsystem:exfldio.obj
 0002:0000ecdc       ?_AcpiFunctionName@?1??AcpiExWriteWithUpdateRule@@9@9 c00496dc     AcpiSubsystem:exfldio.obj
 0002:0000f04c       __AcpiModuleName           c0049a4c     AcpiSubsystem:nsconvert.obj
 0002:0000f058       __AcpiModuleName           c0049a58     AcpiSubsystem:tbxfload.obj
 0002:0000f064       ?_AcpiFunctionName@?1??AcpiLoadTables@@9@9 c0049a64     AcpiSubsystem:tbxfload.obj
 0002:0000f074       ?_AcpiFunctionName@?1??AcpiTbLoadNamespace@@9@9 c0049a74     AcpiSubsystem:tbxfload.obj
 0002:0000f084       ?_AcpiFunctionName@?1??AcpiInstallTable@@9@9 c0049a84     AcpiSubsystem:tbxfload.obj
 0002:0000f098       ?_AcpiFunctionName@?1??AcpiLoadTable@@9@9 c0049a98     AcpiSubsystem:tbxfload.obj
 0002:0000f0a8       ?_AcpiFunctionName@?1??AcpiUnloadParentTable@@9@9 c0049aa8     AcpiSubsystem:tbxfload.obj
 0002:0000f13c       __AcpiModuleName           c0049b3c     AcpiSubsystem:rsxface.obj
 0002:0000f144       ?_AcpiFunctionName@?1??AcpiRsValidateParameters@@9@9 c0049b44     AcpiSubsystem:rsxface.obj
 0002:0000f15c       ?_AcpiFunctionName@?1??AcpiGetIrqRoutingTable@@9@9 c0049b5c     AcpiSubsystem:rsxface.obj
 0002:0000f174       ?_AcpiFunctionName@?1??AcpiGetCurrentResources@@9@9 c0049b74     AcpiSubsystem:rsxface.obj
 0002:0000f18c       ?_AcpiFunctionName@?1??AcpiGetPossibleResources@@9@9 c0049b8c     AcpiSubsystem:rsxface.obj
 0002:0000f1a8       ?_AcpiFunctionName@?1??AcpiSetCurrentResources@@9@9 c0049ba8     AcpiSubsystem:rsxface.obj
 0002:0000f1c0       ?_AcpiFunctionName@?1??AcpiGetEventResources@@9@9 c0049bc0     AcpiSubsystem:rsxface.obj
 0002:0000f1d8       ?_AcpiFunctionName@?1??AcpiWalkResourceBuffer@@9@9 c0049bd8     AcpiSubsystem:rsxface.obj
 0002:0000f1f0       ?_AcpiFunctionName@?1??AcpiWalkResources@@9@9 c0049bf0     AcpiSubsystem:rsxface.obj
 0002:0000f204       __AcpiModuleName           c0049c04     AcpiSubsystem:hwxfsleep.obj
 0002:0000f210       ?_AcpiFunctionName@?1??AcpiHwSetFirmwareWakingVector@@9@9 c0049c10     AcpiSubsystem:hwxfsleep.obj
 0002:0000f230       ?_AcpiFunctionName@?1??AcpiSetFirmwareWakingVector@@9@9 c0049c30     AcpiSubsystem:hwxfsleep.obj
 0002:0000f24c       ?_AcpiFunctionName@?1??AcpiEnterSleepStateS4bios@@9@9 c0049c4c     AcpiSubsystem:hwxfsleep.obj
 0002:0000f268       ?_AcpiFunctionName@?1??AcpiEnterSleepStatePrep@@9@9 c0049c68     AcpiSubsystem:hwxfsleep.obj
 0002:0000f280       ?_AcpiFunctionName@?1??AcpiEnterSleepState@@9@9 c0049c80     AcpiSubsystem:hwxfsleep.obj
 0002:0000f294       ?_AcpiFunctionName@?1??AcpiLeaveSleepStatePrep@@9@9 c0049c94     AcpiSubsystem:hwxfsleep.obj
 0002:0000f2ac       ?_AcpiFunctionName@?1??AcpiLeaveSleepState@@9@9 c0049cac     AcpiSubsystem:hwxfsleep.obj
 0002:0000f5cc       _AcpiGbl_ResourceTypes     c0049fcc     AcpiSubsystem:utresrc.obj
 0002:0000f5ec       ?_AcpiFunctionName@?1??AcpiUtWalkAmlResources@@9@9 c0049fec     AcpiSubsystem:utresrc.obj
 0002:0000f600       ?_AcpiFunctionName@?1??AcpiUtGetResourceEndTag@@9@9 c004a000     AcpiSubsystem:utresrc.obj
 0002:0000f638       __AcpiModuleName           c004a038     AcpiSubsystem:utresrc.obj
 0002:0000facc       __AcpiModuleName           c004a4cc     AcpiSubsystem:rscreate.obj
 0002:0000fad8       ?_AcpiFunctionName@?1??AcpiBufferToResource@@9@9 c004a4d8     AcpiSubsystem:rscreate.obj
 0002:0000faf0       ?_AcpiFunctionName@?1??AcpiRsCreateResourceList@@9@9 c004a4f0     AcpiSubsystem:rscreate.obj
 0002:0000fb08       ?_AcpiFunctionName@?1??AcpiRsCreatePciRoutingTable@@9@9 c004a508     AcpiSubsystem:rscreate.obj
 0002:0000fb20       ?_AcpiFunctionName@?1??AcpiRsCreateAmlResources@@9@9 c004a520     AcpiSubsystem:rscreate.obj
 0002:0000fcf4       __AcpiModuleName           c004a6f4     AcpiSubsystem:rsdump.obj
 0002:0000fec0       __AcpiModuleName           c004a8c0     AcpiSubsystem:dmdeferred.obj
 0002:0000fecc       ?_AcpiFunctionName@?1??AcpiDmDeferredParse@@9@9 c004a8cc     AcpiSubsystem:dmdeferred.obj
 0002:0000ff28       __AcpiModuleName           c004a928     AcpiSubsystem:dbconvert.obj
 0002:0001081c       __AcpiModuleName           c004b21c     AcpiSubsystem:psopcode.obj
 0002:00010ca8       __AcpiModuleName           c004b6a8     AcpiSubsystem:ahids.obj
 0002:00012678       __AcpiModuleName           c004d078     AcpiSubsystem:dmresrc.obj
 0002:00012788       __AcpiModuleName           c004d188     AcpiSubsystem:ahuuids.obj
 0002:00012dd4       ?_AcpiFunctionName@?1??AcpiPsCompleteFinalOp@@9@9 c004d7d4     AcpiSubsystem:psobject.obj
 0002:00012de8       __AcpiModuleName           c004d7e8     AcpiSubsystem:psobject.obj
 0002:00012df4       ?_AcpiFunctionName@?1??AcpiPsGetAmlOpcode@@9@9 c004d7f4     AcpiSubsystem:psobject.obj
 0002:00012e04       ?_AcpiFunctionName@?1??AcpiPsBuildNamedOp@@9@9 c004d804     AcpiSubsystem:psobject.obj
 0002:00012e14       ?_AcpiFunctionName@?1??AcpiPsCreateOp@@9@9 c004d814     AcpiSubsystem:psobject.obj
 0002:00012e20       ?_AcpiFunctionName@?1??AcpiPsCompleteOp@@9@9 c004d820     AcpiSubsystem:psobject.obj
 0002:00012ea4       __AcpiModuleName           c004d8a4     AcpiSubsystem:dswexec.obj
 0002:00012eac       ?_AcpiFunctionName@?1??AcpiDsGetPredicateValue@@9@9 c004d8ac     AcpiSubsystem:dswexec.obj
 0002:00012ec0       ?_AcpiFunctionName@?1??AcpiDsExecBeginOp@@9@9 c004d8c0     AcpiSubsystem:dswexec.obj
 0002:00012ed0       ?_AcpiFunctionName@?1??AcpiDsExecEndOp@@9@9 c004d8d0     AcpiSubsystem:dswexec.obj
 0002:000131a0       __AcpiModuleName           c004dba0     AcpiSubsystem:dsobject.obj
 0002:000131ac       ?_AcpiFunctionName@?1??AcpiDsBuildInternalObject@@9@9 c004dbac     AcpiSubsystem:dsobject.obj
 0002:000131c4       ?_AcpiFunctionName@?1??AcpiDsBuildInternalBufferObj@@9@9 c004dbc4     AcpiSubsystem:dsobject.obj
 0002:000131e0       ?_AcpiFunctionName@?1??AcpiDsBuildInternalPackageObj@@9@9 c004dbe0     AcpiSubsystem:dsobject.obj
 0002:000131fc       ?_AcpiFunctionName@?1??AcpiDsCreateNode@@9@9 c004dbfc     AcpiSubsystem:dsobject.obj
 0002:0001320c       ?_AcpiFunctionName@?1??AcpiDsInitObjectFromOp@@9@9 c004dc0c     AcpiSubsystem:dsobject.obj
 0002:0001344c       ?_AcpiFunctionName@?1??AcpiExResolveMultiple@@9@9 c004de4c     AcpiSubsystem:exresolv.obj
 0002:00013464       __AcpiModuleName           c004de64     AcpiSubsystem:exresolv.obj
 0002:00013470       ?_AcpiFunctionName@?1??AcpiExResolveToValue@@9@9 c004de70     AcpiSubsystem:exresolv.obj
 0002:00013484       ?_AcpiFunctionName@?1??AcpiExResolveObjectToValue@@9@9 c004de84     AcpiSubsystem:exresolv.obj
 0002:000135e8       __AcpiModuleName           c004dfe8     AcpiSubsystem:exnames.obj
 0002:000135f0       ?_AcpiFunctionName@?1??AcpiExAllocateNameString@@9@9 c004dff0     AcpiSubsystem:exnames.obj
 0002:00013608       ?_AcpiFunctionName@?1??AcpiExNameSegment@@9@9 c004e008     AcpiSubsystem:exnames.obj
 0002:00013618       ?_AcpiFunctionName@?1??AcpiExGetNameString@@9@9 c004e018     AcpiSubsystem:exnames.obj
 0002:0001377c       __AcpiModuleName           c004e17c     AcpiSubsystem:dsfield.obj
 0002:00013784       ?_AcpiFunctionName@?1??AcpiDsCreateBufferField@@9@9 c004e184     AcpiSubsystem:dsfield.obj
 0002:00013798       ?_AcpiFunctionName@?1??AcpiDsGetFieldNames@@9@9 c004e198     AcpiSubsystem:dsfield.obj
 0002:000137a8       ?_AcpiFunctionName@?1??AcpiDsCreateField@@9@9 c004e1a8     AcpiSubsystem:dsfield.obj
 0002:000137b8       ?_AcpiFunctionName@?1??AcpiDsInitFieldObjects@@9@9 c004e1b8     AcpiSubsystem:dsfield.obj
 0002:000137cc       ?_AcpiFunctionName@?1??AcpiDsCreateBankField@@9@9 c004e1cc     AcpiSubsystem:dsfield.obj
 0002:000137e0       ?_AcpiFunctionName@?1??AcpiDsCreateIndexField@@9@9 c004e1e0     AcpiSubsystem:dsfield.obj
 0002:00013880       __AcpiModuleName           c004e280     AcpiSubsystem:dswload2.obj
 0002:0001388c       ?_AcpiFunctionName@?1??AcpiDsLoad2BeginOp@@9@9 c004e28c     AcpiSubsystem:dswload2.obj
 0002:0001389c       ?_AcpiFunctionName@?1??AcpiDsLoad2EndOp@@9@9 c004e29c     AcpiSubsystem:dswload2.obj
 0002:000139e8       __AcpiModuleName           c004e3e8     AcpiSubsystem:excreate.obj
 0002:000139f4       ?_AcpiFunctionName@?1??AcpiExCreateAlias@@9@9 c004e3f4     AcpiSubsystem:excreate.obj
 0002:00013a04       ?_AcpiFunctionName@?1??AcpiExCreateEvent@@9@9 c004e404     AcpiSubsystem:excreate.obj
 0002:00013a14       ?_AcpiFunctionName@?1??AcpiExCreateMutex@@9@9 c004e414     AcpiSubsystem:excreate.obj
 0002:00013a24       ?_AcpiFunctionName@?1??AcpiExCreateRegion@@9@9 c004e424     AcpiSubsystem:excreate.obj
 0002:00013a34       ?_AcpiFunctionName@?1??AcpiExCreateProcessor@@9@9 c004e434     AcpiSubsystem:excreate.obj
 0002:00013a48       ?_AcpiFunctionName@?1??AcpiExCreatePowerResource@@9@9 c004e448     AcpiSubsystem:excreate.obj
 0002:00013a60       ?_AcpiFunctionName@?1??AcpiExCreateMethod@@9@9 c004e460     AcpiSubsystem:excreate.obj
 0002:00013a8c       ?_AcpiFunctionName@?1??AcpiExStoreObjectToNode@@9@9 c004e48c     AcpiSubsystem:exstore.obj
 0002:00013aa0       ?_AcpiFunctionName@?1??AcpiExStoreDirectToNode@@9@9 c004e4a0     AcpiSubsystem:exstore.obj
 0002:00013ab4       __AcpiModuleName           c004e4b4     AcpiSubsystem:exstore.obj
 0002:00013abc       ?_AcpiFunctionName@?1??AcpiExStore@@9@9 c004e4bc     AcpiSubsystem:exstore.obj
 0002:00013ac4       ?_AcpiFunctionName@?1??AcpiExStoreObjectToIndex@@9@9 c004e4c4     AcpiSubsystem:exstore.obj
 0002:00013c4c       __AcpiModuleName           c004e64c     AcpiSubsystem:exconvrt.obj
 0002:00013c58       ?_AcpiFunctionName@?1??AcpiExConvertToInteger@@9@9 c004e658     AcpiSubsystem:exconvrt.obj
 0002:00013c6c       ?_AcpiFunctionName@?1??AcpiExConvertToBuffer@@9@9 c004e66c     AcpiSubsystem:exconvrt.obj
 0002:00013c80       ?_AcpiFunctionName@?1??AcpiExConvertToString@@9@9 c004e680     AcpiSubsystem:exconvrt.obj
 0002:00013c94       ?_AcpiFunctionName@?1??AcpiExConvertToTargetType@@9@9 c004e694     AcpiSubsystem:exconvrt.obj
 0002:00013d50       __AcpiModuleName           c004e750     AcpiSubsystem:nsload.obj
 0002:00013d58       ?_AcpiFunctionName@?1??AcpiNsLoadTable@@9@9 c004e758     AcpiSubsystem:nsload.obj
 0002:00013de0       __AcpiModuleName           c004e7e0     AcpiSubsystem:rsutils.obj
 0002:00013de8       ?_AcpiFunctionName@?1??AcpiRsGetPrtMethodData@@9@9 c004e7e8     AcpiSubsystem:rsutils.obj
 0002:00013dfc       ?_AcpiFunctionName@?1??AcpiRsGetCrsMethodData@@9@9 c004e7fc     AcpiSubsystem:rsutils.obj
 0002:00013e10       ?_AcpiFunctionName@?1??AcpiRsGetPrsMethodData@@9@9 c004e810     AcpiSubsystem:rsutils.obj
 0002:00013e24       ?_AcpiFunctionName@?1??AcpiRsGetAeiMethodData@@9@9 c004e824     AcpiSubsystem:rsutils.obj
 0002:00013e38       ?_AcpiFunctionName@?1??AcpiRsGetMethodData@@9@9 c004e838     AcpiSubsystem:rsutils.obj
 0002:00013e48       ?_AcpiFunctionName@?1??AcpiRsSetSrsMethodData@@9@9 c004e848     AcpiSubsystem:rsutils.obj
 0002:00013e64       __AcpiModuleName           c004e864     AcpiSubsystem:hwsleep.obj
 0002:00013e6c       ?_AcpiFunctionName@?1??AcpiHwLegacySleep@@9@9 c004e86c     AcpiSubsystem:hwsleep.obj
 0002:00013e7c       ?_AcpiFunctionName@?1??AcpiHwLegacyWakePrep@@9@9 c004e87c     AcpiSubsystem:hwsleep.obj
 0002:00013e90       ?_AcpiFunctionName@?1??AcpiHwLegacyWake@@9@9 c004e890     AcpiSubsystem:hwsleep.obj
 0002:00013ec4       __AcpiModuleName           c004e8c4     AcpiSubsystem:hwesleep.obj
 0002:00013ed0       ?_AcpiFunctionName@?1??AcpiHwExecuteSleepMethod@@9@9 c004e8d0     AcpiSubsystem:hwesleep.obj
 0002:00013ee8       ?_AcpiFunctionName@?1??AcpiHwExtendedSleep@@9@9 c004e8e8     AcpiSubsystem:hwesleep.obj
 0002:00013ef8       ?_AcpiFunctionName@?1??AcpiHwExtendedWakePrep@@9@9 c004e8f8     AcpiSubsystem:hwesleep.obj
 0002:00013f0c       ?_AcpiFunctionName@?1??AcpiHwExtendedWake@@9@9 c004e90c     AcpiSubsystem:hwesleep.obj
 0002:00013f38       __AcpiModuleName           c004e938     AcpiSubsystem:rscalc.obj
 0002:00013f40       ?_AcpiFunctionName@?1??AcpiRsGetAmlLength@@9@9 c004e940     AcpiSubsystem:rscalc.obj
 0002:00013f50       ?_AcpiFunctionName@?1??AcpiRsGetListLength@@9@9 c004e950     AcpiSubsystem:rscalc.obj
 0002:00013f60       ?_AcpiFunctionName@?1??AcpiRsGetPciRoutingTableLength@@9@9 c004e960     AcpiSubsystem:rscalc.obj
 0002:00013fac       ?_AcpiFunctionName@?1??AcpiRsConvertResourcesToAml@@9@9 c004e9ac     AcpiSubsystem:rslist.obj
 0002:00013fc4       __AcpiModuleName           c004e9c4     AcpiSubsystem:rslist.obj
 0002:00013fcc       ?_AcpiFunctionName@?1??AcpiRsConvertAmlToResources@@9@9 c004e9cc     AcpiSubsystem:rslist.obj
 0002:000140cc       __AcpiModuleName           c004eacc     AcpiSubsystem:rsinfo.obj
 0002:00014e0c       __AcpiModuleName           c004f80c     AcpiSubsystem:rsdumpinfo.obj
 0002:00014e48       __AcpiModuleName           c004f848     AcpiSubsystem:dmresrcl.obj
 0002:00014ff0       __AcpiModuleName           c004f9f0     AcpiSubsystem:dmresrcl2.obj
 0002:00015168       __AcpiModuleName           c004fb68     AcpiSubsystem:dmresrcs.obj
 0002:00015250       __AcpiModuleName           c004fc50     AcpiSubsystem:utuuid.obj
 0002:00015268       __AcpiModuleName           c004fc68     AcpiSubsystem:exoparg1.obj
 0002:00015274       ?_AcpiFunctionName@?1??AcpiExOpcode_0A_0T_1R@@9@9 c004fc74     AcpiSubsystem:exoparg1.obj
 0002:00015288       ?_AcpiFunctionName@?1??AcpiExOpcode_1A_0T_0R@@9@9 c004fc88     AcpiSubsystem:exoparg1.obj
 0002:0001529c       ?_AcpiFunctionName@?1??AcpiExOpcode_1A_1T_0R@@9@9 c004fc9c     AcpiSubsystem:exoparg1.obj
 0002:000152b0       ?_AcpiFunctionName@?1??AcpiExOpcode_1A_1T_1R@@9@9 c004fcb0     AcpiSubsystem:exoparg1.obj
 0002:000152c4       ?_AcpiFunctionName@?1??AcpiExOpcode_1A_0T_1R@@9@9 c004fcc4     AcpiSubsystem:exoparg1.obj
 0002:00015414       __AcpiModuleName           c004fe14     AcpiSubsystem:exoparg2.obj
 0002:00015420       ?_AcpiFunctionName@?1??AcpiExOpcode_2A_0T_0R@@9@9 c004fe20     AcpiSubsystem:exoparg2.obj
 0002:00015434       ?_AcpiFunctionName@?1??AcpiExOpcode_2A_2T_1R@@9@9 c004fe34     AcpiSubsystem:exoparg2.obj
 0002:00015448       ?_AcpiFunctionName@?1??AcpiExOpcode_2A_1T_1R@@9@9 c004fe48     AcpiSubsystem:exoparg2.obj
 0002:0001545c       ?_AcpiFunctionName@?1??AcpiExOpcode_2A_0T_1R@@9@9 c004fe5c     AcpiSubsystem:exoparg2.obj
 0002:000154cc       __AcpiModuleName           c004fecc     AcpiSubsystem:exoparg3.obj
 0002:000154d8       ?_AcpiFunctionName@?1??AcpiExOpcode_3A_0T_0R@@9@9 c004fed8     AcpiSubsystem:exoparg3.obj
 0002:000154ec       ?_AcpiFunctionName@?1??AcpiExOpcode_3A_1T_1R@@9@9 c004feec     AcpiSubsystem:exoparg3.obj
 0002:00015544       __AcpiModuleName           c004ff44     AcpiSubsystem:exoparg6.obj
 0002:00015550       ?_AcpiFunctionName@?1??AcpiExOpcode_6A_0T_1R@@9@9 c004ff50     AcpiSubsystem:exoparg6.obj
 0002:000155b0       __AcpiModuleName           c004ffb0     AcpiSubsystem:dscontrol.obj
 0002:000155bc       ?_AcpiFunctionName@?1??AcpiDsExecBeginControlOp@@9@9 c004ffbc     AcpiSubsystem:dscontrol.obj
 0002:000155d4       ?_AcpiFunctionName@?1??AcpiDsExecEndControlOp@@9@9 c004ffd4     AcpiSubsystem:dscontrol.obj
 0002:00015704       __AcpiModuleName           c0050104     AcpiSubsystem:dsopcode.obj
 0002:00015710       ?_AcpiFunctionName@?1??AcpiDsInitBufferField@@9@9 c0050110     AcpiSubsystem:dsopcode.obj
 0002:00015724       ?_AcpiFunctionName@?1??AcpiDsEvalBufferFieldOperands@@9@9 c0050124     AcpiSubsystem:dsopcode.obj
 0002:00015740       ?_AcpiFunctionName@?1??AcpiDsEvalRegionOperands@@9@9 c0050140     AcpiSubsystem:dsopcode.obj
 0002:00015758       ?_AcpiFunctionName@?1??AcpiDsEvalTableRegionOperands@@9@9 c0050158     AcpiSubsystem:dsopcode.obj
 0002:00015774       ?_AcpiFunctionName@?1??AcpiDsEvalDataObjectOperands@@9@9 c0050174     AcpiSubsystem:dsopcode.obj
 0002:00015790       ?_AcpiFunctionName@?1??AcpiDsEvalBankFieldOperands@@9@9 c0050190     AcpiSubsystem:dsopcode.obj
 0002:000158d4       __AcpiModuleName           c00502d4     AcpiSubsystem:exresop.obj
 0002:000158dc       ?_AcpiFunctionName@?1??AcpiExResolveOperands@@9@9 c00502dc     AcpiSubsystem:exresop.obj
 0002:00015b1c       __AcpiModuleName           c005051c     AcpiSubsystem:exprep.obj
 0002:00015b24       ?_AcpiFunctionName@?1??AcpiExDecodeFieldAccess@@9@9 c0050524     AcpiSubsystem:exprep.obj
 0002:00015b38       ?_AcpiFunctionName@?1??AcpiExPrepCommonFieldObject@@9@9 c0050538     AcpiSubsystem:exprep.obj
 0002:00015b50       ?_AcpiFunctionName@?1??AcpiExPrepFieldValue@@9@9 c0050550     AcpiSubsystem:exprep.obj
 0002:00015ca0       __AcpiModuleName           c00506a0     AcpiSubsystem:exdebug.obj
 0002:00015ca8       ?_AcpiFunctionName@?1??AcpiExDoDebugObject@@9@9 c00506a8     AcpiSubsystem:exdebug.obj
 0002:00015e24       __AcpiModuleName           c0050824     AcpiSubsystem:exstoren.obj
 0002:00015e30       ?_AcpiFunctionName@?1??AcpiExResolveObject@@9@9 c0050830     AcpiSubsystem:exstoren.obj
 0002:00015e40       ?_AcpiFunctionName@?1??AcpiExStoreObjectToObject@@9@9 c0050840     AcpiSubsystem:exstoren.obj
 0002:00015edc       __AcpiModuleName           c00508dc     AcpiSubsystem:nsparse.obj
 0002:00015ee4       ?_AcpiFunctionName@?1??AcpiNsOneCompleteParse@@9@9 c00508e4     AcpiSubsystem:nsparse.obj
 0002:00015ef8       ?_AcpiFunctionName@?1??AcpiNsParseTable@@9@9 c00508f8     AcpiSubsystem:nsparse.obj
 0002:00015f48       __AcpiModuleName           c0050948     AcpiSubsystem:dsinit.obj
 0002:00015f50       ?_AcpiFunctionName@?1??AcpiDsInitializeObjects@@9@9 c0050950     AcpiSubsystem:dsinit.obj
 0002:00016018       ?_AcpiFunctionName@?1??AcpiRsConvertResourceToAml@@9@9 c0050a18     AcpiSubsystem:rsmisc.obj
 0002:00016030       __AcpiModuleName           c0050a30     AcpiSubsystem:rsmisc.obj
 0002:00016038       ?_AcpiFunctionName@?1??AcpiRsConvertAmlToResource@@9@9 c0050a38     AcpiSubsystem:rsmisc.obj
 0002:00016178       __AcpiModuleName           c0050b78     AcpiSubsystem:rsirq.obj
 0002:00016204       __AcpiModuleName           c0050c04     AcpiSubsystem:rsio.obj
 0002:00016270       __AcpiModuleName           c0050c70     AcpiSubsystem:rsmemory.obj
 0002:0001627c       _AcpiRsConvertGeneralFlags c0050c7c     AcpiSubsystem:rsaddr.obj
 0002:00016294       _AcpiRsConvertMemFlags     c0050c94     AcpiSubsystem:rsaddr.obj
 0002:000162a8       _AcpiRsConvertIoFlags      c0050ca8     AcpiSubsystem:rsaddr.obj
 0002:00016308       __AcpiModuleName           c0050d08     AcpiSubsystem:rsaddr.obj
 0002:00016440       __AcpiModuleName           c0050e40     AcpiSubsystem:rsserial.obj
 0002:0001644c       __AcpiModuleName           c0050e4c     AcpiSubsystem:exmisc.obj
 0002:00016454       ?_AcpiFunctionName@?1??AcpiExGetObjectReference@@9@9 c0050e54     AcpiSubsystem:exmisc.obj
 0002:0001646c       ?_AcpiFunctionName@?1??AcpiExConcatTemplate@@9@9 c0050e6c     AcpiSubsystem:exmisc.obj
 0002:00016480       ?_AcpiFunctionName@?1??AcpiExDoConcatenate@@9@9 c0050e80     AcpiSubsystem:exmisc.obj
 0002:00016490       ?_AcpiFunctionName@?1??AcpiExDoLogicalNumericOp@@9@9 c0050e90     AcpiSubsystem:exmisc.obj
 0002:000164a8       ?_AcpiFunctionName@?1??AcpiExDoLogicalOp@@9@9 c0050ea8     AcpiSubsystem:exmisc.obj
 0002:00016508       __AcpiModuleName           c0050f08     AcpiSubsystem:exconfig.obj
 0002:00016514       ?_AcpiFunctionName@?1??AcpiExAddTable@@9@9 c0050f14     AcpiSubsystem:exconfig.obj
 0002:00016520       ?_AcpiFunctionName@?1??AcpiExLoadTableOp@@9@9 c0050f20     AcpiSubsystem:exconfig.obj
 0002:00016530       ?_AcpiFunctionName@?1??AcpiExLoadOp@@9@9 c0050f30     AcpiSubsystem:exconfig.obj
 0002:0001653c       ?_AcpiFunctionName@?1??AcpiExUnloadTable@@9@9 c0050f3c     AcpiSubsystem:exconfig.obj
 0002:000165d0       __AcpiModuleName           c0050fd0     AcpiSubsystem:tbfind.obj
 0002:000165d8       ?_AcpiFunctionName@?1??AcpiTbFindTable@@9@9 c0050fd8     AcpiSubsystem:tbfind.obj
 0002:000165fc       __AcpiModuleName           c0050ffc     AcpiSubsystem:exstorob.obj
 0002:00016608       ?_AcpiFunctionName@?1??AcpiExStoreBufferToBuffer@@9@9 c0051008     AcpiSubsystem:exstorob.obj
 0002:00016620       ?_AcpiFunctionName@?1??AcpiExStoreStringToString@@9@9 c0051020     AcpiSubsystem:exstorob.obj
 0002:000167b8       _l_pageSize                c00511b8     * CIL library *:* CIL module *
 0002:00017028       _l_pageCount               c0051a28     * CIL library *:* CIL module *
 0002:000170a8       ___font_index__            c0051aa8     * CIL library *:* CIL module *
 0002:000187c8       ___font_widths__           c00531c8     * CIL library *:* CIL module *
 0002:00019380       _vgafont                   c0053d80     * CIL library *:* CIL module *
 0002:00019390       ___font_bitmap__           c0053d90     * CIL library *:* CIL module *
 0003:00000000       _AcpiGbl_PrevThreadId      c005fa00     AcpiSubsystem:utdebug.obj
 0003:00000008       _AcpiGbl_FnEntryStr        c005fa08     AcpiSubsystem:utdebug.obj
 0003:0000000c       _AcpiGbl_FnExitStr         c005fa0c     AcpiSubsystem:utdebug.obj
 0003:000000d0       _AcpiDefaultSupportedInterfaces c005fad0     AcpiSubsystem:utosi.obj
 0003:000001cc       _AcpiGbl_EventTypes        c005fbcc     AcpiSubsystem:utdecode.obj
 0003:000001e0       _AcpiGbl_NsTypeNames       c005fbe0     AcpiSubsystem:utdecode.obj
 0003:0000025c       _AcpiGbl_RefClassNames     c005fc5c     AcpiSubsystem:utdecode.obj
 0003:00000278       _AcpiGbl_DescTypeNames     c005fc78     AcpiSubsystem:utdecode.obj
 0003:000002b8       _AcpiGbl_MutexNames        c005fcb8     AcpiSubsystem:utdecode.obj
 0003:000002d8       _AcpiGbl_GenericNotify     c005fcd8     AcpiSubsystem:utdecode.obj
 0003:00000310       _AcpiGbl_DeviceNotify      c005fd10     AcpiSubsystem:utdecode.obj
 0003:00000320       _AcpiGbl_ProcessorNotify   c005fd20     AcpiSubsystem:utdecode.obj
 0003:00000330       _AcpiGbl_ThermalNotify     c005fd30     AcpiSubsystem:utdecode.obj
 0003:00000340       _FadtInfoTable             c005fd40     AcpiSubsystem:tbfadt.obj
 0003:000003a0       _FadtPmInfoTable           c005fda0     AcpiSubsystem:tbfadt.obj
 0003:000003bc       _UtRtypeNames              c005fdbc     AcpiSubsystem:utpredef.obj
 0003:000003d0       _Converter                 c005fdd0     AcpiSubsystem:dbutils.obj
 0003:000003d4       _AcpiGbl_HexToAscii        c005fdd4     AcpiSubsystem:uthex.obj
 0003:000003e8       _AcpiExDumpInfo            c005fde8     AcpiSubsystem:exdump.obj
 0003:00000460       _AcpiGbl_SpaceIdList       c005fe60     AcpiSubsystem:dbdisply.obj
 0003:0000046c       _AcpiGbl_HandlerList       c005fe6c     AcpiSubsystem:dbdisply.obj
 0003:00000494       _AcpiDbTestTypes           c005fe94     AcpiSubsystem:dbtest.obj
 0003:000004a0       _ReadMethodCode            c005fea0     AcpiSubsystem:dbtest.obj
 0003:000004d0       _WriteMethodCode           c005fed0     AcpiSubsystem:dbtest.obj
 0003:00000500       _AcpiDbObjectTypes         c005ff00     AcpiSubsystem:dbnames.obj
 0003:00000560       _AcpiDbStatTypes           c005ff60     AcpiSubsystem:dbstats.obj
 0003:00000580       _DmPanelList               c005ff80     AcpiSubsystem:dmbuffer.obj
 0003:000005a0       _DmVerticalPositionList    c005ffa0     AcpiSubsystem:dmbuffer.obj
 0003:000005b0       _DmHorizontalPositionList  c005ffb0     AcpiSubsystem:dmbuffer.obj
 0003:000005c0       _DmShapeList               c005ffc0     AcpiSubsystem:dmbuffer.obj
 0003:00000650       _AcpiSleepDispatch         c0060050     AcpiSubsystem:hwxfsleep.obj
 0003:00000820       _AcpiGbl_DmResourceDispatch c0060220     AcpiSubsystem:dmresrc.obj
 0003:0000089c       _AcpiGbl_OpTypeDispatch    c006029c     AcpiSubsystem:dswexec.obj
 0003:00000a10       _AcpiDmAddressNames        c0060410     AcpiSubsystem:dmresrcl.obj
 0003:00000a24       _AcpiDmMemoryNames         c0060424     AcpiSubsystem:dmresrcl.obj
 0003:00000a34       _SerialBusResourceDispatch c0060434     AcpiSubsystem:dmresrcl2.obj
 0003:00000a8e       _colourByte                c006048e     * CIL library *:* CIL module *
 0003:00000a90       _y                         c0060490     * CIL library *:* CIL module *
 0003:00000a94       _vidmem                    c0060494     * CIL library *:* CIL module *
 0003:00000a98       _graphics                  c0060498     * CIL library *:* CIL module *
 0003:00000a9c       _pMemoryManager            c006049c     * CIL library *:* CIL module *
 0003:00000ae8       _terminal                  c00604e8     * CIL library *:* CIL module *
 0003:00000aec       _thegraphics               c00604ec     * CIL library *:* CIL module *
 0003:00000b68       _lalloc_lock               c0060568     * CIL library *:* CIL module *
 0003:00000b78       _defMemoryManager          c0060578     * CIL library *:* CIL module *
 0003:00000b84       _MBPmemMngr                c0060584     * CIL library *:* CIL module *
 0003:00000bc8       _tables                    c00605c8     AcpiSubsystem:ChaiOSL.obj
 0003:00000d48       _ReadHandle                c0060748     AcpiSubsystem:dbtest.obj
 0003:00000d4c       _WriteHandle               c006074c     AcpiSubsystem:dbtest.obj
 0003:00000d50       _AcpiGbl_DbMethodInfo      c0060750     AcpiSubsystem:dbexec.obj
 0003:00000fc8       _AcpiGbl_LoHistory         c00609c8     AcpiSubsystem:dbhistry.obj
 0003:00000fcc       _AcpiGbl_NumHistory        c00609cc     AcpiSubsystem:dbhistry.obj
 0003:00000fd0       _AcpiGbl_NextHistoryIndex  c00609d0     AcpiSubsystem:dbhistry.obj
 0003:00000fd8       _AcpiGbl_HistoryBuffer     c00609d8     AcpiSubsystem:dbhistry.obj
 0003:00001118       _ResourceName              c0060b18     AcpiSubsystem:dmresrc.obj
 0003:00001130       _x                         c0060b30     * CIL library *:* CIL module *
 0003:00001134       _mmu_recursive_slot        c0060b34     * CIL library *:* CIL module *
 0003:0000113d       _initialised               c0060b3d     * CIL library *:* CIL module *
 0003:0000119c       _nStrings                  c0060b9c     * CIL library *:* CIL module *
 0003:000011a0       _rawStrings                c0060ba0     * CIL library *:* CIL module *
 0003:000011a4       _stringArray               c0060ba4     * CIL library *:* CIL module *
 0003:000011a8       _l_initialized             c0060ba8     * CIL library *:* CIL module *
 0003:000012b0       _pmbinfo                   c0060cb0     * CIL library *:* CIL module *
 0003:000012b4       _igraph                    c0060cb4     * CIL library *:* CIL module *
 0003:000012c4       _VMemMngr                  c0060cc4     * CIL library *:* CIL module *
 0003:00001358       _idtr                      c0060d58     * CIL library *:* CIL module *
 0003:00001360       _IDT                       c0060d60     * CIL library *:* CIL module *
 0004:00000000       _Int32ToUInt32             c0062400     crtbase:ftol3.obj
 0004:00000010       _MantissaMask              c0062410     crtbase:ftol3.obj
 0004:00000018       _IntegerBit                c0062418     crtbase:ftol3.obj
 0004:00000020       _SignBit64                 c0062420     crtbase:ftol3.obj
 0004:00000028       _MinFP64                   c0062428     crtbase:ftol3.obj
 0004:00000030       _MinInt64                  c0062430     crtbase:ftol3.obj
 0004:00000038       _MaxInt64                  c0062438     crtbase:ftol3.obj
 0004:00000040       _MaxUInt64                 c0062440     crtbase:ftol3.obj
 0004:00000048       _MaxFP32                   c0062448     crtbase:ftol3.obj
 0004:00000050       _MinFP32                   c0062450     crtbase:ftol3.obj
 0004:00000058       _MinSubInexact             c0062458     crtbase:ftol3.obj
 0004:00000060       _FpExcptTable              c0062460     crtbase:ftol3.obj
 0004:00000070       _i1075                     c0062470     crtbase:ftol3.obj
 0004:00000074       _i1087                     c0062474     crtbase:ftol3.obj
 0004:00000078       _x0800                     c0062478     crtbase:ftol3.obj
 0004:0000007c       _x17FF                     c006247c     crtbase:ftol3.obj
 0004:00000080       _CWMask                    c0062480     crtbase:ftol3.obj
 0005:00000000       .edata                     c0062600     CHAIKRNL.exp
 0005:00000028       rgpv                       c0062628     CHAIKRNL.exp
 0005:0000007c       rgszName                   c006267c     CHAIKRNL.exp
 0005:000000d0       rgwOrd                     c00626d0     CHAIKRNL.exp
 0005:000000fa       szName                     c00626fa     CHAIKRNL.exp
 0005:00000107       $N00001                    c0062707     CHAIKRNL.exp
 0005:00000121       $N00002                    c0062721     CHAIKRNL.exp
 0005:00000136       $N00003                    c0062736     CHAIKRNL.exp
 0005:0000014b       $N00004                    c006274b     CHAIKRNL.exp
 0005:00000169       $N00005                    c0062769     CHAIKRNL.exp
 0005:0000017c       $N00006                    c006277c     CHAIKRNL.exp
 0005:0000019f       $N00007                    c006279f     CHAIKRNL.exp
 0005:000001ba       $N00008                    c00627ba     CHAIKRNL.exp
 0005:000001e1       $N00009                    c00627e1     CHAIKRNL.exp
 0005:00000208       $N00010                    c0062808     CHAIKRNL.exp
 0005:0000022b       $N00011                    c006282b     CHAIKRNL.exp
 0005:00000253       $N00012                    c0062853     CHAIKRNL.exp
 0005:0000027a       $N00013                    c006287a     CHAIKRNL.exp
 0005:00000294       $N00014                    c0062894     CHAIKRNL.exp
 0005:000002ae       $N00015                    c00628ae     CHAIKRNL.exp
 0005:000002bb       $N00016                    c00628bb     CHAIKRNL.exp
 0005:000002c2       $N00017                    c00628c2     CHAIKRNL.exp
 0005:000002c7       $N00018                    c00628c7     CHAIKRNL.exp
 0005:000002db       $N00019                    c00628db     CHAIKRNL.exp
 0005:000002e2       $N00020                    c00628e2     CHAIKRNL.exp
 0005:000002ea       $N00021                    c00628ea     CHAIKRNL.exp
 0006:00000156       .idata$6                   c0062b56     kcstdlib:kcstdlib.dll
 0006:00000170       .idata$6                   c0062b70     hal:Hal.dll

 Exports

  ordinal    name

        1    ??0CSpinlock@@QAE@ABV0@@Z (public: __thiscall CSpinlock::CSpinlock(class CSpinlock const &))
        2    ??0CSpinlock@@QAE@XZ (public: __thiscall CSpinlock::CSpinlock(void))
        3    ??1CSpinlock@@QAE@XZ (public: __thiscall CSpinlock::~CSpinlock(void))
        4    ??4CSpinlock@@QAEAAV0@ABV0@@Z (public: class CSpinlock & __thiscall CSpinlock::operator=(class CSpinlock const &))
        5    ??_7CSpinlock@@6B@ (const CSpinlock::`vftable')
        6    ?acquireSpinlock@CSpinlock@@UAGXXZ (public: virtual void __stdcall CSpinlock::acquireSpinlock(void))
        7    ?destroy@CSpinlock@@UAGXXZ (public: virtual void __stdcall CSpinlock::destroy(void))
        8    ?getGraphics@@YAPAVCKernelGraphics@@XZ (class CKernelGraphics * __cdecl getGraphics(void))
        9    ?getTerminal@@YAPAVCKernelTerminal@@XZ (class CKernelTerminal * __cdecl getTerminal(void))
       10    ?releaseSpinlock@CSpinlock@@UAGXXZ (public: virtual void __stdcall CSpinlock::releaseSpinlock(void))
       11    ?setGraphics@@YAXPAVCKernelGraphics@@@Z (void __cdecl setGraphics(class CKernelGraphics *))
       12    ?setTermial@@YAXPAVCKernelTerminal@@@Z (void __cdecl setTermial(class CKernelTerminal *))
       13    _DefaultPMemMngrFactory@0
       14    _DefaultVMemMngrFactory@0
       15    _GetAcpiTable
               exported name: GetAcpiTable
       16    _calloc
               exported name: calloc
       17    _free
               exported name: free
       18    _getMemoryManager@0
       19    _malloc
               exported name: malloc
       20    _realloc
               exported name: realloc
       21    _setMemoryManager@4
